 node_printer

 Timestamp is 5dc42951 (Thu Nov  7 19:55:21 2019)

 Preferred load address is 0000000180000000

 Start         Length     Name                   Class
 0001:00000000 00000070H .text$di                CODE
 0001:00000070 00028bd0H .text$mn                CODE
 0001:00028c40 00000020H .text$mn$00             CODE
 0001:00028c60 000003f0H .text$x                 CODE
 0001:00029050 000001acH .text$yd                CODE
 0002:00000000 00000370H .idata$5                DATA
 0002:00000370 00000010H .00cfg                  DATA
 0002:00000380 00000008H .CRT$XCA                DATA
 0002:00000388 00000018H .CRT$XCC                DATA
 0002:000003a0 00000010H .CRT$XCL                DATA
 0002:000003b0 00000008H .CRT$XCU                DATA
 0002:000003b8 00000008H .CRT$XCZ                DATA
 0002:000003c0 00000008H .CRT$XIA                DATA
 0002:000003c8 00000030H .CRT$XIC                DATA
 0002:000003f8 00000008H .CRT$XIZ                DATA
 0002:00000400 00000008H .CRT$XLA                DATA
 0002:00000408 00000008H .CRT$XLZ                DATA
 0002:00000410 00000008H .CRT$XPA                DATA
 0002:00000418 00000010H .CRT$XPX                DATA
 0002:00000428 00000008H .CRT$XPXA               DATA
 0002:00000430 00000008H .CRT$XPZ                DATA
 0002:00000438 00000008H .CRT$XTA                DATA
 0002:00000440 00000010H .CRT$XTZ                DATA
 0002:00000448 00000000H .gfids$y                DATA
 0002:00000450 00011dd0H .rdata                  DATA
 0002:00012220 00000028H .rdata$T                DATA
 0002:00012248 0000090cH .rdata$r                DATA
 0002:00012b54 00000484H .rdata$zzzdbg           DATA
 0002:00012fd8 00000008H .rtc$IAA                DATA
 0002:00012fe0 00000008H .rtc$IZZ                DATA
 0002:00012fe8 00000008H .rtc$TAA                DATA
 0002:00012ff0 00000008H .rtc$TZZ                DATA
 0002:00012ff8 00000004H .tls                    DATA
 0002:00012ffc 00000004H .tls$                   DATA
 0002:00013000 00000010H .tls$ZZZ                DATA
 0002:00013010 00001da8H .xdata                  DATA
 0002:00014db8 00000244H .xdata$x                DATA
 0002:00014ffc 00000020H .didat$2                DATA
 0002:0001501c 00000024H .didat$3                DATA
 0002:00015040 000000f8H .didat$4                DATA
 0002:00015138 00000740H .didat$6                DATA
 0002:00015878 000000f8H .didat$7                DATA
 0002:00015970 0000005cH .edata                  DATA
 0002:000159cc 0000003cH .idata$2                DATA
 0002:00015a08 00000018H .idata$3                DATA
 0002:00015a20 00000370H .idata$4                DATA
 0002:00015d90 000007acH .idata$6                DATA
 0003:00000000 00000b50H .data                   DATA
 0003:00000b50 00000320H .data$r                 DATA
 0003:00000e70 00000100H .didat$5                DATA
 0003:00000f70 0000192cH .bss                    DATA
 0004:00000000 000020d0H .pdata                  DATA
 0005:00000000 00000060H .rsrc$01                DATA
 0005:00000060 00000180H .rsrc$02                DATA

  Address         Publics by Value              Rva+Base               Lib:Object

 0000:00000000       __hybrid_code_map_count    0000000000000000     <absolute>
 0000:00000000       __hybrid_code_map          0000000000000000     <absolute>
 0000:00000000       __guard_iat_count          0000000000000000     <absolute>
 0000:00000000       __guard_longjmp_count      0000000000000000     <absolute>
 0000:00000000       __guard_longjmp_table      0000000000000000     <absolute>
 0000:00000000       __volatile_metadata        0000000000000000     <absolute>
 0000:00000000       __guard_iat_table          0000000000000000     <absolute>
 0000:00000000       __guard_fids_count         0000000000000000     <absolute>
 0000:00000000       ___safe_se_handler_count   0000000000000000     <absolute>
 0000:00000000       __enclave_config           0000000000000000     <absolute>
 0000:00000000       ___safe_se_handler_table   0000000000000000     <absolute>
 0000:00000000       __guard_fids_table         0000000000000000     <absolute>
 0000:00000000       __hybrid_auxiliary_iat     0000000000000000     <absolute>
 0000:00000000       __dynamic_value_reloc_table 0000000000000000     <absolute>
 0000:00000100       __guard_flags              0000000000000100     <absolute>
 0000:00000000       __ImageBase                0000000180000000     <linker-defined>
 0001:00000070       ?NODE_SET_METHOD@node@@YAXV?$Local@VObject@v8@@@v8@@PEBDP6AXAEBV?$FunctionCallbackInfo@VValue@v8@@@3@@Z@Z 0000000180001070 f i node_printer.obj
 0001:00000180       ?initNode@@YAXV?$Local@VObject@v8@@@v8@@@Z 0000000180001180 f   node_printer.obj
 0001:00000280       ?assign@?$basic_string@DU?$char_traits@D@std@@V?$allocator@D@2@@std@@QEAAAEAV12@QEBD_K@Z 0000000180001280 f i node_printer.obj
 0001:000003d0       ?_Xlen@?$basic_string@DU?$char_traits@D@std@@V?$allocator@D@2@@std@@SAXXZ 00000001800013d0 f i node_printer.obj
 0001:000003f0       __local_stdio_printf_options 00000001800013f0 f i node_printer_win.obj
 0001:00000400       sprintf_s                  0000000180001400 f i node_printer_win.obj
 0001:00000460       ?what@exception@stdext@@UEBAPEBDXZ 0000000180001460 f i node_printer_win.obj
 0001:00000480       ?_Raise@exception@stdext@@QEBAXXZ 0000000180001480 f i node_printer_win.obj
 0001:000004c0       ?_Doraise@exception@stdext@@MEBAXXZ 00000001800014c0 f i node_printer_win.obj
 0001:000004c0       ?_Unlock@?$basic_streambuf@DU?$char_traits@D@std@@@std@@UEAAXXZ 00000001800014c0 f i node_printer_win.obj
 0001:000004c0       _guard_check_icall_nop     00000001800014c0 f i LIBCMT:guard_support.obj
 0001:000004c0       ?imbue@?$basic_streambuf@DU?$char_traits@D@std@@@std@@MEAAXAEBVlocale@2@@Z 00000001800014c0 f i node_printer_win.obj
 0001:000004c0       ?_Lock@?$basic_streambuf@DU?$char_traits@D@std@@@std@@UEAAXXZ 00000001800014c0 f i node_printer_win.obj
 0001:000004d0       ??_Eruntime_error@std@@UEAAPEAXI@Z 00000001800014d0 f i * CIL library *:* CIL module *
 0001:000004d0       ??_Gruntime_error@std@@UEAAPEAXI@Z 00000001800014d0 f i node_printer_win.obj
 0001:000004d0       ??_Gexception@stdext@@UEAAPEAXI@Z 00000001800014d0 f i node_printer_win.obj
 0001:000004d0       ??_Eexception@stdext@@UEAAPEAXI@Z 00000001800014d0 f i * CIL library *:* CIL module *
 0001:00000500       ??0runtime_error@std@@QEAA@PEBD@Z 0000000180001500 f i node_printer_win.obj
 0001:00000520       ??1_Locinfo@std@@QEAA@XZ   0000000180001520 f i node_printer_win.obj
 0001:000005c0       ??_E_Facet_base@std@@UEAAPEAXI@Z 00000001800015c0 f i * CIL library *:* CIL module *
 0001:000005c0       ??_G_Facet_base@std@@UEAAPEAXI@Z 00000001800015c0 f i node_printer_win.obj
 0001:000005f0       ?_Incref@facet@locale@std@@UEAAXXZ 00000001800015f0 f i node_printer_win.obj
 0001:00000600       ?_Decref@facet@locale@std@@UEAAPEAV_Facet_base@3@XZ 0000000180001600 f i node_printer_win.obj
 0001:00000610       ?do_tolower@?$ctype@D@std@@MEBADD@Z 0000000180001610 f i node_printer_win.obj
 0001:00000620       ?do_tolower@?$ctype@D@std@@MEBAPEBDPEADPEBD@Z 0000000180001620 f i node_printer_win.obj
 0001:00000680       ?do_toupper@?$ctype@D@std@@MEBADD@Z 0000000180001680 f i node_printer_win.obj
 0001:00000690       ?do_toupper@?$ctype@D@std@@MEBAPEBDPEADPEBD@Z 0000000180001690 f i node_printer_win.obj
 0001:000006f0       ?do_widen@?$ctype@D@std@@MEBADD@Z 00000001800016f0 f i node_printer_win.obj
 0001:000006f0       ?do_narrow@?$ctype@D@std@@MEBADDD@Z 00000001800016f0 f i node_printer_win.obj
 0001:00000700       ?do_widen@?$ctype@D@std@@MEBAPEBDPEBD0PEAD@Z 0000000180001700 f i node_printer_win.obj
 0001:00000720       ?do_narrow@?$ctype@D@std@@MEBAPEBDPEBD0DPEAD@Z 0000000180001720 f i node_printer_win.obj
 0001:00000740       ??_E?$ctype@D@std@@MEAAPEAXI@Z 0000000180001740 f i * CIL library *:* CIL module *
 0001:00000740       ??_G?$ctype@D@std@@MEAAPEAXI@Z 0000000180001740 f i node_printer_win.obj
 0001:000007b0       ?default_error_condition@error_category@std@@UEBA?AVerror_condition@2@H@Z 00000001800017b0 f i node_printer_win.obj
 0001:000007c0       ?equivalent@error_category@std@@UEBA_NHAEBVerror_condition@2@@Z 00000001800017c0 f i node_printer_win.obj
 0001:00000800       ?equivalent@error_category@std@@UEBA_NAEBVerror_code@2@H@Z 0000000180001800 f i node_printer_win.obj
 0001:00000820       ?make_error_code@std@@YA?AVerror_code@1@W4io_errc@1@@Z 0000000180001820 f i node_printer_win.obj
 0001:00000870       ??0_System_error@std@@IEAA@Verror_code@1@AEBV?$basic_string@DU?$char_traits@D@std@@V?$allocator@D@2@@1@@Z 0000000180001870 f i node_printer_win.obj
 0001:00000aa0       ??_E_System_error@std@@UEAAPEAXI@Z 0000000180001aa0 f i * CIL library *:* CIL module *
 0001:00000aa0       ??_Gfailure@ios_base@std@@UEAAPEAXI@Z 0000000180001aa0 f i node_printer_win.obj
 0001:00000aa0       ??_G_System_error@std@@UEAAPEAXI@Z 0000000180001aa0 f i node_printer_win.obj
 0001:00000aa0       ??_Efailure@ios_base@std@@UEAAPEAXI@Z 0000000180001aa0 f i * CIL library *:* CIL module *
 0001:00000ad0       ?name@_Iostream_error_category@std@@UEBAPEBDXZ 0000000180001ad0 f i node_printer_win.obj
 0001:00000ae0       ?message@_Iostream_error_category@std@@UEBA?AV?$basic_string@DU?$char_traits@D@std@@V?$allocator@D@2@@2@H@Z 0000000180001ae0 f i node_printer_win.obj
 0001:00000b60       ??_E_Iostream_error_category@std@@UEAAPEAXI@Z 0000000180001b60 f i * CIL library *:* CIL module *
 0001:00000b60       ??_G_Iostream_error_category@std@@UEAAPEAXI@Z 0000000180001b60 f i node_printer_win.obj
 0001:00000b90       ??0failure@ios_base@std@@QEAA@PEBDAEBVerror_code@2@@Z 0000000180001b90 f i node_printer_win.obj
 0001:00000c60       ?_Doraise@failure@ios_base@std@@MEBAXXZ 0000000180001c60 f i node_printer_win.obj
 0001:00000c80       ??_Eios_base@std@@UEAAPEAXI@Z 0000000180001c80 f i * CIL library *:* CIL module *
 0001:00000c80       ??_Gios_base@std@@UEAAPEAXI@Z 0000000180001c80 f i node_printer_win.obj
 0001:00003440       ??_D?$basic_ostringstream@DU?$char_traits@D@std@@V?$allocator@D@2@@std@@QEAAXXZ 0000000180004440 f i node_printer_win.obj
 0001:00004220       ?getPrinters@@YAXAEBV?$FunctionCallbackInfo@VValue@v8@@@v8@@@Z 0000000180005220 f   node_printer_win.obj
 0001:00004620       ?getDefaultPrinterName@@YAXAEBV?$FunctionCallbackInfo@VValue@v8@@@v8@@@Z 0000000180005620 f   node_printer_win.obj
 0001:00004730       ?getPrinter@@YAXAEBV?$FunctionCallbackInfo@VValue@v8@@@v8@@@Z 0000000180005730 f   node_printer_win.obj
 0001:00004c70       ?getPrinterDriverOptions@@YAXAEBV?$FunctionCallbackInfo@VValue@v8@@@v8@@@Z 0000000180005c70 f   node_printer_win.obj
 0001:00004ce0       ?getJob@@YAXAEBV?$FunctionCallbackInfo@VValue@v8@@@v8@@@Z 0000000180005ce0 f   node_printer_win.obj
 0001:00005230       ?setJob@@YAXAEBV?$FunctionCallbackInfo@VValue@v8@@@v8@@@Z 0000000180006230 f   node_printer_win.obj
 0001:000057e0       ?getSupportedJobCommands@@YAXAEBV?$FunctionCallbackInfo@VValue@v8@@@v8@@@Z 00000001800067e0 f   node_printer_win.obj
 0001:00005910       ?getSupportedPrintFormats@@YAXAEBV?$FunctionCallbackInfo@VValue@v8@@@v8@@@Z 0000000180006910 f   node_printer_win.obj
 0001:00005d90       ?PrintDirect@@YAXAEBV?$FunctionCallbackInfo@VValue@v8@@@v8@@@Z 0000000180006d90 f   node_printer_win.obj
 0001:000067c0       ?PrintFile@@YAXAEBV?$FunctionCallbackInfo@VValue@v8@@@v8@@@Z 00000001800077c0 f   node_printer_win.obj
 0001:00006830       ??0?$basic_string@DU?$char_traits@D@std@@V?$allocator@D@2@@std@@QEAA@_KD@Z 0000000180007830 f i node_printer_win.obj
 0001:000069a0       ??0?$basic_ostringstream@DU?$char_traits@D@std@@V?$allocator@D@2@@std@@QEAA@H@Z 00000001800079a0 f i node_printer_win.obj
 0001:00006be0       ?seekpos@?$basic_stringbuf@DU?$char_traits@D@std@@V?$allocator@D@2@@std@@MEAA?AV?$fpos@U_Mbstatet@@@2@V32@H@Z 0000000180007be0 f i node_printer_win.obj
 0001:00006cd0       ?seekoff@?$basic_stringbuf@DU?$char_traits@D@std@@V?$allocator@D@2@@std@@MEAA?AV?$fpos@U_Mbstatet@@@2@_JHH@Z 0000000180007cd0 f i node_printer_win.obj
 0001:00006e20       ?underflow@?$basic_stringbuf@DU?$char_traits@D@std@@V?$allocator@D@2@@std@@MEAAHXZ 0000000180007e20 f i node_printer_win.obj
 0001:00006e90       ?pbackfail@?$basic_stringbuf@DU?$char_traits@D@std@@V?$allocator@D@2@@std@@MEAAHH@Z 0000000180007e90 f i node_printer_win.obj
 0001:00006ef0       ?overflow@?$basic_stringbuf@DU?$char_traits@D@std@@V?$allocator@D@2@@std@@MEAAHH@Z 0000000180007ef0 f i node_printer_win.obj
 0001:00007100       ??1?$basic_stringbuf@DU?$char_traits@D@std@@V?$allocator@D@2@@std@@UEAA@XZ 0000000180008100 f i node_printer_win.obj
 0001:00007200       ??6?$basic_ostream@DU?$char_traits@D@std@@@std@@QEAAAEAV01@K@Z 0000000180008200 f i node_printer_win.obj
 0001:000073c0       ?showmanyc@?$basic_streambuf@DU?$char_traits@D@std@@@std@@MEAA_JXZ 00000001800083c0 f i node_printer_win.obj
 0001:000073c0       ?sync@?$basic_streambuf@DU?$char_traits@D@std@@@std@@MEAAHXZ 00000001800083c0 f i node_printer_win.obj
 0001:000073d0       ?setbuf@?$basic_streambuf@DU?$char_traits@D@std@@@std@@MEAAPEAV12@PEAD_J@Z 00000001800083d0 f i node_printer_win.obj
 0001:000073e0       ?seekpos@?$basic_streambuf@DU?$char_traits@D@std@@@std@@MEAA?AV?$fpos@U_Mbstatet@@@2@V32@H@Z 00000001800083e0 f i node_printer_win.obj
 0001:000073e0       ?seekoff@?$basic_streambuf@DU?$char_traits@D@std@@@std@@MEAA?AV?$fpos@U_Mbstatet@@@2@_JHH@Z 00000001800083e0 f i node_printer_win.obj
 0001:00007400       ?xsputn@?$basic_streambuf@DU?$char_traits@D@std@@@std@@MEAA_JPEBD_J@Z 0000000180008400 f i node_printer_win.obj
 0001:000074c0       ?xsgetn@?$basic_streambuf@DU?$char_traits@D@std@@@std@@MEAA_JPEAD_J@Z 00000001800084c0 f i node_printer_win.obj
 0001:00007570       ?uflow@?$basic_streambuf@DU?$char_traits@D@std@@@std@@MEAAHXZ 0000000180008570 f i node_printer_win.obj
 0001:000075b0       ?pbackfail@?$basic_streambuf@DU?$char_traits@D@std@@@std@@MEAAHH@Z 00000001800085b0 f i node_printer_win.obj
 0001:000075b0       ?overflow@?$basic_streambuf@DU?$char_traits@D@std@@@std@@MEAAHH@Z 00000001800085b0 f i node_printer_win.obj
 0001:000075b0       ?underflow@?$basic_streambuf@DU?$char_traits@D@std@@@std@@MEAAHXZ 00000001800085b0 f i node_printer_win.obj
 0001:000075c0       ??_G?$basic_ostringstream@DU?$char_traits@D@std@@V?$allocator@D@2@@std@@UEAAPEAXI@Z 00000001800085c0 f i node_printer_win.obj
 0001:000075c0       ??_E?$basic_ostringstream@DU?$char_traits@D@std@@V?$allocator@D@2@@std@@UEAAPEAXI@Z 00000001800085c0 f i * CIL library *:* CIL module *
 0001:00007600       ??_E?$basic_stringbuf@DU?$char_traits@D@std@@V?$allocator@D@2@@std@@UEAAPEAXI@Z 0000000180008600 f i * CIL library *:* CIL module *
 0001:00007600       ??_G?$basic_stringbuf@DU?$char_traits@D@std@@V?$allocator@D@2@@std@@UEAAPEAXI@Z 0000000180008600 f i node_printer_win.obj
 0001:00007640       ??_E?$basic_ostream@DU?$char_traits@D@std@@@std@@UEAAPEAXI@Z 0000000180008640 f i * CIL library *:* CIL module *
 0001:00007640       ??_G?$basic_ostream@DU?$char_traits@D@std@@@std@@UEAAPEAXI@Z 0000000180008640 f i node_printer_win.obj
 0001:000076b0       ??_E?$basic_streambuf@DU?$char_traits@D@std@@@std@@UEAAPEAXI@Z 00000001800086b0 f i * CIL library *:* CIL module *
 0001:000076b0       ??_G?$basic_streambuf@DU?$char_traits@D@std@@@std@@UEAAPEAXI@Z 00000001800086b0 f i node_printer_win.obj
 0001:00007730       ??_E?$basic_ios@DU?$char_traits@D@std@@@std@@UEAAPEAXI@Z 0000000180008730 f i * CIL library *:* CIL module *
 0001:00007730       ??_G?$basic_ios@DU?$char_traits@D@std@@@std@@UEAAPEAXI@Z 0000000180008730 f i node_printer_win.obj
 0001:00007770       ??0sentry@?$basic_ostream@DU?$char_traits@D@std@@@std@@QEAA@AEAV12@@Z 0000000180008770 f i node_printer_win.obj
 0001:000078a0       ?do_put@?$num_put@DV?$ostreambuf_iterator@DU?$char_traits@D@std@@@std@@@std@@MEBA?AV?$ostreambuf_iterator@DU?$char_traits@D@std@@@2@V32@AEAVios_base@2@DPEBX@Z 00000001800088a0 f i node_printer_win.obj
 0001:00007940       ?do_put@?$num_put@DV?$ostreambuf_iterator@DU?$char_traits@D@std@@@std@@@std@@MEBA?AV?$ostreambuf_iterator@DU?$char_traits@D@std@@@2@V32@AEAVios_base@2@DO@Z 0000000180008940 f i node_printer_win.obj
 0001:00007c20       ?do_put@?$num_put@DV?$ostreambuf_iterator@DU?$char_traits@D@std@@@std@@@std@@MEBA?AV?$ostreambuf_iterator@DU?$char_traits@D@std@@@2@V32@AEAVios_base@2@DN@Z 0000000180008c20 f i node_printer_win.obj
 0001:00007f00       ?do_put@?$num_put@DV?$ostreambuf_iterator@DU?$char_traits@D@std@@@std@@@std@@MEBA?AV?$ostreambuf_iterator@DU?$char_traits@D@std@@@2@V32@AEAVios_base@2@D_K@Z 0000000180008f00 f i node_printer_win.obj
 0001:00008020       ?do_put@?$num_put@DV?$ostreambuf_iterator@DU?$char_traits@D@std@@@std@@@std@@MEBA?AV?$ostreambuf_iterator@DU?$char_traits@D@std@@@2@V32@AEAVios_base@2@D_J@Z 0000000180009020 f i node_printer_win.obj
 0001:00008140       ?do_put@?$num_put@DV?$ostreambuf_iterator@DU?$char_traits@D@std@@@std@@@std@@MEBA?AV?$ostreambuf_iterator@DU?$char_traits@D@std@@@2@V32@AEAVios_base@2@DK@Z 0000000180009140 f i node_printer_win.obj
 0001:00008260       ?do_put@?$num_put@DV?$ostreambuf_iterator@DU?$char_traits@D@std@@@std@@@std@@MEBA?AV?$ostreambuf_iterator@DU?$char_traits@D@std@@@2@V32@AEAVios_base@2@DJ@Z 0000000180009260 f i node_printer_win.obj
 0001:00008380       ?do_put@?$num_put@DV?$ostreambuf_iterator@DU?$char_traits@D@std@@@std@@@std@@MEBA?AV?$ostreambuf_iterator@DU?$char_traits@D@std@@@2@V32@AEAVios_base@2@D_N@Z 0000000180009380 f i node_printer_win.obj
 0001:00008680       ?append@?$basic_string@DU?$char_traits@D@std@@V?$allocator@D@2@@std@@QEAAAEAV12@QEBD_K@Z 0000000180009680 f i node_printer_win.obj
 0001:00008700       ?_Pnavail@?$basic_streambuf@DU?$char_traits@D@std@@@std@@IEBA_JXZ 0000000180009700 f i node_printer_win.obj
 0001:00008720       ?_Gnavail@?$basic_streambuf@DU?$char_traits@D@std@@@std@@IEBA_JXZ 0000000180009720 f i node_printer_win.obj
 0001:00008740       ?setstate@?$basic_ios@DU?$char_traits@D@std@@@std@@QEAAXH_N@Z 0000000180009740 f i node_printer_win.obj
 0001:000087c0       ??_E?$num_put@DV?$ostreambuf_iterator@DU?$char_traits@D@std@@@std@@@std@@MEAAPEAXI@Z 00000001800097c0 f i * CIL library *:* CIL module *
 0001:000087c0       ??_G?$num_put@DV?$ostreambuf_iterator@DU?$char_traits@D@std@@@std@@@std@@MEAAPEAXI@Z 00000001800097c0 f i node_printer_win.obj
 0001:000087f0       ?do_truename@?$numpunct@D@std@@MEBA?AV?$basic_string@DU?$char_traits@D@std@@V?$allocator@D@2@@2@XZ 00000001800097f0 f i node_printer_win.obj
 0001:00008840       ?do_falsename@?$numpunct@D@std@@MEBA?AV?$basic_string@DU?$char_traits@D@std@@V?$allocator@D@2@@2@XZ 0000000180009840 f i node_printer_win.obj
 0001:00008890       ?do_grouping@?$numpunct@D@std@@MEBA?AV?$basic_string@DU?$char_traits@D@std@@V?$allocator@D@2@@2@XZ 0000000180009890 f i node_printer_win.obj
 0001:000088e0       ?do_thousands_sep@?$numpunct@D@std@@MEBADXZ 00000001800098e0 f i node_printer_win.obj
 0001:000088f0       ?do_decimal_point@?$numpunct@D@std@@MEBADXZ 00000001800098f0 f i node_printer_win.obj
 0001:00008900       ?_Iput@?$num_put@DV?$ostreambuf_iterator@DU?$char_traits@D@std@@@std@@@std@@AEBA?AV?$ostreambuf_iterator@DU?$char_traits@D@std@@@2@V32@AEAVios_base@2@DPEAD_K@Z 0000000180009900 f i node_printer_win.obj
 0001:00008f70       ?_Fput@?$num_put@DV?$ostreambuf_iterator@DU?$char_traits@D@std@@@std@@@std@@AEBA?AV?$ostreambuf_iterator@DU?$char_traits@D@std@@@2@V32@AEAVios_base@2@DPEBD_K@Z 0000000180009f70 f i node_printer_win.obj
 0001:00009660       ?erase@?$_Tree@V?$_Tmap_traits@V?$basic_string@DU?$char_traits@D@std@@V?$allocator@D@2@@std@@KU?$less@V?$basic_string@DU?$char_traits@D@std@@V?$allocator@D@2@@std@@@2@V?$allocator@U?$pair@$$CBV?$basic_string@DU?$char_traits@D@std@@V?$allocator@D@2@@std@@K@std@@@2@$0A@@std@@@std@@QEAA?AV?$_Tree_iterator@V?$_Tree_val@U?$_Tree_simple_types@U?$pair@$$CBV?$basic_string@DU?$char_traits@D@std@@V?$allocator@D@2@@std@@K@std@@@std@@@std@@@2@V?$_Tree_const_iterator@V?$_Tree_val@U?$_Tree_simple_types@U?$pair@$$CBV?$basic_string@DU?$char_traits@D@std@@V?$allocator@D@2@@std@@K@std@@@std@@@std@@@2@0@Z 000000018000a660 f i node_printer_win.obj
 0001:00009800       ??_E?$numpunct@D@std@@MEAAPEAXI@Z 000000018000a800 f i * CIL library *:* CIL module *
 0001:00009800       ??_G?$numpunct@D@std@@MEAAPEAXI@Z 000000018000a800 f i node_printer_win.obj
 0001:00009860       ?_Extract@?$_Tree_val@U?$_Tree_simple_types@U?$pair@$$CBV?$basic_string@DU?$char_traits@D@std@@V?$allocator@D@2@@std@@K@std@@@std@@@std@@QEAAPEAU?$_Tree_node@U?$pair@$$CBV?$basic_string@DU?$char_traits@D@std@@V?$allocator@D@2@@std@@K@std@@PEAX@2@V?$_Tree_const_iterator@V?$_Tree_val@U?$_Tree_simple_types@U?$pair@$$CBV?$basic_string@DU?$char_traits@D@std@@V?$allocator@D@2@@std@@K@std@@@std@@@std@@@2@@Z 000000018000a860 f i node_printer_win.obj
 0001:00009d00       ?_Erase@?$_Tree@V?$_Tmap_traits@V?$basic_string@DU?$char_traits@D@std@@V?$allocator@D@2@@std@@KU?$less@V?$basic_string@DU?$char_traits@D@std@@V?$allocator@D@2@@std@@@2@V?$allocator@U?$pair@$$CBV?$basic_string@DU?$char_traits@D@std@@V?$allocator@D@2@@std@@K@std@@@2@$0A@@std@@@std@@IEAAXPEAU?$_Tree_node@U?$pair@$$CBV?$basic_string@DU?$char_traits@D@std@@V?$allocator@D@2@@std@@K@std@@PEAX@2@@Z 000000018000ad00 f i node_printer_win.obj
 0001:00009dc0       ?_Xran@?$_String_val@U?$_Simple_types@D@std@@@std@@SAXXZ 000000018000adc0 f i node_printer_win.obj
 0001:00009de0       ??$use_facet@V?$ctype@D@std@@@std@@YAAEBV?$ctype@D@0@AEBVlocale@0@@Z 000000018000ade0 f i node_printer_win.obj
 0001:00009fe0       ??$insert@U?$pair@PEBDH@std@@X@?$map@V?$basic_string@DU?$char_traits@D@std@@V?$allocator@D@2@@std@@KU?$less@V?$basic_string@DU?$char_traits@D@std@@V?$allocator@D@2@@std@@@2@V?$allocator@U?$pair@$$CBV?$basic_string@DU?$char_traits@D@std@@V?$allocator@D@2@@std@@K@std@@@2@@std@@QEAA?AU?$pair@V?$_Tree_iterator@V?$_Tree_val@U?$_Tree_simple_types@U?$pair@$$CBV?$basic_string@DU?$char_traits@D@std@@V?$allocator@D@2@@std@@K@std@@@std@@@std@@@std@@_N@1@$$QEAU?$pair@PEBDH@1@@Z 000000018000afe0 f i node_printer_win.obj
 0001:0000a0a0       ??$?6U?$char_traits@D@std@@@std@@YAAEAV?$basic_ostream@DU?$char_traits@D@std@@@0@AEAV10@PEBD@Z 000000018000b0a0 f i node_printer_win.obj
 0001:0000a310       ??$use_facet@V?$num_put@DV?$ostreambuf_iterator@DU?$char_traits@D@std@@@std@@@std@@@std@@YAAEBV?$num_put@DV?$ostreambuf_iterator@DU?$char_traits@D@std@@@std@@@0@AEBVlocale@0@@Z 000000018000b310 f i node_printer_win.obj
 0001:0000a4f0       ??$use_facet@V?$numpunct@D@std@@@std@@YAAEBV?$numpunct@D@0@AEBVlocale@0@@Z 000000018000b4f0 f i node_printer_win.obj
 0001:0000a600       ??$_Reallocate_grow_by@V<lambda_e1befb086ad3257e3f042a63030725f7>@@_KD@?$basic_string@DU?$char_traits@D@std@@V?$allocator@D@2@@std@@QEAAAEAV01@_KV<lambda_e1befb086ad3257e3f042a63030725f7>@@_KD@Z 000000018000b600 f i node_printer_win.obj
 0001:0000a780       ??$_Reallocate_grow_by@V<lambda_65e615be2a453ca0576c979606f46740>@@PEBD_K@?$basic_string@DU?$char_traits@D@std@@V?$allocator@D@2@@std@@QEAAAEAV01@_KV<lambda_65e615be2a453ca0576c979606f46740>@@PEBD_K@Z 000000018000b780 f i node_printer_win.obj
 0001:0000a900       ??$_Reallocate_grow_by@V<lambda_b986da8d428e4af07c64af60eec09b61>@@_K_KD@?$basic_string@DU?$char_traits@D@std@@V?$allocator@D@2@@std@@QEAAAEAV01@_KV<lambda_b986da8d428e4af07c64af60eec09b61>@@_K2D@Z 000000018000b900 f i node_printer_win.obj
 0001:0000aab0       ?_Getcat@?$numpunct@D@std@@SA_KPEAPEBVfacet@locale@2@PEBV42@@Z 000000018000bab0 f i node_printer_win.obj
 0001:0000aca0       ??$_Immortalize_impl@V_Iostream_error_category@std@@@std@@YAHPEAX0PEAPEAX@Z 000000018000bca0 f i node_printer_win.obj
 0001:0000acc0       ??$_Insert_string@DU?$char_traits@D@std@@_K@std@@YAAEAV?$basic_ostream@DU?$char_traits@D@std@@@0@AEAV10@QEBD_K@Z 000000018000bcc0 f i node_printer_win.obj
 0001:0000af20       ??$_Insert_nohint@AEAU?$pair@$$CBV?$basic_string@DU?$char_traits@D@std@@V?$allocator@D@2@@std@@K@std@@PEAU?$_Tree_node@U?$pair@$$CBV?$basic_string@DU?$char_traits@D@std@@V?$allocator@D@2@@std@@K@std@@PEAX@2@@?$_Tree@V?$_Tmap_traits@V?$basic_string@DU?$char_traits@D@std@@V?$allocator@D@2@@std@@KU?$less@V?$basic_string@DU?$char_traits@D@std@@V?$allocator@D@2@@std@@@2@V?$allocator@U?$pair@$$CBV?$basic_string@DU?$char_traits@D@std@@V?$allocator@D@2@@std@@K@std@@@2@$0A@@std@@@std@@IEAA?AU?$pair@V?$_Tree_iterator@V?$_Tree_val@U?$_Tree_simple_types@U?$pair@$$CBV?$basic_string@DU?$char_traits@D@std@@V?$allocator@D@2@@std@@K@std@@@std@@@std@@@std@@_N@1@_NAEAU?$pair@$$CBV?$basic_string@DU?$char_traits@D@std@@V?$allocator@D@2@@std@@K@1@PEAU?$_Tree_node@U?$pair@$$CBV?$basic_string@DU?$char_traits@D@std@@V?$allocator@D@2@@std@@K@std@@PEAX@1@@Z 000000018000bf20 f i node_printer_win.obj
 0001:0000b100       ?_Destroy_if_node@?$_Tree@V?$_Tmap_traits@V?$basic_string@DU?$char_traits@D@std@@V?$allocator@D@2@@std@@KU?$less@V?$basic_string@DU?$char_traits@D@std@@V?$allocator@D@2@@std@@@2@V?$allocator@U?$pair@$$CBV?$basic_string@DU?$char_traits@D@std@@V?$allocator@D@2@@std@@K@std@@@2@$0A@@std@@@std@@IEAAXPEAU?$_Tree_node@U?$pair@$$CBV?$basic_string@DU?$char_traits@D@std@@V?$allocator@D@2@@std@@K@std@@PEAX@2@@Z 000000018000c100 f i node_printer_win.obj
 0001:0000b170       ??$_Insert_at@AEAU?$pair@$$CBV?$basic_string@DU?$char_traits@D@std@@V?$allocator@D@2@@std@@K@std@@PEAU?$_Tree_node@U?$pair@$$CBV?$basic_string@DU?$char_traits@D@std@@V?$allocator@D@2@@std@@K@std@@PEAX@2@@?$_Tree@V?$_Tmap_traits@V?$basic_string@DU?$char_traits@D@std@@V?$allocator@D@2@@std@@KU?$less@V?$basic_string@DU?$char_traits@D@std@@V?$allocator@D@2@@std@@@2@V?$allocator@U?$pair@$$CBV?$basic_string@DU?$char_traits@D@std@@V?$allocator@D@2@@std@@K@std@@@2@$0A@@std@@@std@@IEAA?AV?$_Tree_iterator@V?$_Tree_val@U?$_Tree_simple_types@U?$pair@$$CBV?$basic_string@DU?$char_traits@D@std@@V?$allocator@D@2@@std@@K@std@@@std@@@std@@@1@_NPEAU?$_Tree_node@U?$pair@$$CBV?$basic_string@DU?$char_traits@D@std@@V?$allocator@D@2@@std@@K@std@@PEAX@1@AEAU?$pair@$$CBV?$basic_string@DU?$char_traits@D@std@@V?$allocator@D@2@@std@@K@1@1@Z 000000018000c170 f i node_printer_win.obj
 0001:0000b41c       ??_E?$basic_ostream@DU?$char_traits@D@std@@@std@@$4PPPPPPPM@A@EAAPEAXI@Z 000000018000c41c f i node_printer_win.obj
 0001:0000b428       ??_E?$basic_ostringstream@DU?$char_traits@D@std@@V?$allocator@D@2@@std@@$4PPPPPPPM@A@EAAPEAXI@Z 000000018000c428 f i node_printer_win.obj
 0001:0000b440       ?MySetPrinter@@YAHPEADFFF@Z 000000018000c440 f   setprinter.obj
 0001:0000b734       __imp_load_?GetCurrentContext@Isolate@v8@@QEAA?AV?$Local@VContext@v8@@@2@XZ 000000018000c734 f   node:node.exe
 0001:0000b740       __tailMerge_node_exe       000000018000c740     node:node.exe
 0001:0000b7b9       __imp_load_?GetCurrent@Isolate@v8@@SAPEAV12@XZ 000000018000c7b9 f   node:node.exe
 0001:0000b7c5       __imp_load_??1HandleScope@v8@@QEAA@XZ 000000018000c7c5 f   node:node.exe
 0001:0000b7d1       __imp_load_??0HandleScope@v8@@QEAA@PEAVIsolate@1@@Z 000000018000c7d1 f   node:node.exe
 0001:0000b7dd       __imp_load_?GetFunction@FunctionTemplate@v8@@QEAA?AV?$MaybeLocal@VFunction@v8@@@2@V?$Local@VContext@v8@@@2@@Z 000000018000c7dd f   node:node.exe
 0001:0000b7e9       __imp_load_?New@FunctionTemplate@v8@@SA?AV?$Local@VFunctionTemplate@v8@@@2@PEAVIsolate@2@P6AXAEBV?$FunctionCallbackInfo@VValue@v8@@@2@@ZV?$Local@VValue@v8@@@2@V?$Local@VSignature@v8@@@2@HW4ConstructorBehavior@2@W4SideEffectType@2@@Z 000000018000c7e9 f   node:node.exe
 0001:0000b7f5       __imp_load_?ToLocalEmpty@V8@v8@@CAXXZ 000000018000c7f5 f   node:node.exe
 0001:0000b801       __imp_load_?IsObject@Value@v8@@QEBA_NXZ 000000018000c801 f   node:node.exe
 0001:0000b80d       __imp_load_??1Utf8Value@String@v8@@QEAA@XZ 000000018000c80d f   node:node.exe
 0001:0000b819       __imp_load_??0Utf8Value@String@v8@@QEAA@V?$Local@VValue@v8@@@2@@Z 000000018000c819 f   node:node.exe
 0001:0000b825       __imp_load_?NewFromUtf8@String@v8@@SA?AV?$MaybeLocal@VString@v8@@@2@PEAVIsolate@2@PEBDW4NewStringType@2@H@Z 000000018000c825 f   node:node.exe
 0001:0000b831       __imp_load_?Set@Object@v8@@QEAA_NV?$Local@VValue@v8@@@2@0@Z 000000018000c831 f   node:node.exe
 0001:0000b83d       __imp_load_?SetName@Function@v8@@QEAAXV?$Local@VString@v8@@@2@@Z 000000018000c83d f   node:node.exe
 0001:0000b849       __imp_load_node_module_register 000000018000c849 f   node:node.exe
 0001:0000b855       __imp_load_?HasInstance@Buffer@node@@YA_NV?$Local@VValue@v8@@@v8@@@Z 000000018000c855 f   node:node.exe
 0001:0000b861       __imp_load_?Data@Buffer@node@@YAPEADV?$Local@VValue@v8@@@v8@@@Z 000000018000c861 f   node:node.exe
 0001:0000b86d       __imp_load_?Length@Buffer@node@@YA_KV?$Local@VValue@v8@@@v8@@@Z 000000018000c86d f   node:node.exe
 0001:0000b879       __imp_load_?ToString@Value@v8@@QEBA?AV?$Local@VString@v8@@@2@XZ 000000018000c879 f   node:node.exe
 0001:0000b885       __imp_load_?ThrowException@Isolate@v8@@QEAA?AV?$Local@VValue@v8@@@2@V32@@Z 000000018000c885 f   node:node.exe
 0001:0000b891       __imp_load_?TypeError@Exception@v8@@SA?AV?$Local@VValue@v8@@@2@V?$Local@VString@v8@@@2@@Z 000000018000c891 f   node:node.exe
 0001:0000b89d       __imp_load_?New@Array@v8@@SA?AV?$Local@VArray@v8@@@2@PEAVIsolate@2@H@Z 000000018000c89d f   node:node.exe
 0001:0000b8a9       __imp_load_?Int32Value@Value@v8@@QEBAHXZ 000000018000c8a9 f   node:node.exe
 0001:0000b8b5       __imp_load_?IsInt32@Value@v8@@QEBA_NXZ 000000018000c8b5 f   node:node.exe
 0001:0000b8c1       __imp_load_??1Value@String@v8@@QEAA@XZ 000000018000c8c1 f   node:node.exe
 0001:0000b8cd       __imp_load_??0Value@String@v8@@QEAA@V?$Local@VValue@v8@@@2@@Z 000000018000c8cd f   node:node.exe
 0001:0000b8d9       __imp_load_?NewFromTwoByte@String@v8@@SA?AV?$Local@VString@v8@@@2@PEAVIsolate@2@PEBGW4NewStringType@12@H@Z 000000018000c8d9 f   node:node.exe
 0001:0000b8e5       __imp_load_?NewFromUtf8@String@v8@@SA?AV?$Local@VString@v8@@@2@PEAVIsolate@2@PEBDW4NewStringType@12@H@Z 000000018000c8e5 f   node:node.exe
 0001:0000b8f1       __imp_load_?New@Number@v8@@SA?AV?$Local@VNumber@v8@@@2@PEAVIsolate@2@N@Z 000000018000c8f1 f   node:node.exe
 0001:0000b8fd       __imp_load_?New@Object@v8@@SA?AV?$Local@VObject@v8@@@2@PEAVIsolate@2@@Z 000000018000c8fd f   node:node.exe
 0001:0000b909       __imp_load_?Set@Object@v8@@QEAA_NIV?$Local@VValue@v8@@@2@@Z 000000018000c909 f   node:node.exe
 0001:0000b918       ??0bad_alloc@std@@QEAA@AEBV01@@Z 000000018000c918 f i libcpmt:xthrow.obj
 0001:0000b958       ??0bad_alloc@std@@QEAA@XZ  000000018000c958 f i libcpmt:xthrow.obj
 0001:0000b978       ??0exception@std@@QEAA@AEBV01@@Z 000000018000c978 f i libcpmt:xthrow.obj
 0001:0000b9b0       ??0length_error@std@@QEAA@AEBV01@@Z 000000018000c9b0 f i libcpmt:xthrow.obj
 0001:0000b9f0       ??0length_error@std@@QEAA@PEBD@Z 000000018000c9f0 f i libcpmt:xthrow.obj
 0001:0000ba3c       ??0logic_error@std@@QEAA@AEBV01@@Z 000000018000ca3c f i libcpmt:xthrow.obj
 0001:0000ba7c       ??0out_of_range@std@@QEAA@AEBV01@@Z 000000018000ca7c f i libcpmt:xthrow.obj
 0001:0000babc       ??0out_of_range@std@@QEAA@PEBD@Z 000000018000cabc f i libcpmt:xthrow.obj
 0001:0000bb08       ??1bad_alloc@std@@UEAA@XZ  000000018000cb08 f i libcpmt:xthrow.obj
 0001:0000bb08       ??1out_of_range@std@@UEAA@XZ 000000018000cb08 f i libcpmt:xthrow.obj
 0001:0000bb08       ??1bad_exception@std@@UEAA@XZ 000000018000cb08 f i libvcruntime:frame.obj
 0001:0000bb08       ??1length_error@std@@UEAA@XZ 000000018000cb08 f i libcpmt:xthrow.obj
 0001:0000bb08       ??1bad_array_new_length@std@@UEAA@XZ 000000018000cb08 f i LIBCMT:throw_bad_alloc.obj
 0001:0000bb1c       ??_Eexception@std@@UEAAPEAXI@Z 000000018000cb1c f i libcpmt:xthrow.obj
 0001:0000bb1c       ??_Ebad_array_new_length@std@@UEAAPEAXI@Z 000000018000cb1c f i LIBCMT:throw_bad_alloc.obj
 0001:0000bb1c       ??_Glength_error@std@@UEAAPEAXI@Z 000000018000cb1c f i libcpmt:xthrow.obj
 0001:0000bb1c       ??_Gbad_array_new_length@std@@UEAAPEAXI@Z 000000018000cb1c f i LIBCMT:throw_bad_alloc.obj
 0001:0000bb1c       ??_Gout_of_range@std@@UEAAPEAXI@Z 000000018000cb1c f i libcpmt:xthrow.obj
 0001:0000bb1c       ??_Elogic_error@std@@UEAAPEAXI@Z 000000018000cb1c f i libcpmt:xthrow.obj
 0001:0000bb1c       ??_Eout_of_range@std@@UEAAPEAXI@Z 000000018000cb1c f i libcpmt:xthrow.obj
 0001:0000bb1c       ??_Ebad_exception@std@@UEAAPEAXI@Z 000000018000cb1c f i libvcruntime:frame.obj
 0001:0000bb1c       ??_Glogic_error@std@@UEAAPEAXI@Z 000000018000cb1c f i libcpmt:xthrow.obj
 0001:0000bb1c       ??_Gexception@std@@UEAAPEAXI@Z 000000018000cb1c f i libcpmt:xthrow.obj
 0001:0000bb1c       ??_Gbad_exception@std@@UEAAPEAXI@Z 000000018000cb1c f i libvcruntime:frame.obj
 0001:0000bb1c       ??_Ebad_alloc@std@@UEAAPEAXI@Z 000000018000cb1c f i libcpmt:xthrow.obj
 0001:0000bb1c       ??_Elength_error@std@@UEAAPEAXI@Z 000000018000cb1c f i libcpmt:xthrow.obj
 0001:0000bb1c       ??_Gbad_alloc@std@@UEAAPEAXI@Z 000000018000cb1c f i libcpmt:xthrow.obj
 0001:0000bb60       ?__scrt_throw_std_bad_alloc@@YAXXZ 000000018000cb60 f   LIBCMT:throw_bad_alloc.obj
 0001:0000bb60       ?_Xbad_alloc@std@@YAXXZ    000000018000cb60 f   libcpmt:xthrow.obj
 0001:0000bb80       ?_Xlength_error@std@@YAXPEBD@Z 000000018000cb80 f   libcpmt:xthrow.obj
 0001:0000bba4       ?_Xout_of_range@std@@YAXPEBD@Z 000000018000cba4 f   libcpmt:xthrow.obj
 0001:0000bbc8       ?what@exception@std@@UEBAPEBDXZ 000000018000cbc8 f i libcpmt:xthrow.obj
 0001:0000bbdc       ??0_Init_locks@std@@QEAA@XZ 000000018000cbdc f   libcpmt:xlock.obj
 0001:0000bc28       ??0_Lockit@std@@QEAA@H@Z   000000018000cc28 f   libcpmt:xlock.obj
 0001:0000bc64       ??1_Init_locks@std@@QEAA@XZ 000000018000cc64 f   libcpmt:xlock.obj
 0001:0000bca8       ??1_Lockit@std@@QEAA@XZ    000000018000cca8 f   libcpmt:xlock.obj
 0001:0000bcdc       ?_Execute_once@std@@YAHAEAUonce_flag@1@P6AHPEAX1PEAPEAX@Z1@Z 000000018000ccdc f   libcpmt:xonce.obj
 0001:0000bce4       ??1_Fac_tidy_reg_t@std@@QEAA@XZ 000000018000cce4 f i libcpmt:locale0.obj
 0001:0000bd4c       ??4?$_Yarn@D@std@@QEAAAEAV01@PEBD@Z 000000018000cd4c f i libcpmt:locale0.obj
 0001:0000bdc4       ??_G_Locimp@locale@std@@MEAAPEAXI@Z 000000018000cdc4 f i libcpmt:locale0.obj
 0001:0000bdc4       ??_E_Locimp@locale@std@@MEAAPEAXI@Z 000000018000cdc4 f i libcpmt:locale0.obj
 0001:0000be30       ?_Facet_Register@std@@YAXPEAV_Facet_base@1@@Z 000000018000ce30 f   libcpmt:locale0.obj
 0001:0000be68       ?_Getgloballocale@locale@std@@CAPEAV_Locimp@12@XZ 000000018000ce68 f   libcpmt:locale0.obj
 0001:0000be70       ?_Init@locale@std@@CAPEAV_Locimp@12@_N@Z 000000018000ce70 f   libcpmt:locale0.obj
 0001:0000bf1c       ?_Locimp_dtor@_Locimp@locale@std@@CAXPEAV123@@Z 000000018000cf1c f   libcpmt:locale0.obj
 0001:0000bfa4       ?_Locinfo_ctor@_Locinfo@std@@SAXPEAV12@PEBD@Z 000000018000cfa4 f   libcpmt:locale0.obj
 0001:0000c010       ?_Locinfo_dtor@_Locinfo@std@@SAXPEAV12@@Z 000000018000d010 f   libcpmt:locale0.obj
 0001:0000c02c       ?_New_Locimp@_Locimp@locale@std@@CAPEAV123@_N@Z 000000018000d02c f   libcpmt:locale0.obj
 0001:0000c09c       ?_Setgloballocale@locale@std@@CAXPEAX@Z 000000018000d09c f   libcpmt:locale0.obj
 0001:0000c0d0       _Deletegloballocale        000000018000d0d0 f   libcpmt:locale0.obj
 0001:0000c140       ?_Ios_base_dtor@ios_base@std@@CAXPEAV12@@Z 000000018000d140 f   libcpmt:ios.obj
 0001:0000c1c0       ?_Tidy@ios_base@std@@AEAAXXZ 000000018000d1c0 f i libcpmt:ios.obj
 0001:0000c240       ?_Syserror_map@std@@YAPEBDH@Z 000000018000d240 f   libcpmt:syserror.obj
 0001:0000c268       _Getctype                  000000018000d268 f   libcpmt:_tolower.obj
 0001:0000c330       _Tolower                   000000018000d330 f   libcpmt:_tolower.obj
 0001:0000c460       _Getcvt                    000000018000d460 f   libcpmt:xwctomb.obj
 0001:0000c4f0       _Toupper                   000000018000d4f0 f   libcpmt:_toupper.obj
 0001:0000c630       _Mtxdst                    000000018000d630 f   libcpmt:xmtx.obj
 0001:0000c638       _Mtxinit                   000000018000d638 f   libcpmt:xmtx.obj
 0001:0000c648       _Mtxlock                   000000018000d648 f   libcpmt:xmtx.obj
 0001:0000c650       _Mtxunlock                 000000018000d650 f   libcpmt:xmtx.obj
 0001:0000cb28       __crtInitOnceExecuteOnce   000000018000db28 f   libcpmt:winapisupp.obj
 0001:0000cbf4       __crtInitializeCriticalSectionEx 000000018000dbf4 f   libcpmt:winapisupp.obj
 0001:0000cc24       ?_Atexit@@YAXP6AXXZ@Z      000000018000dc24 f   libcpmt:iosptrs.obj
 0001:0000cc64       __crtLCMapStringA          000000018000dc64 f   libcpmt:StlLCMapStringA.obj
 0001:0000cf18       GetTableIndexFromLocaleName 000000018000df18 f   libcpmt:winapinls.obj
 0001:0000cfa8       __crtDownlevelLocaleNameToLCID 000000018000dfa8 f   libcpmt:winapinls.obj
 0001:0000cfdc       __crtLCMapStringEx         000000018000dfdc f   libcpmt:winapinls.obj
 0001:0000d078       __wcsnicmp_ascii           000000018000e078 f   libcpmt:winapinls.obj
 0001:0000d0f0       __security_check_cookie    000000018000e0f0 f   LIBCMT:amdsecgs.obj
 0001:0000d114       ??2@YAPEAX_K@Z             000000018000e114 f   LIBCMT:new_scalar.obj
 0001:0000d150       ??_V@YAXPEAX@Z             000000018000e150 f   LIBCMT:delete_array.obj
 0001:0000d150       ??3@YAXPEAX_K@Z            000000018000e150 f   LIBCMT:delete_scalar_size.obj
 0001:0000d2e0       _Init_thread_footer        000000018000e2e0 f   LIBCMT:thread_safe_statics.obj
 0001:0000d340       _Init_thread_header        000000018000e340 f   LIBCMT:thread_safe_statics.obj
 0001:0000d3a8       _Init_thread_notify        000000018000e3a8 f   LIBCMT:thread_safe_statics.obj
 0001:0000d3f8       _Init_thread_wait          000000018000e3f8 f   LIBCMT:thread_safe_statics.obj
 0001:0000d470       __scrt_acquire_startup_lock 000000018000e470 f   LIBCMT:utility.obj
 0001:0000d4ac       __scrt_dllmain_after_initialize_c 000000018000e4ac f   LIBCMT:utility.obj
 0001:0000d4e0       __scrt_dllmain_before_initialize_c 000000018000e4e0 f   LIBCMT:utility.obj
 0001:0000d4f8       __scrt_dllmain_crt_thread_attach 000000018000e4f8 f   LIBCMT:utility.obj
 0001:0000d520       __scrt_dllmain_crt_thread_detach 000000018000e520 f   LIBCMT:utility.obj
 0001:0000d538       __scrt_dllmain_exception_filter 000000018000e538 f   LIBCMT:utility.obj
 0001:0000d598       __scrt_dllmain_uninitialize_c 000000018000e598 f   LIBCMT:utility.obj
 0001:0000d5c8       __scrt_dllmain_uninitialize_critical 000000018000e5c8 f   LIBCMT:utility.obj
 0001:0000d5dc       __scrt_initialize_crt      000000018000e5dc f   LIBCMT:utility.obj
 0001:0000d628       __scrt_initialize_onexit_tables 000000018000e628 f   LIBCMT:utility.obj
 0001:0000d700       __scrt_is_nonwritable_in_current_image 000000018000e700 f   LIBCMT:utility.obj
 0001:0000d79c       __scrt_release_startup_lock 000000018000e79c f   LIBCMT:utility.obj
 0001:0000d7c0       __scrt_uninitialize_crt    000000018000e7c0 f   LIBCMT:utility.obj
 0001:0000d7ec       _onexit                    000000018000e7ec f   LIBCMT:utility.obj
 0001:0000d83c       atexit                     000000018000e83c f   LIBCMT:utility.obj
 0001:0000db84       _DllMainCRTStartup         000000018000eb84 f   LIBCMT:dll_dllmain.obj
 0001:0000dbc4       ??_Etype_info@@UEAAPEAXI@Z 000000018000ebc4 f i LIBCMT:std_type_info_static.obj
 0001:0000dbc4       ??_Gtype_info@@UEAAPEAXI@Z 000000018000ebc4 f i LIBCMT:std_type_info_static.obj
 0001:0000dbf0       __GSHandlerCheck           000000018000ebf0 f   LIBCMT:gshandler.obj
 0001:0000dc10       __GSHandlerCheckCommon     000000018000ec10 f   LIBCMT:gshandler.obj
 0001:0000dc6c       __GSHandlerCheck_EH        000000018000ec6c f   LIBCMT:gshandlereh.obj
 0001:0000dd00       _alloca_probe              000000018000ed00 f   LIBCMT:chkstk.obj
 0001:0000dd00       __chkstk                   000000018000ed00 f   LIBCMT:chkstk.obj
 0001:0000dd54       __raise_securityfailure    000000018000ed54 f   LIBCMT:gs_report.obj
 0001:0000dd88       __report_gsfailure         000000018000ed88 f   LIBCMT:gs_report.obj
 0001:0000de5c       __report_rangecheckfailure 000000018000ee5c f   LIBCMT:gs_report.obj
 0001:0000de70       __report_securityfailure   000000018000ee70 f   LIBCMT:gs_report.obj
 0001:0000dff0       ??0bad_array_new_length@std@@QEAA@AEBV01@@Z 000000018000eff0 f i LIBCMT:throw_bad_alloc.obj
 0001:0000e030       ??0bad_array_new_length@std@@QEAA@XZ 000000018000f030 f i LIBCMT:throw_bad_alloc.obj
 0001:0000e050       ?__scrt_throw_std_bad_array_new_length@@YAXXZ 000000018000f050 f   LIBCMT:throw_bad_alloc.obj
 0001:0000e070       ??3@YAXPEAX@Z              000000018000f070 f   LIBCMT:delete_scalar.obj
 0001:0000e078       __crt_debugger_hook        000000018000f078 f   LIBCMT:utility_desktop.obj
 0001:0000e080       __scrt_fastfail            000000018000f080 f   LIBCMT:utility_desktop.obj
 0001:0000e1cc       __isa_available_init       000000018000f1cc f   LIBCMT:cpu_disp.obj
 0001:0000e348       DllMain                    000000018000f348 f   LIBCMT:dll_dllmain_stub.obj
 0001:0000e348       _get_startup_argv_mode     000000018000f348 f   LIBCMT:argv_mode.obj
 0001:0000e350       __scrt_is_ucrt_dll_in_use  000000018000f350 f   LIBCMT:ucrt_detection.obj
 0001:0000e35c       __security_init_cookie     000000018000f35c f   LIBCMT:gs_support.obj
 0001:0000e408       ?__scrt_initialize_type_info@@YAXXZ 000000018000f408 f   LIBCMT:tncleanup.obj
 0001:0000e418       ?__scrt_uninitialize_type_info@@YAXXZ 000000018000f418 f   LIBCMT:tncleanup.obj
 0001:0000e424       __local_stdio_scanf_options 000000018000f424 f i LIBCMT:default_local_stdio_options.obj
 0001:0000e42c       __scrt_initialize_default_local_stdio_options 000000018000f42c f   LIBCMT:default_local_stdio_options.obj
 0001:0000e448       __scrt_get_dyn_tls_init_callback 000000018000f448 f   LIBCMT:dyn_tls_init.obj
 0001:0000e450       _RTC_Initialize            000000018000f450 f   LIBCMT:initsect.obj
 0001:0000e48c       _RTC_Terminate             000000018000f48c f   LIBCMT:initsect.obj
 0001:0000e4d0       _purecall                  000000018000f4d0 f   libvcruntime:purevirt.obj
 0001:0000e500       __std_exception_copy       000000018000f500 f   libvcruntime:std_exception.obj
 0001:0000e590       __std_exception_destroy    000000018000f590 f   libvcruntime:std_exception.obj
 0001:0000e5b8       _CxxThrowException         000000018000f5b8 f   libvcruntime:throw.obj
 0001:0000e678       ??$_CallSETranslator@V__FrameHandler3@@@@YAHPEAUEHExceptionRecord@@PEA_KPEAU_CONTEXT@@PEAU_xDISPATCHER_CONTEXT@@PEBU_s_FuncInfo@@K1@Z 000000018000f678 f i libvcruntime:risctrnsctrl.obj
 0001:0000e6cc       ?CatchTryBlock@__FrameHandler3@@SAPEBU_s_TryBlockMapEntry@@PEBU_s_FuncInfo@@H@Z 000000018000f6cc f   libvcruntime:risctrnsctrl.obj
 0001:0000e724       ?ExecutionInCatch@__FrameHandler3@@SA_NPEAU_xDISPATCHER_CONTEXT@@PEBU_s_FuncInfo@@@Z 000000018000f724 f   libvcruntime:risctrnsctrl.obj
 0001:0000e750       ?FrameUnwindToEmptyState@__FrameHandler3@@SAXPEA_KPEAU_xDISPATCHER_CONTEXT@@PEBU_s_FuncInfo@@@Z 000000018000f750 f   libvcruntime:risctrnsctrl.obj
 0001:0000e7b4       ?GetEstablisherFrame@__FrameHandler3@@SAPEA_KPEA_KPEAU_xDISPATCHER_CONTEXT@@PEBU_s_FuncInfo@@0@Z 000000018000f7b4 f   libvcruntime:risctrnsctrl.obj
 0001:0000e880       ?GetRangeOfTrysToCheck@__FrameHandler3@@SA?AU?$pair@Viterator@TryBlockMap@__FrameHandler3@@V123@@std@@AEAVTryBlockMap@1@HH@Z 000000018000f880 f   libvcruntime:risctrnsctrl.obj
 0001:0000e9dc       ?UnwindNestedFrames@__FrameHandler3@@SAXPEA_KPEAUEHExceptionRecord@@PEAU_CONTEXT@@0PEAXPEBU_s_FuncInfo@@HHPEBU_s_HandlerType@@PEAU_xDISPATCHER_CONTEXT@@E@Z 000000018000f9dc f   libvcruntime:risctrnsctrl.obj
 0001:0000eb00       _CreateFrameInfo           000000018000fb00 f   libvcruntime:risctrnsctrl.obj
 0001:0000eb3c       _FindAndUnlinkFrame        000000018000fb3c f   libvcruntime:risctrnsctrl.obj
 0001:0000eb90       _GetImageBase              000000018000fb90 f   libvcruntime:risctrnsctrl.obj
 0001:0000eba4       _GetThrowImageBase         000000018000fba4 f   libvcruntime:risctrnsctrl.obj
 0001:0000ebb8       _SetImageBase              000000018000fbb8 f   libvcruntime:risctrnsctrl.obj
 0001:0000ebd0       _SetThrowImageBase         000000018000fbd0 f   libvcruntime:risctrnsctrl.obj
 0001:0000ebe8       __CxxFrameHandler3         000000018000fbe8 f   libvcruntime:risctrnsctrl.obj
 0001:0000ec80       memcpy_repmovs             000000018000fc80 f   libvcruntime:memcpy.obj
 0001:0000eca0       memmove                    000000018000fca0 f   libvcruntime:memcpy.obj
 0001:0000eca0       memcpy                     000000018000fca0 f   libvcruntime:memcpy.obj
 0001:0000f0e0       memset_repmovs             00000001800100e0 f   libvcruntime:memset.obj
 0001:0000f100       memset                     0000000180010100 f   libvcruntime:memset.obj
 0001:0000f290       __DestructExceptionObject  0000000180010290 f   libvcruntime:ehhelpers.obj
 0001:0000f304       ?_CallMemberFunction0@@YAXQEAX0@Z 0000000180010304 f i libvcruntime:ehhelpers.obj
 0001:0000f308       _IsExceptionObjectToBeDestroyed 0000000180010308 f   libvcruntime:ehhelpers.obj
 0001:0000f338       __AdjustPointer            0000000180010338 f   libvcruntime:ehhelpers.obj
 0001:0000f35c       __FrameUnwindFilter        000000018001035c f   libvcruntime:ehhelpers.obj
 0001:0000f3a8       __std_terminate            00000001800103a8 f   libvcruntime:ehhelpers.obj
 0001:0000f3d0       memchr                     00000001800103d0 f   libvcruntime:memchr.obj
 0001:0000f450       memcmp                     0000000180010450 f   libvcruntime:memcmp.obj
 0001:0000f518       __vcrt_initialize          0000000180010518 f   libvcruntime:initialization.obj
 0001:0000f54c       __vcrt_thread_attach       000000018001054c f   libvcruntime:initialization.obj
 0001:0000f560       __vcrt_thread_detach       0000000180010560 f   libvcruntime:initialization.obj
 0001:0000f574       __vcrt_uninitialize        0000000180010574 f   libvcruntime:initialization.obj
 0001:0000f594       __vcrt_uninitialize_critical 0000000180010594 f   libvcruntime:initialization.obj
 0001:0000f5a4       __C_specific_handler       00000001800105a4 f   libvcruntime:riscchandler.obj
 0001:0000f7b0       __std_type_info_compare    00000001800107b0 f   libvcruntime:std_type_info.obj
 0001:0000f7d8       __std_type_info_destroy_list 00000001800107d8 f   libvcruntime:std_type_info.obj
 0001:0000f804       __vcrt_initialize_pure_virtual_call_handler 0000000180010804 f   libvcruntime:purevirt_data.obj
 0001:0000f814       __vcrt_freefls             0000000180010814 f   libvcruntime:per_thread_data.obj
 0001:0000f834       __vcrt_freeptd             0000000180010834 f   libvcruntime:per_thread_data.obj
 0001:0000f884       __vcrt_getptd              0000000180010884 f   libvcruntime:per_thread_data.obj
 0001:0000f8a0       __vcrt_getptd_noexit       00000001800108a0 f   libvcruntime:per_thread_data.obj
 0001:0000f96c       __vcrt_initialize_ptd      000000018001096c f   libvcruntime:per_thread_data.obj
 0001:0000f9c0       __vcrt_uninitialize_ptd    00000001800109c0 f   libvcruntime:per_thread_data.obj
 0001:0000f9e4       ?GetCurrentState@__FrameHandler3@@SAHPEA_KPEAU_xDISPATCHER_CONTEXT@@PEBU_s_FuncInfo@@@Z 00000001800109e4 f   libvcruntime:ehstate.obj
 0001:0000fa0c       ?GetUnwindTryBlock@__FrameHandler3@@SAHPEA_KPEAU_xDISPATCHER_CONTEXT@@PEBU_s_FuncInfo@@@Z 0000000180010a0c f   libvcruntime:ehstate.obj
 0001:0000fa38       ?SetState@__FrameHandler3@@SAXPEA_KPEBU_s_FuncInfo@@H@Z 0000000180010a38 f   libvcruntime:ehstate.obj
 0001:0000fa44       ?SetUnwindTryBlock@__FrameHandler3@@SAXPEA_KPEAU_xDISPATCHER_CONTEXT@@PEBU_s_FuncInfo@@H@Z 0000000180010a44 f   libvcruntime:ehstate.obj
 0001:0000fa80       ?StateFromControlPc@__FrameHandler3@@SAHPEBU_s_FuncInfo@@PEAU_xDISPATCHER_CONTEXT@@@Z 0000000180010a80 f   libvcruntime:ehstate.obj
 0001:0000fa88       ?StateFromIp@__FrameHandler3@@SAHPEBU_s_FuncInfo@@PEAU_xDISPATCHER_CONTEXT@@_K@Z 0000000180010a88 f   libvcruntime:ehstate.obj
 0001:00010514       ??$TypeMatchHelper@V__FrameHandler3@@@@YAHPEBU_s_HandlerType@@PEBU_s_CatchableType@@PEBU_s_ThrowInfo@@@Z 0000000180011514 f i libvcruntime:frame.obj
 0001:00010658       ??$__InternalCxxFrameHandler@V__FrameHandler3@@@@YA?AW4_EXCEPTION_DISPOSITION@@PEAUEHExceptionRecord@@PEA_KPEAU_CONTEXT@@PEAU_xDISPATCHER_CONTEXT@@PEBU_s_FuncInfo@@H1E@Z 0000000180011658 f i libvcruntime:frame.obj
 0001:000108a0       ??0bad_exception@std@@QEAA@AEBV01@@Z 00000001800118a0 f i libvcruntime:frame.obj
 0001:000108e0       ??0bad_exception@std@@QEAA@XZ 00000001800118e0 f i libvcruntime:frame.obj
 0001:00010900       ?CxxCallCatchBlock@__FrameHandler3@@SAPEAXPEAU_EXCEPTION_RECORD@@@Z 0000000180011900 f   libvcruntime:frame.obj
 0001:00010b74       ?FrameUnwindToState@__FrameHandler3@@SAXPEA_KPEAU_xDISPATCHER_CONTEXT@@PEBU_s_FuncInfo@@H@Z 0000000180011b74 f   libvcruntime:frame.obj
 0001:00010d08       ?GetHandlerSearchState@__FrameHandler3@@SAHPEA_KPEAU_xDISPATCHER_CONTEXT@@PEBU_s_FuncInfo@@@Z 0000000180011d08 f i libvcruntime:frame.obj
 0001:00010f0c       ?_CallMemberFunction1@@YAXQEAX00@Z 0000000180011f0c f i libvcruntime:frame.obj
 0001:00010f18       ?_CallMemberFunction2@@YAXQEAX00H@Z 0000000180011f18 f i libvcruntime:frame.obj
 0001:00010f28       __vcrt_initialize_locks    0000000180011f28 f   libvcruntime:locks.obj
 0001:00010f70       __vcrt_uninitialize_locks  0000000180011f70 f   libvcruntime:locks.obj
 0001:00011180       __vcrt_FlsAlloc            0000000180012180 f   libvcruntime:winapi_downlevel.obj
 0001:000111c8       __vcrt_FlsFree             00000001800121c8 f   libvcruntime:winapi_downlevel.obj
 0001:00011210       __vcrt_FlsGetValue         0000000180012210 f   libvcruntime:winapi_downlevel.obj
 0001:00011258       __vcrt_FlsSetValue         0000000180012258 f   libvcruntime:winapi_downlevel.obj
 0001:000112ac       __vcrt_InitializeCriticalSectionEx 00000001800122ac f   libvcruntime:winapi_downlevel.obj
 0001:00011310       __vcrt_initialize_winapi_thunks 0000000180012310 f   libvcruntime:winapi_downlevel.obj
 0001:00011340       __vcrt_uninitialize_winapi_thunks 0000000180012340 f   libvcruntime:winapi_downlevel.obj
 0001:00011390       _NLG_Notify                0000000180012390 f   libvcruntime:notify.obj
 0001:000113b0       __NLG_Dispatch2            00000001800123b0 f   libvcruntime:notify.obj
 0001:000113c0       __NLG_Return2              00000001800123c0 f   libvcruntime:notify.obj
 0001:000113c4       __except_validate_context_record 00000001800123c4 f   libvcruntime:jbcxrval.obj
 0001:00011410       _CallSettingFrame          0000000180012410 f   libvcruntime:handlers.obj
 0001:00011460       _CallSettingFrameEncoded   0000000180012460 f   libvcruntime:handlers.obj
 0001:000114a8       __acrt_call_reportfault    00000001800124a8 f   libucrt:invalid_parameter.obj
 0001:00011604       __acrt_initialize_invalid_parameter_handler 0000000180012604 f   libucrt:invalid_parameter.obj
 0001:0001160c       _invalid_parameter         000000018001260c f   libucrt:invalid_parameter.obj
 0001:000116bc       _invalid_parameter_noinfo  00000001800126bc f   libucrt:invalid_parameter.obj
 0001:000116dc       _invalid_parameter_noinfo_noreturn 00000001800126dc f   libucrt:invalid_parameter.obj
 0001:0001170c       _invoke_watson             000000018001270c f   libucrt:invalid_parameter.obj
 0001:00011754       abort                      0000000180012754 f   libucrt:abort.obj
 0001:000117ac       calloc                     00000001800127ac f   libucrt:calloc.obj
 0001:00011860       strcspn                    0000000180012860 f   libucrt:strcspn.obj
 0001:00011df0       ??$ensure_buffer_is_big_enough@D@formatting_buffer@__crt_stdio_output@@QEAA_N_K@Z 0000000180012df0 f i libucrt:output.obj
 0001:00011e98       ??$type_case_integer_parse_into_buffer@I@?$output_processor@DV?$string_output_adapter@D@__crt_stdio_output@@V?$format_validation_base@DV?$string_output_adapter@D@__crt_stdio_output@@@2@@__crt_stdio_output@@AEAAXII_N@Z 0000000180012e98 f i libucrt:output.obj
 0001:00011f28       ??$type_case_integer_parse_into_buffer@_K@?$output_processor@DV?$string_output_adapter@D@__crt_stdio_output@@V?$format_validation_base@DV?$string_output_adapter@D@__crt_stdio_output@@@2@@__crt_stdio_output@@AEAAX_KI_N@Z 0000000180012f28 f i libucrt:output.obj
 0001:00011fbc       ??$write_multiple_characters@V?$string_output_adapter@D@__crt_stdio_output@@D@__crt_stdio_output@@YAXAEBV?$string_output_adapter@D@0@DHQEAH@Z 0000000180012fbc f i libucrt:output.obj
 0001:00012034       ??0_LocaleUpdate@@QEAA@QEAU__crt_locale_pointers@@@Z 0000000180013034 f i libucrt:output.obj
 0001:000120d0       ??1_LocaleUpdate@@QEAA@XZ  00000001800130d0 f i libucrt:output.obj
 0001:000120e4       ?crop_zeroes@__crt_stdio_output@@YAXPEADQEAU__crt_locale_pointers@@@Z 00000001800130e4 f i libucrt:output.obj
 0001:00012150       ?force_decimal_point@__crt_stdio_output@@YAXPEADQEAU__crt_locale_pointers@@@Z 0000000180013150 f i libucrt:output.obj
 0001:000121c0       ?parse_int_from_format_string@?$output_processor@DV?$string_output_adapter@D@__crt_stdio_output@@V?$format_validation_base@DV?$string_output_adapter@D@__crt_stdio_output@@@2@@__crt_stdio_output@@AEAA_NQEAH@Z 00000001800131c0 f i libucrt:output.obj
 0001:00012264       ?process@?$output_processor@DV?$string_output_adapter@D@__crt_stdio_output@@V?$format_validation_base@DV?$string_output_adapter@D@__crt_stdio_output@@@2@@__crt_stdio_output@@QEAAHXZ 0000000180013264 f i libucrt:output.obj
 0001:0001247c       ?state_case_normal@?$output_processor@DV?$string_output_adapter@D@__crt_stdio_output@@V?$format_validation_base@DV?$string_output_adapter@D@__crt_stdio_output@@@2@@__crt_stdio_output@@AEAA_NXZ 000000018001347c f i libucrt:output.obj
 0001:000124f0       ?state_case_normal_tchar@?$output_processor@DV?$string_output_adapter@D@__crt_stdio_output@@V?$format_validation_base@DV?$string_output_adapter@D@__crt_stdio_output@@@2@@__crt_stdio_output@@AEAA_ND@Z 00000001800134f0 f i libucrt:output.obj
 0001:00012598       ?state_case_size@?$output_processor@DV?$string_output_adapter@D@__crt_stdio_output@@V?$format_validation_base@DV?$string_output_adapter@D@__crt_stdio_output@@@2@@__crt_stdio_output@@AEAA_NXZ 0000000180013598 f i libucrt:output.obj
 0001:0001270c       ?state_case_type@?$output_processor@DV?$string_output_adapter@D@__crt_stdio_output@@V?$format_validation_base@DV?$string_output_adapter@D@__crt_stdio_output@@@2@@__crt_stdio_output@@AEAA_NXZ 000000018001370c f i libucrt:output.obj
 0001:00012974       ?type_case_Z@?$output_processor@DV?$string_output_adapter@D@__crt_stdio_output@@V?$format_validation_base@DV?$string_output_adapter@D@__crt_stdio_output@@@2@@__crt_stdio_output@@AEAA_NXZ 0000000180013974 f i libucrt:output.obj
 0001:000129ec       ?type_case_a@?$output_processor@DV?$string_output_adapter@D@__crt_stdio_output@@V?$format_validation_base@DV?$string_output_adapter@D@__crt_stdio_output@@@2@@__crt_stdio_output@@AEAA_NXZ 00000001800139ec f i libucrt:output.obj
 0001:00012ba8       ?type_case_c_tchar@?$output_processor@DV?$string_output_adapter@D@__crt_stdio_output@@V?$format_validation_base@DV?$string_output_adapter@D@__crt_stdio_output@@@2@@__crt_stdio_output@@AEAA_ND@Z 0000000180013ba8 f i libucrt:output.obj
 0001:00012c64       ?type_case_integer@?$output_processor@DV?$string_output_adapter@D@__crt_stdio_output@@V?$format_validation_base@DV?$string_output_adapter@D@__crt_stdio_output@@@2@@__crt_stdio_output@@AEAA_NI_N@Z 0000000180013c64 f i libucrt:output.obj
 0001:00012e2c       ?type_case_n@?$output_processor@DV?$string_output_adapter@D@__crt_stdio_output@@V?$format_validation_base@DV?$string_output_adapter@D@__crt_stdio_output@@@2@@__crt_stdio_output@@AEAA_NXZ 0000000180013e2c f i libucrt:output.obj
 0001:00012f08       ?type_case_s@?$output_processor@DV?$string_output_adapter@D@__crt_stdio_output@@V?$format_validation_base@DV?$string_output_adapter@D@__crt_stdio_output@@@2@@__crt_stdio_output@@AEAA_NXZ 0000000180013f08 f i libucrt:output.obj
 0001:00012fa0       ?write_stored_string_tchar@?$output_processor@DV?$string_output_adapter@D@__crt_stdio_output@@V?$format_validation_base@DV?$string_output_adapter@D@__crt_stdio_output@@@2@@__crt_stdio_output@@AEAA_ND@Z 0000000180013fa0 f i libucrt:output.obj
 0001:00013078       ?write_string@?$string_output_adapter@D@__crt_stdio_output@@QEBAXQEBDHQEAHAEAV__crt_deferred_errno_cache@@@Z 0000000180014078 f i libucrt:output.obj
 0001:0001311c       __stdio_common_vsprintf_s  000000018001411c f   libucrt:output.obj
 0001:00013180       localeconv                 0000000180014180 f   libucrt:localeconv.obj
 0001:000131b4       free                       00000001800141b4 f   libucrt:free.obj
 0001:000131c8       frexp                      00000001800141c8 f   libucrt:frexp.obj
 0001:000132c0       malloc                     00000001800142c0 f   libucrt:malloc.obj
 0001:000132c8       __ascii_stricmp            00000001800142c8 f   libucrt:stricmp.obj
 0001:00013308       _stricmp                   0000000180014308 f   libucrt:stricmp.obj
 0001:00013350       _stricmp_l                 0000000180014350 f   libucrt:stricmp.obj
 0001:00013404       __acrt_initialize_locks    0000000180014404 f   libucrt:locks.obj
 0001:0001344c       __acrt_lock                000000018001444c f   libucrt:locks.obj
 0001:00013468       __acrt_uninitialize_locks  0000000180014468 f   libucrt:locks.obj
 0001:000134a0       __acrt_unlock              00000001800144a0 f   libucrt:locks.obj
 0001:000134bc       _lock_locales              00000001800144bc f   libucrt:locks.obj
 0001:000134d8       _unlock_locales            00000001800144d8 f   libucrt:locks.obj
 0001:000134e8       terminate                  00000001800144e8 f   libucrt:terminate.obj
 0001:000137e8       setlocale                  00000001800147e8 f   libucrt:setlocale.obj
 0001:00013834       __pctype_func              0000000180014834 f   libucrt:ctype.obj
 0001:00013864       isdigit                    0000000180014864 f i libucrt:_ctype.obj
 0001:000138f8       islower                    00000001800148f8 f i libucrt:_ctype.obj
 0001:0001398c       isupper                    000000018001498c f i libucrt:_ctype.obj
 0001:00013a20       _wcsdup                    0000000180014a20 f   libucrt:wcsdup.obj
 0001:00013aa4       ___lc_codepage_func        0000000180014aa4 f   libucrt:initctype.obj
 0001:00013ad4       ___lc_locale_name_func     0000000180014ad4 f   libucrt:initctype.obj
 0001:00013b08       ___mb_cur_max_func         0000000180014b08 f   libucrt:initctype.obj
 0001:00013b38       __acrt_locale_initialize_ctype 0000000180014b38 f   libucrt:initctype.obj
 0001:00014188       __acrt_errno_from_os_error 0000000180015188 f   libucrt:errno.obj
 0001:000141d0       __acrt_errno_map_os_error  00000001800151d0 f   libucrt:errno.obj
 0001:00014220       __doserrno                 0000000180015220 f   libucrt:errno.obj
 0001:00014240       _errno                     0000000180015240 f   libucrt:errno.obj
 0001:00014260       ?divide@__crt_strtox@@YA_KAEAUbig_integer@1@AEBU21@@Z 0000000180015260 f i libucrt:strtod.obj
 0001:00014720       pow                        0000000180015720 f   libucrt:pow.obj
 0001:00015dc0       powf                       0000000180016dc0 f   libucrt:powf.obj
 0001:00016c88       __strncnt                  0000000180017c88 f   libucrt:strncnt.obj
 0001:00016ca0       ??$__acrt_mbs_to_wcs_cp@U__crt_win32_buffer_internal_dynamic_resizing@@@@YAHQEBDAEAV?$__crt_win32_buffer@_WU__crt_win32_buffer_internal_dynamic_resizing@@@@I@Z 0000000180017ca0 f i libucrt:strftime.obj
 0001:00016e18       ??$__acrt_wcs_to_mbs_cp@U__crt_win32_buffer_no_resizing@@@@YAHQEB_WAEAV?$__crt_win32_buffer@DU__crt_win32_buffer_no_resizing@@@@I@Z 0000000180017e18 f i libucrt:strftime.obj
 0001:00016f8c       _tolower_l                 0000000180017f8c f   libucrt:tolower_toupper.obj
 0001:000170cc       tolower                    00000001800180cc f   libucrt:tolower_toupper.obj
 0001:000170f8       wcscpy_s                   00000001800180f8 f   libucrt:wcscpy_s.obj
 0001:00017160       strnlen                    0000000180018160 f   libucrt:strnlen.obj
 0001:000172b0       wcsnlen                    00000001800182b0 f   libucrt:strnlen.obj
 0001:00017488       __acrt_initialize_new_handler 0000000180018488 f   libucrt:new_handler.obj
 0001:00017490       _callnewh                  0000000180018490 f   libucrt:new_handler.obj
 0001:000174c0       _query_new_handler         00000001800184c0 f   libucrt:new_handler.obj
 0001:000174f4       _seh_filter_dll            00000001800184f4 f   libucrt:exception_filter.obj
 0001:00017508       _seh_filter_exe            0000000180018508 f   libucrt:exception_filter.obj
 0001:000178f8       __acrt_initialize_thread_local_exit_callback 00000001800188f8 f   libucrt:exit.obj
 0001:00017900       _cexit                     0000000180018900 f   libucrt:exit.obj
 0001:00017910       _exit                      0000000180018910 f   libucrt:exit.obj
 0001:0001791c       _is_c_termination_complete 000000018001891c f   libucrt:exit.obj
 0001:00017ae8       __acrt_allocate_buffer_for_argv 0000000180018ae8 f   libucrt:argv_parsing.obj
 0001:00017b48       _configure_narrow_argv     0000000180018b48 f   libucrt:argv_parsing.obj
 0001:00017ec0       __dcrt_uninitialize_environments_nolock 0000000180018ec0 f   libucrt:environment_initialization.obj
 0001:00017ef8       _initialize_narrow_environment 0000000180018ef8 f   libucrt:environment_initialization.obj
 0001:00018240       _crt_atexit                0000000180019240 f   libucrt:onexit.obj
 0001:00018250       _execute_onexit_table      0000000180019250 f   libucrt:onexit.obj
 0001:0001828c       _initialize_onexit_table   000000018001928c f   libucrt:onexit.obj
 0001:000182b4       _register_onexit_function  00000001800192b4 f   libucrt:onexit.obj
 0001:00018334       __acrt_uninitialize_command_line 0000000180019334 f   libucrt:argv_data.obj
 0001:0001842c       __acrt_initialize          000000018001942c f   libucrt:initialization.obj
 0001:00018440       __acrt_thread_attach       0000000180019440 f   libucrt:initialization.obj
 0001:00018454       __acrt_thread_detach       0000000180019454 f   libucrt:initialization.obj
 0001:00018464       __acrt_uninitialize        0000000180019464 f   libucrt:initialization.obj
 0001:0001849c       __acrt_uninitialize_critical 000000018001949c f   libucrt:initialization.obj
 0001:000184ac       _initterm                  00000001800194ac f   libucrt:initterm.obj
 0001:00018510       _initterm_e                0000000180019510 f   libucrt:initterm.obj
 0001:00018550       strcpy_s                   0000000180019550 f   libucrt:strcpy_s.obj
 0001:000185b0       wcsncmp                    00000001800195b0 f   libucrt:wcsncmp.obj
 0001:000185dc       ??$parse_integer@KV?$c_string_character_source@D@__crt_strtox@@@__crt_strtox@@YAKQEAU__crt_locale_pointers@@V?$c_string_character_source@D@0@H_N@Z 00000001800195dc f i libucrt:atox.obj
 0001:00018918       ??$parse_integer@KV?$c_string_character_source@_W@__crt_strtox@@@__crt_strtox@@YAKQEAU__crt_locale_pointers@@V?$c_string_character_source@_W@0@H_N@Z 0000000180019918 f i libucrt:atox.obj
 0001:00018fcc       _wtol                      0000000180019fcc f   libucrt:atox.obj
 0001:00019010       strncmp                    000000018001a010 f   libucrt:strncmp.obj
 0001:00019408       __acrt_freeptd             000000018001a408 f   libucrt:per_thread_data.obj
 0001:0001944c       __acrt_getptd              000000018001a44c f   libucrt:per_thread_data.obj
 0001:00019520       __acrt_getptd_head         000000018001a520 f   libucrt:per_thread_data.obj
 0001:000195c8       __acrt_getptd_noexit       000000018001a5c8 f   libucrt:per_thread_data.obj
 0001:00019694       __acrt_initialize_ptd      000000018001a694 f   libucrt:per_thread_data.obj
 0001:000196d0       __acrt_uninitialize_ptd    000000018001a6d0 f   libucrt:per_thread_data.obj
 0001:0001973c       __acrt_get_sigabrt_handler 000000018001a73c f   libucrt:signal.obj
 0001:0001976c       __acrt_initialize_signal_handlers 000000018001a76c f   libucrt:signal.obj
 0001:0001978c       raise                      000000018001a78c f   libucrt:signal.obj
 0001:000199f8       _calloc_base               000000018001a9f8 f   libucrt:calloc_base.obj
 0001:00019a70       _free_base                 000000018001aa70 f   libucrt:free_base.obj
 0001:00019ab0       _malloc_base               000000018001aab0 f   libucrt:malloc_base.obj
 0001:00019b10       strtol                     000000018001ab10 f   libucrt:strtox.obj
 0001:00019b3c       _mbtowc_l                  000000018001ab3c f   libucrt:mbtowc.obj
 0001:00019cb8       mbtowc                     000000018001acb8 f   libucrt:mbtowc.obj
 0001:00019cc0       _wctomb_s_l                000000018001acc0 f   libucrt:wctomb.obj
 0001:00019e60       wctomb_s                   000000018001ae60 f   libucrt:wctomb.obj
 0001:00019e74       __acrt_update_locale_info  000000018001ae74 f   libucrt:locale_update.obj
 0001:00019ea8       __acrt_update_multibyte_info 000000018001aea8 f   libucrt:locale_update.obj
 0001:0001a8b0       __acrt_fp_format           000000018001b8b0 f   libucrt:cvt.obj
 0001:0001ab38       _fileno                    000000018001bb38 f   libucrt:fileno.obj
 0001:0001ab60       __acrt_initialize_stdio    000000018001bb60 f   libucrt:_file.obj
 0001:0001ac80       __acrt_uninitialize_stdio  000000018001bc80 f   libucrt:_file.obj
 0001:0001acdc       _lock_file                 000000018001bcdc f   libucrt:_file.obj
 0001:0001ace8       _unlock_file               000000018001bce8 f   libucrt:_file.obj
 0001:0001acf4       _get_printf_count_output   000000018001bcf4 f   libucrt:printf_count_output.obj
 0001:0001af74       __acrt_copy_locale_name    000000018001bf74 f   libucrt:wsetlocale.obj
 0001:0001aff8       __acrt_set_locale_changed  000000018001bff8 f   libucrt:wsetlocale.obj
 0001:0001b004       __acrt_uninitialize_locale 000000018001c004 f   libucrt:wsetlocale.obj
 0001:0001b034       __lc_lctowcs               000000018001c034 f   libucrt:wsetlocale.obj
 0001:0001b0d8       __lc_wcstolc               000000018001c0d8 f   libucrt:wsetlocale.obj
 0001:0001b314       _expandlocale              000000018001c314 f   libucrt:wsetlocale.obj
 0001:0001b6f8       _wcscats                   000000018001c6f8 f   libucrt:wsetlocale.obj
 0001:0001b760       _wsetlocale                000000018001c760 f   libucrt:wsetlocale.obj
 0001:0001c1d4       __acrt_initialize_lowio    000000018001d1d4 f   libucrt:ioinit.obj
 0001:0001c210       __acrt_uninitialize_lowio  000000018001d210 f   libucrt:ioinit.obj
 0001:0001c250       _dsign                     000000018001d250 f   libucrt:nan.obj
 0001:0001c268       _errcode                   000000018001d268 f   libucrt:fpexcept.obj
 0001:0001c2ac       _except1                   000000018001d2ac f   libucrt:fpexcept.obj
 0001:0001c3a0       _handle_exc                000000018001d3a0 f   libucrt:fpexcept.obj
 0001:0001c608       _raise_exc                 000000018001d608 f   libucrt:fpexcept.obj
 0001:0001c630       _raise_exc_ex              000000018001d630 f   libucrt:fpexcept.obj
 0001:0001c940       _raise_excf                000000018001d940 f   libucrt:fpexcept.obj
 0001:0001c96c       _set_errno_from_matherr    000000018001d96c f   libucrt:fpexcept.obj
 0001:0001c99c       _umatherr                  000000018001d99c f   libucrt:fpexcept.obj
 0001:0001ca70       _decomp                    000000018001da70 f   libucrt:util.obj
 0001:0001cba8       _sptype                    000000018001dba8 f   libucrt:util.obj
 0001:0001cc1c       _clrfp                     000000018001dc1c f   libucrt:fpctrl.obj
 0001:0001cc3c       _ctrlfp                    000000018001dc3c f   libucrt:fpctrl.obj
 0001:0001ccb8       _set_statfp                000000018001dcb8 f   libucrt:fpctrl.obj
 0001:0001ccd8       _statfp                    000000018001dcd8 f   libucrt:fpctrl.obj
 0001:0001cf68       __acrt_AppPolicyGetProcessTerminationMethodInternal 000000018001df68 f   libucrt:winapi_thunks.obj
 0001:0001cfb8       __acrt_AreFileApisANSI     000000018001dfb8 f   libucrt:winapi_thunks.obj
 0001:0001cff4       __acrt_EnumSystemLocalesEx 000000018001dff4 f   libucrt:winapi_thunks.obj
 0001:0001d08c       __acrt_FlsAlloc            000000018001e08c f   libucrt:winapi_thunks.obj
 0001:0001d0d4       __acrt_FlsFree             000000018001e0d4 f   libucrt:winapi_thunks.obj
 0001:0001d11c       __acrt_FlsGetValue         000000018001e11c f   libucrt:winapi_thunks.obj
 0001:0001d164       __acrt_FlsSetValue         000000018001e164 f   libucrt:winapi_thunks.obj
 0001:0001d1b8       __acrt_GetLocaleInfoEx     000000018001e1b8 f   libucrt:winapi_thunks.obj
 0001:0001d23c       __acrt_GetUserDefaultLocaleName 000000018001e23c f   libucrt:winapi_thunks.obj
 0001:0001d2a0       __acrt_InitializeCriticalSectionEx 000000018001e2a0 f   libucrt:winapi_thunks.obj
 0001:0001d304       __acrt_IsValidLocaleName   000000018001e304 f   libucrt:winapi_thunks.obj
 0001:0001d35c       __acrt_LCIDToLocaleName    000000018001e35c f   libucrt:winapi_thunks.obj
 0001:0001d3cc       __acrt_LCMapStringEx       000000018001e3cc f   libucrt:winapi_thunks.obj
 0001:0001d4a8       __acrt_LocaleNameToLCID    000000018001e4a8 f   libucrt:winapi_thunks.obj
 0001:0001d4f8       __acrt_can_use_vista_locale_apis 000000018001e4f8 f   libucrt:winapi_thunks.obj
 0001:0001d528       __acrt_eagerly_load_locale_apis 000000018001e528 f   libucrt:winapi_thunks.obj
 0001:0001d684       __acrt_initialize_winapi_thunks 000000018001e684 f   libucrt:winapi_thunks.obj
 0001:0001d6b8       __acrt_uninitialize_winapi_thunks 000000018001e6b8 f   libucrt:winapi_thunks.obj
 0001:0001d900       _mbstowcs_s_l              000000018001e900 f   libucrt:mbstowcs.obj
 0001:0001da34       mbstowcs_s                 000000018001ea34 f   libucrt:mbstowcs.obj
 0001:0001ddbc       _wcstombs_s_l              000000018001edbc f   libucrt:wcstombs.obj
 0001:0001dea8       _isctype_l                 000000018001eea8 f   libucrt:isctype.obj
 0001:0001e134       __acrt_GetLocaleInfoA      000000018001f134 f   libucrt:getlocaleinfoa.obj
 0001:0001e2fc       __acrt_GetStringTypeA      000000018001f2fc f   libucrt:getstringtypea.obj
 0001:0001e7a4       __acrt_LCMapStringA        000000018001f7a4 f   libucrt:lcmapstringa.obj
 0001:0001e83c       _realloc_base              000000018001f83c f   libucrt:realloc_base.obj
 0001:0001e8b8       iswctype                   000000018001f8b8 f   libucrt:iswctype.obj
 0001:0001e930       __acrt_initialize_fma3     000000018001f930 f   libucrt:fma3_available.obj
 0001:0001e9a0       _pow_special               000000018001f9a0 f   libucrt:pow_special.obj
 0001:0001eac4       _powf_special              000000018001fac4 f   libucrt:pow_special.obj
 0001:0001ec50       __acrt_MultiByteToWideChar 000000018001fc50 f   libucrt:multibytetowidechar.obj
 0001:0001ecac       __acrt_WideCharToMultiByte 000000018001fcac f   libucrt:widechartomultibyte.obj
 0001:0001ed44       _wcsicmp                   000000018001fd44 f   libucrt:wcsicmp.obj
 0001:0001eddc       _wcsicmp_l                 000000018001fddc f   libucrt:wcsicmp.obj
 0001:0001eedc       __acrt_initialize_timeset  000000018001fedc f   libucrt:timeset.obj
 0001:0001ef20       _isleadbyte_l              000000018001ff20 f i libucrt:_wctype.obj
 0001:0001ef6c       __acrt_get_process_end_policy 000000018001ff6c f   libucrt:win_policies.obj
 0001:0001efbc       ??$__acrt_wcs_to_mbs_cp@U__crt_win32_buffer_internal_dynamic_resizing@@@@YAHQEB_WAEAV?$__crt_win32_buffer@DU__crt_win32_buffer_internal_dynamic_resizing@@@@I@Z 000000018001ffbc f i libucrt:argv_wildcards.obj
 0001:0001f7ec       __acrt_expand_narrow_argv_wildcards 00000001800207ec f   libucrt:argv_wildcards.obj
 0001:0001f7f4       __acrt_GetModuleFileNameA  00000001800207f4 f   libucrt:getmodulefilenamea.obj
 0001:00020040       __acrt_initialize_multibyte 0000000180021040 f   libucrt:mbctype.obj
 0001:000200a0       __acrt_update_thread_multibyte_data 00000001800210a0 f   libucrt:mbctype.obj
 0001:000200bc       _setmbcp_nolock            00000001800210bc f   libucrt:mbctype.obj
 0001:000203f0       _ismbblead                 00000001800213f0 f   libucrt:ismbbyte.obj
 0001:00020404       __acrt_initialize_command_line 0000000180021404 f   libucrt:argv_data.obj
 0001:0002042c       __dcrt_get_narrow_environment_from_os 000000018002142c f   libucrt:get_environment_from_os.obj
 0001:00020530       _recalloc_base             0000000180021530 f   libucrt:recalloc.obj
 0001:000205c8       __acrt_initialize_heap     00000001800215c8 f   libucrt:heap_handle.obj
 0001:000205e4       __acrt_uninitialize_heap   00000001800215e4 f   libucrt:heap_handle.obj
 0001:000205f0       __acrt_execute_initializers 00000001800215f0 f   libucrt:shared_initialization.obj
 0001:00020670       __acrt_execute_uninitializers 0000000180021670 f   libucrt:shared_initialization.obj
 0001:000206ac       __acrt_has_user_matherr    00000001800216ac f   libucrt:matherr.obj
 0001:000206cc       __acrt_initialize_user_matherr 00000001800216cc f   libucrt:matherr.obj
 0001:000206d4       __acrt_invoke_user_matherr 00000001800216d4 f   libucrt:matherr.obj
 0001:000208e0       __acrt_stdio_flush_nolock  00000001800218e0 f   libucrt:fflush.obj
 0001:0002095c       _fflush_nolock             000000018002195c f   libucrt:fflush.obj
 0001:000209a8       _flushall                  00000001800219a8 f   libucrt:fflush.obj
 0001:000209b0       __acrt_add_locale_ref      00000001800219b0 f   libucrt:locale_refcounting.obj
 0001:00020a3c       __acrt_free_locale         0000000180021a3c f   libucrt:locale_refcounting.obj
 0001:00020bb4       __acrt_locale_add_lc_time_reference 0000000180021bb4 f   libucrt:locale_refcounting.obj
 0001:00020bdc       __acrt_locale_free_lc_time_if_unreferenced 0000000180021bdc f   libucrt:locale_refcounting.obj
 0001:00020c14       __acrt_locale_release_lc_time_reference 0000000180021c14 f   libucrt:locale_refcounting.obj
 0001:00020c3c       __acrt_release_locale_ref  0000000180021c3c f   libucrt:locale_refcounting.obj
 0001:00020ce4       __acrt_update_thread_locale_data 0000000180021ce4 f   libucrt:locale_refcounting.obj
 0001:00020d54       _updatetlocinfoEx_nolock   0000000180021d54 f   libucrt:locale_refcounting.obj
 0001:00020dbc       _query_new_mode            0000000180021dbc f   libucrt:new_mode.obj
 0001:00020dc4       ?__mbrtowc_utf8@__crt_mbstring@@YA_KPEA_WPEBD_KPEAU_Mbstatet@@@Z 0000000180021dc4 f   libucrt:mbrtowc.obj
 0001:00020e00       ?__mbsrtowcs_utf8@__crt_mbstring@@YA_KPEA_WPEAPEBD_KPEAU_Mbstatet@@@Z 0000000180021e00 f   libucrt:mbrtowc.obj
 0001:00020f78       ?__c32rtomb_utf8@__crt_mbstring@@YA_KPEAD_UPEAU_Mbstatet@@@Z 0000000180021f78 f   libucrt:c32rtomb.obj
 0001:00021030       c32rtomb                   0000000180022030 f   libucrt:c32rtomb.obj
 0001:00021038       __acrt_fp_strflt_to_string 0000000180022038 f   libucrt:_fptostr.obj
 0001:0002111c       __acrt_fltout              000000018002211c f   libucrt:cfout.obj
 0001:00022350       _fcloseall                 0000000180023350 f   libucrt:closeall.obj
 0001:00022404       __acrt_stdio_free_buffer_nolock 0000000180023404 f   libucrt:_freebuf.obj
 0001:00022444       _isatty                    0000000180023444 f   libucrt:isatty.obj
 0001:000224a4       __acrt_locale_free_monetary 00000001800234a4 f   libucrt:initmon.obj
 0001:000225b0       __acrt_locale_initialize_monetary 00000001800235b0 f   libucrt:initmon.obj
 0001:00022ae4       __acrt_locale_free_numeric 0000000180023ae4 f   libucrt:initnum.obj
 0001:00022b50       __acrt_locale_initialize_numeric 0000000180023b50 f   libucrt:initnum.obj
 0001:000231d0       __acrt_locale_free_time    00000001800241d0 f   libucrt:inittime.obj
 0001:000232d8       __acrt_locale_initialize_time 00000001800242d8 f   libucrt:inittime.obj
 0001:00023374       wcscat_s                   0000000180024374 f   libucrt:wcscat_s.obj
 0001:000233f4       wcsncpy_s                  00000001800243f4 f   libucrt:wcsncpy_s.obj
 0001:000234d8       wcscspn                    00000001800244d8 f   libucrt:wcscspn.obj
 0001:00023518       wcspbrk                    0000000180024518 f   libucrt:wcspbrk.obj
 0001:00023d00       __acrt_get_qualified_locale 0000000180024d00 f   libucrt:get_qualified_locale.obj
 0001:00024734       __acrt_get_qualified_locale_downlevel 0000000180025734 f   libucrt:getqloc_downlevel.obj
 0001:000249b4       __acrt_lowio_create_handle_array 00000001800259b4 f   libucrt:osfinfo.obj
 0001:00024a5c       __acrt_lowio_destroy_handle_array 0000000180025a5c f   libucrt:osfinfo.obj
 0001:00024aac       __acrt_lowio_ensure_fh_exists 0000000180025aac f   libucrt:osfinfo.obj
 0001:00024b54       __acrt_lowio_lock_fh       0000000180025b54 f   libucrt:osfinfo.obj
 0001:00024b7c       __acrt_lowio_unlock_fh     0000000180025b7c f   libucrt:osfinfo.obj
 0001:00024ba4       _free_osfhnd               0000000180025ba4 f   libucrt:osfinfo.obj
 0001:00024c60       _get_osfhandle             0000000180025c60 f   libucrt:osfinfo.obj
 0001:00024cf0       _get_fpsr                  0000000180025cf0 f   libucrt:fpsr.obj
 0001:00024d00       _set_fpsr                  0000000180025d00 f   libucrt:fpsr.obj
 0001:00024d0a       _fclrf                     0000000180025d0a f   libucrt:fpsr.obj
 0001:00024d1e       _frnd                      0000000180025d1e f   libucrt:fpsr.obj
 0001:00024e28       __acrt_DownlevelLCIDToLocaleName 0000000180025e28 f   libucrt:lcidtoname_downlevel.obj
 0001:00024f1c       __acrt_DownlevelLocaleNameToLCID 0000000180025f1c f   libucrt:lcidtoname_downlevel.obj
 0001:00024f50       ?__wcsrtombs_utf8@__crt_mbstring@@YA_KPEADPEAPEB_W_KPEAU_Mbstatet@@@Z 0000000180025f50 f   libucrt:wcrtomb.obj
 0001:0002506c       strncpy_s                  000000018002606c f   libucrt:strncpy_s.obj
 0001:00025140       __acrt_GetStringTypeW      0000000180026140 f   libucrt:getstringtypew.obj
 0001:00025148       __acrt_fenv_get_control    0000000180026148 f   libucrt:_fenvutils.obj
 0001:0002523c       __acrt_fenv_get_status     000000018002623c f   libucrt:_fenvutils.obj
 0001:00025290       __acrt_fenv_set_control    0000000180026290 f   libucrt:_fenvutils.obj
 0001:000253d8       __acrt_fenv_set_status     00000001800263d8 f   libucrt:_fenvutils.obj
 0001:00025580       _handle_error              0000000180026580 f   libucrt:libm_error.obj
 0001:000256a8       _handle_errorf             00000001800266a8 f   libucrt:libm_error.obj
 0001:000257dc       _handle_nan                00000001800267dc f   libucrt:libm_error.obj
 0001:000257f8       _handle_nanf               00000001800267f8 f   libucrt:libm_error.obj
 0001:00025808       _towlower_l                0000000180026808 f   libucrt:towlower.obj
 0001:000258d0       qsort                      00000001800268d0 f   libucrt:qsort.obj
 0001:00025d30       strpbrk                    0000000180026d30 f   libucrt:strpbrk.obj
 0001:00026110       _mbsdec                    0000000180027110 f   libucrt:mbsdec.obj
 0001:00026118       _mbsdec_l                  0000000180027118 f   libucrt:mbsdec.obj
 0001:000261c4       _msize_base                00000001800271c4 f   libucrt:msize.obj
 0001:0002628c       _commit                    000000018002728c f   libucrt:commit.obj
 0001:00026b8c       _write                     0000000180027b8c f   libucrt:write.obj
 0001:00026c78       _write_nolock              0000000180027c78 f   libucrt:write.obj
 0001:00026f54       ?__mbrtoc32_utf8@__crt_mbstring@@YA_KPEA_UPEBD_KPEAU_Mbstatet@@@Z 0000000180027f54 f   libucrt:mbrtoc32.obj
 0001:00027130       fegetenv                   0000000180028130 f   libucrt:fegetenv.obj
 0001:00027150       fesetenv                   0000000180028150 f   libucrt:fesetenv.obj
 0001:000271a0       feholdexcept               00000001800281a0 f   libucrt:feholdexcept.obj
 0001:000271f0       ceil                       00000001800281f0 f   libucrt:ceil.obj
 0001:000272c0       log10                      00000001800282c0 f   libucrt:log10.obj
 0001:00027908       _lseeki64_nolock           0000000180028908 f   libucrt:lseek.obj
 0001:00027910       _fclose_nolock             0000000180028910 f   libucrt:fclose.obj
 0001:00027994       fclose                     0000000180028994 f   libucrt:fclose.obj
 0001:00027b38       _itow_s                    0000000180028b38 f   libucrt:xtoa.obj
 0001:00027b58       _wcsnicmp                  0000000180028b58 f   libucrt:wcsnicmp.obj
 0001:00027c04       _wcsnicmp_l                0000000180028c04 f   libucrt:wcsnicmp.obj
 0001:00027d2c       wcscmp                     0000000180028d2c f   libucrt:wcscmp.obj
 0001:00027d64       _query_app_type            0000000180028d64 f   libucrt:report_runtime_error.obj
 0001:00027d6c       ?__c16rtomb_utf8@__crt_mbstring@@YA_KPEAD_SPEAU_Mbstatet@@@Z 0000000180028d6c f   libucrt:c16rtomb.obj
 0001:00027e14       __acrt_LCMapStringW        0000000180028e14 f   libucrt:lcmapstringw.obj
 0001:00027e9c       _putwch_nolock             0000000180028e9c f   libucrt:putwch.obj
 0001:00027ed8       _clearfp                   0000000180028ed8 f   libucrt:ieee.obj
 0001:00027f50       _log10_special             0000000180028f50 f   libucrt:log_special.obj
 0001:0002807c       _close                     000000018002907c f   libucrt:close.obj
 0001:00028120       _close_nolock              0000000180029120 f   libucrt:close.obj
 0001:000281e0       ?__acrt_stdio_free_stream@@YAXV__crt_stdio_stream@@@Z 00000001800291e0 f   libucrt:stream.obj
 0001:000281fc       __dcrt_lowio_ensure_console_output_initialized 00000001800291fc f   libucrt:initcon.obj
 0001:00028250       __dcrt_terminate_console_output 0000000180029250 f   libucrt:initcon.obj
 0001:0002826c       __dcrt_write_console       000000018002926c f   libucrt:initcon.obj
 0001:0002832a       IsProcessorFeaturePresent  000000018002932a f   kernel32:KERNEL32.dll
 0001:00028330       ?DloadAcquireSectionWriteAccess@@YAXXZ 0000000180029330 f i DelayImp:delayhlp.obj
 0001:000283dc       ?DloadGetSRWLockFunctionPointers@@YAEXZ 00000001800293dc f i DelayImp:delayhlp.obj
 0001:00028478       ?DloadMakePermanentImageCommit@@YAXPEAX_K@Z 0000000180029478 f i DelayImp:delayhlp.obj
 0001:00028510       ?DloadObtainSection@@YAPEAXPEAK0@Z 0000000180029510 f i DelayImp:delayhlp.obj
 0001:000285ac       ?DloadProtectSection@@YAXKPEAK@Z 00000001800295ac f i DelayImp:delayhlp.obj
 0001:0002863c       ?DloadReleaseSectionWriteAccess@@YAXXZ 000000018002963c f i DelayImp:delayhlp.obj
 0001:000286d0       __delayLoadHelper2         00000001800296d0 f   DelayImp:delayhlp.obj
 0001:00028990       _FindPESection             0000000180029990 f   LIBCMT:pesect.obj
 0001:000289e0       _IsNonwritableInCurrentImage 00000001800299e0 f   LIBCMT:pesect.obj
 0001:00028a30       _ValidateImageBase         0000000180029a30 f   LIBCMT:pesect.obj
 0001:00028a60       strrchr                    0000000180029a60 f   libvcruntime:strrchr.obj
 0001:00028bac       wcschr                     0000000180029bac f   libvcruntime:wcschr.obj
 0001:00028c50       _guard_dispatch_icall_nop  0000000180029c50 f   LIBCMT:guard_dispatch.obj
 0002:00000000       __imp_GetLastError         000000018002b000     kernel32:KERNEL32.dll
 0002:00000008       __imp_LocalFree            000000018002b008     kernel32:KERNEL32.dll
 0002:00000010       __imp_FormatMessageA       000000018002b010     kernel32:KERNEL32.dll
 0002:00000018       __imp_SetLastError         000000018002b018     kernel32:KERNEL32.dll
 0002:00000020       __imp_GlobalAlloc          000000018002b020     kernel32:KERNEL32.dll
 0002:00000028       __imp_GlobalFree           000000018002b028     kernel32:KERNEL32.dll
 0002:00000030       __imp_GetModuleHandleA     000000018002b030     kernel32:KERNEL32.dll
 0002:00000038       __imp_LoadLibraryExA       000000018002b038     kernel32:KERNEL32.dll
 0002:00000040       __imp_VirtualQuery         000000018002b040     kernel32:KERNEL32.dll
 0002:00000048       __imp_VirtualProtect       000000018002b048     kernel32:KERNEL32.dll
 0002:00000050       __imp_GetSystemInfo        000000018002b050     kernel32:KERNEL32.dll
 0002:00000058       __imp_WriteConsoleW        000000018002b058     kernel32:KERNEL32.dll
 0002:00000060       __imp_CreateFileW          000000018002b060     kernel32:KERNEL32.dll
 0002:00000068       __imp_GetConsoleMode       000000018002b068     kernel32:KERNEL32.dll
 0002:00000070       __imp_GetConsoleCP         000000018002b070     kernel32:KERNEL32.dll
 0002:00000078       __imp_WriteFile            000000018002b078     kernel32:KERNEL32.dll
 0002:00000080       __imp_FlushFileBuffers     000000018002b080     kernel32:KERNEL32.dll
 0002:00000088       __imp_HeapSize             000000018002b088     kernel32:KERNEL32.dll
 0002:00000090       __imp_SetStdHandle         000000018002b090     kernel32:KERNEL32.dll
 0002:00000098       __imp_SetFilePointerEx     000000018002b098     kernel32:KERNEL32.dll
 0002:000000a0       __imp_GetProcessHeap       000000018002b0a0     kernel32:KERNEL32.dll
 0002:000000a8       __imp_FreeEnvironmentStringsW 000000018002b0a8     kernel32:KERNEL32.dll
 0002:000000b0       __imp_GetEnvironmentStringsW 000000018002b0b0     kernel32:KERNEL32.dll
 0002:000000b8       __imp_GetCommandLineW      000000018002b0b8     kernel32:KERNEL32.dll
 0002:000000c0       __imp_GetCommandLineA      000000018002b0c0     kernel32:KERNEL32.dll
 0002:000000c8       __imp_WideCharToMultiByte  000000018002b0c8     kernel32:KERNEL32.dll
 0002:000000d0       __imp_EnterCriticalSection 000000018002b0d0     kernel32:KERNEL32.dll
 0002:000000d8       __imp_LeaveCriticalSection 000000018002b0d8     kernel32:KERNEL32.dll
 0002:000000e0       __imp_DeleteCriticalSection 000000018002b0e0     kernel32:KERNEL32.dll
 0002:000000e8       __imp_InitializeCriticalSectionAndSpinCount 000000018002b0e8     kernel32:KERNEL32.dll
 0002:000000f0       __imp_CreateEventW         000000018002b0f0     kernel32:KERNEL32.dll
 0002:000000f8       __imp_SwitchToThread       000000018002b0f8     kernel32:KERNEL32.dll
 0002:00000100       __imp_TlsAlloc             000000018002b100     kernel32:KERNEL32.dll
 0002:00000108       __imp_TlsGetValue          000000018002b108     kernel32:KERNEL32.dll
 0002:00000110       __imp_TlsSetValue          000000018002b110     kernel32:KERNEL32.dll
 0002:00000118       __imp_TlsFree              000000018002b118     kernel32:KERNEL32.dll
 0002:00000120       __imp_GetSystemTimeAsFileTime 000000018002b120     kernel32:KERNEL32.dll
 0002:00000128       __imp_GetModuleHandleW     000000018002b128     kernel32:KERNEL32.dll
 0002:00000130       __imp_GetProcAddress       000000018002b130     kernel32:KERNEL32.dll
 0002:00000138       __imp_EncodePointer        000000018002b138     kernel32:KERNEL32.dll
 0002:00000140       __imp_DecodePointer        000000018002b140     kernel32:KERNEL32.dll
 0002:00000148       __imp_MultiByteToWideChar  000000018002b148     kernel32:KERNEL32.dll
 0002:00000150       __imp_LCMapStringW         000000018002b150     kernel32:KERNEL32.dll
 0002:00000158       __imp_GetLocaleInfoW       000000018002b158     kernel32:KERNEL32.dll
 0002:00000160       __imp_GetStringTypeW       000000018002b160     kernel32:KERNEL32.dll
 0002:00000168       __imp_GetCPInfo            000000018002b168     kernel32:KERNEL32.dll
 0002:00000170       __imp_CloseHandle          000000018002b170     kernel32:KERNEL32.dll
 0002:00000178       __imp_SetEvent             000000018002b178     kernel32:KERNEL32.dll
 0002:00000180       __imp_ResetEvent           000000018002b180     kernel32:KERNEL32.dll
 0002:00000188       __imp_WaitForSingleObjectEx 000000018002b188     kernel32:KERNEL32.dll
 0002:00000190       __imp_RtlCaptureContext    000000018002b190     kernel32:KERNEL32.dll
 0002:00000198       __imp_RtlLookupFunctionEntry 000000018002b198     kernel32:KERNEL32.dll
 0002:000001a0       __imp_RtlVirtualUnwind     000000018002b1a0     kernel32:KERNEL32.dll
 0002:000001a8       __imp_UnhandledExceptionFilter 000000018002b1a8     kernel32:KERNEL32.dll
 0002:000001b0       __imp_SetUnhandledExceptionFilter 000000018002b1b0     kernel32:KERNEL32.dll
 0002:000001b8       __imp_GetCurrentProcess    000000018002b1b8     kernel32:KERNEL32.dll
 0002:000001c0       __imp_TerminateProcess     000000018002b1c0     kernel32:KERNEL32.dll
 0002:000001c8       __imp_IsProcessorFeaturePresent 000000018002b1c8     kernel32:KERNEL32.dll
 0002:000001d0       __imp_IsDebuggerPresent    000000018002b1d0     kernel32:KERNEL32.dll
 0002:000001d8       __imp_GetStartupInfoW      000000018002b1d8     kernel32:KERNEL32.dll
 0002:000001e0       __imp_QueryPerformanceCounter 000000018002b1e0     kernel32:KERNEL32.dll
 0002:000001e8       __imp_GetCurrentProcessId  000000018002b1e8     kernel32:KERNEL32.dll
 0002:000001f0       __imp_GetCurrentThreadId   000000018002b1f0     kernel32:KERNEL32.dll
 0002:000001f8       __imp_InitializeSListHead  000000018002b1f8     kernel32:KERNEL32.dll
 0002:00000200       __imp_RtlPcToFileHeader    000000018002b200     kernel32:KERNEL32.dll
 0002:00000208       __imp_RaiseException       000000018002b208     kernel32:KERNEL32.dll
 0002:00000210       __imp_RtlUnwindEx          000000018002b210     kernel32:KERNEL32.dll
 0002:00000218       __imp_InterlockedFlushSList 000000018002b218     kernel32:KERNEL32.dll
 0002:00000220       __imp_FreeLibrary          000000018002b220     kernel32:KERNEL32.dll
 0002:00000228       __imp_LoadLibraryExW       000000018002b228     kernel32:KERNEL32.dll
 0002:00000230       __imp_ExitProcess          000000018002b230     kernel32:KERNEL32.dll
 0002:00000238       __imp_GetModuleHandleExW   000000018002b238     kernel32:KERNEL32.dll
 0002:00000240       __imp_GetModuleFileNameW   000000018002b240     kernel32:KERNEL32.dll
 0002:00000248       __imp_HeapAlloc            000000018002b248     kernel32:KERNEL32.dll
 0002:00000250       __imp_HeapFree             000000018002b250     kernel32:KERNEL32.dll
 0002:00000258       __imp_GetStdHandle         000000018002b258     kernel32:KERNEL32.dll
 0002:00000260       __imp_GetFileType          000000018002b260     kernel32:KERNEL32.dll
 0002:00000268       __imp_IsValidLocale        000000018002b268     kernel32:KERNEL32.dll
 0002:00000270       __imp_GetUserDefaultLCID   000000018002b270     kernel32:KERNEL32.dll
 0002:00000278       __imp_EnumSystemLocalesW   000000018002b278     kernel32:KERNEL32.dll
 0002:00000280       __imp_HeapReAlloc          000000018002b280     kernel32:KERNEL32.dll
 0002:00000288       __imp_FindClose            000000018002b288     kernel32:KERNEL32.dll
 0002:00000290       __imp_FindFirstFileExW     000000018002b290     kernel32:KERNEL32.dll
 0002:00000298       __imp_FindNextFileW        000000018002b298     kernel32:KERNEL32.dll
 0002:000002a0       __imp_IsValidCodePage      000000018002b2a0     kernel32:KERNEL32.dll
 0002:000002a8       __imp_GetACP               000000018002b2a8     kernel32:KERNEL32.dll
 0002:000002b0       __imp_GetOEMCP             000000018002b2b0     kernel32:KERNEL32.dll
 0002:000002b8       \177KERNEL32_NULL_THUNK_DATA 000000018002b2b8     kernel32:KERNEL32.dll
 0002:000002c0       __imp_SendMessageTimeoutA  000000018002b2c0     user32:USER32.dll
 0002:000002c8       \177USER32_NULL_THUNK_DATA 000000018002b2c8     user32:USER32.dll
 0002:000002d0       __imp_SetPrinterA          000000018002b2d0     winspool:WINSPOOL.DRV
 0002:000002d8       __imp_OpenPrinterW         000000018002b2d8     winspool:WINSPOOL.DRV
 0002:000002e0       __imp_GetPrinterW          000000018002b2e0     winspool:WINSPOOL.DRV
 0002:000002e8       __imp_StartDocPrinterW     000000018002b2e8     winspool:WINSPOOL.DRV
 0002:000002f0       __imp_GetJobW              000000018002b2f0     winspool:WINSPOOL.DRV
 0002:000002f8       __imp_EndPagePrinter       000000018002b2f8     winspool:WINSPOOL.DRV
 0002:00000300       __imp_EnumPrintProcessorDatatypesW 000000018002b300     winspool:WINSPOOL.DRV
 0002:00000308       __imp_OpenPrinterA         000000018002b308     winspool:WINSPOOL.DRV
 0002:00000310       __imp_SetJobW              000000018002b310     winspool:WINSPOOL.DRV
 0002:00000318       __imp_GetDefaultPrinterW   000000018002b318     winspool:WINSPOOL.DRV
 0002:00000320       __imp_EnumJobsW            000000018002b320     winspool:WINSPOOL.DRV
 0002:00000328       __imp_StartPagePrinter     000000018002b328     winspool:WINSPOOL.DRV
 0002:00000330       __imp_EnumPrintProcessorsW 000000018002b330     winspool:WINSPOOL.DRV
 0002:00000338       __imp_ClosePrinter         000000018002b338     winspool:WINSPOOL.DRV
 0002:00000340       __imp_WritePrinter         000000018002b340     winspool:WINSPOOL.DRV
 0002:00000348       __imp_EnumPrintersW        000000018002b348     winspool:WINSPOOL.DRV
 0002:00000350       __imp_DocumentPropertiesA  000000018002b350     winspool:WINSPOOL.DRV
 0002:00000358       __imp_GetPrinterA          000000018002b358     winspool:WINSPOOL.DRV
 0002:00000360       __imp_EndDocPrinter        000000018002b360     winspool:WINSPOOL.DRV
 0002:00000368       \177WINSPOOL_NULL_THUNK_DATA 000000018002b368     winspool:WINSPOOL.DRV
 0002:00000370       __guard_check_icall_fptr   000000018002b370     LIBCMT:guard_support.obj
 0002:00000378       __guard_dispatch_icall_fptr 000000018002b378     LIBCMT:guard_support.obj
 0002:00000380       __xc_a                     000000018002b380     LIBCMT:initializers.obj
 0002:000003b0       _register_node_printer_    000000018002b3b0     node_printer.obj
 0002:000003b8       __xc_z                     000000018002b3b8     LIBCMT:initializers.obj
 0002:000003c0       __xi_a                     000000018002b3c0     LIBCMT:initializers.obj
 0002:000003d8       __acrt_stdio_initializer   000000018002b3d8     libucrt:stdio_initializer.obj
 0002:000003e0       __acrt_tran_fma3_initializer 000000018002b3e0     libucrt:fma3_initializer.obj
 0002:000003e8       __acrt_timeset_initializer 000000018002b3e8     libucrt:timeset_initializer.obj
 0002:000003f0       __acrt_multibyte_initializer 000000018002b3f0     libucrt:multibyte_initializer.obj
 0002:000003f8       __xi_z                     000000018002b3f8     LIBCMT:initializers.obj
 0002:00000400       __xl_a                     000000018002b400     LIBCMT:tlssup.obj
 0002:00000408       __xl_z                     000000018002b408     LIBCMT:tlssup.obj
 0002:00000410       __xp_a                     000000018002b410     LIBCMT:initializers.obj
 0002:00000418       __acrt_locale_terminator   000000018002b418     libucrt:locale_initializer.obj
 0002:00000420       __dcrt_console_output_terminator 000000018002b420     libucrt:console_output_initializer.obj
 0002:00000428       __acrt_stdio_terminator    000000018002b428     libucrt:stdio_initializer.obj
 0002:00000430       __xp_z                     000000018002b430     LIBCMT:initializers.obj
 0002:00000438       __xt_a                     000000018002b438     LIBCMT:initializers.obj
 0002:00000440       __xt_z                     000000018002b440     LIBCMT:initializers.obj
 0002:00000450       __sz_node_exe              000000018002b450     node:node.exe
 0002:00000468       ??_7exception@std@@6B@     000000018002b468     libcpmt:xthrow.obj
 0002:00000478       ??_C@_0BC@EOODALEL@Unknown?5exception@ 000000018002b478     libcpmt:xthrow.obj
 0002:00000498       ??_7bad_alloc@std@@6B@     000000018002b498     libcpmt:xthrow.obj
 0002:000004a8       ??_C@_0P@GHFPNOJB@bad?5allocation@ 000000018002b4a8     libcpmt:xthrow.obj
 0002:000004c0       ??_7logic_error@std@@6B@   000000018002b4c0     libcpmt:xthrow.obj
 0002:000004d8       ??_7length_error@std@@6B@  000000018002b4d8     libcpmt:xthrow.obj
 0002:000004f0       ??_7out_of_range@std@@6B@  000000018002b4f0     libcpmt:xthrow.obj
 0002:00000508       ??_7runtime_error@std@@6B@ 000000018002b508     libcpmt:xthrow.obj
 0002:00000520       ??_7_System_error@std@@6B@ 000000018002b520     libcpmt:xonce.obj
 0002:00000530       ??_C@_0O@BFJCFAAK@unknown?5error@ 000000018002b530     libcpmt:xonce.obj
 0002:00000610       ??_7_Facet_base@std@@6B@   000000018002b610     libcpmt:locale0.obj
 0002:00000630       ??_7_Locimp@locale@std@@6B@ 000000018002b630     libcpmt:locale0.obj
 0002:00000648       ??_C@_01NBENCBCI@?$CK@     000000018002b648     libcpmt:locale0.obj
 0002:0000064c       ??_C@_01GFHCPBMG@C@        000000018002b64c     libcpmt:locale0.obj
 0002:00000650       ?_BADOFF@std@@3_JB         000000018002b650     libcpmt:ios.obj
 0002:00000dd0       ??_C@_0BN@LKKBCCDB@address?5family?5not?5supported@ 000000018002bdd0     libcpmt:syserror.obj
 0002:00000df0       ??_C@_0P@LDMLAFHI@address?5in?5use@ 000000018002bdf0     libcpmt:syserror.obj
 0002:00000e00       ??_C@_0BG@DHPCNBJB@address?5not?5available@ 000000018002be00     libcpmt:syserror.obj
 0002:00000e18       ??_C@_0BC@DFIBIBIL@already?5connected@ 000000018002be18     libcpmt:syserror.obj
 0002:00000e30       ??_C@_0BH@CAKOHOMI@argument?5list?5too?5long@ 000000018002be30     libcpmt:syserror.obj
 0002:00000e48       ??_C@_0BH@CGIMPKIM@argument?5out?5of?5domain@ 000000018002be48     libcpmt:syserror.obj
 0002:00000e60       ??_C@_0M@KGHGGJGL@bad?5address@ 000000018002be60     libcpmt:syserror.obj
 0002:00000e70       ??_C@_0BE@MPJPGCEO@bad?5file?5descriptor@ 000000018002be70     libcpmt:syserror.obj
 0002:00000e88       ??_C@_0M@PMMIEFCP@bad?5message@ 000000018002be88     libcpmt:syserror.obj
 0002:00000e98       ??_C@_0M@KPHOFDBE@broken?5pipe@ 000000018002be98     libcpmt:syserror.obj
 0002:00000ea8       ??_C@_0BD@MGNDDEGM@connection?5aborted@ 000000018002bea8     libcpmt:syserror.obj
 0002:00000ec0       ??_C@_0BP@KAIHPOGN@connection?5already?5in?5progress@ 000000018002bec0     libcpmt:syserror.obj
 0002:00000ee0       ??_C@_0BD@PJLIIJEL@connection?5refused@ 000000018002bee0     libcpmt:syserror.obj
 0002:00000ef8       ??_C@_0BB@IECNJNOI@connection?5reset@ 000000018002bef8     libcpmt:syserror.obj
 0002:00000f10       ??_C@_0BC@PPHBOELF@cross?5device?5link@ 000000018002bf10     libcpmt:syserror.obj
 0002:00000f28       ??_C@_0BN@KDMIFEIP@destination?5address?5required@ 000000018002bf28     libcpmt:syserror.obj
 0002:00000f48       ??_C@_0BI@NGCEHDD@device?5or?5resource?5busy@ 000000018002bf48     libcpmt:syserror.obj
 0002:00000f60       ??_C@_0BE@JIDOCPHM@directory?5not?5empty@ 000000018002bf60     libcpmt:syserror.obj
 0002:00000f78       ??_C@_0BI@BNCLIGPB@executable?5format?5error@ 000000018002bf78     libcpmt:syserror.obj
 0002:00000f90       ??_C@_0M@MIDIAGJP@file?5exists@ 000000018002bf90     libcpmt:syserror.obj
 0002:00000fa0       ??_C@_0P@DNAJLBJK@file?5too?5large@ 000000018002bfa0     libcpmt:syserror.obj
 0002:00000fb0       ??_C@_0BC@EJHOMAAK@filename?5too?5long@ 000000018002bfb0     libcpmt:syserror.obj
 0002:00000fc8       ??_C@_0BH@KEFGLDAF@function?5not?5supported@ 000000018002bfc8     libcpmt:syserror.obj
 0002:00000fe0       ??_C@_0BB@DHFDFGDM@host?5unreachable@ 000000018002bfe0     libcpmt:syserror.obj
 0002:00000ff8       ??_C@_0BD@JPHBMONG@identifier?5removed@ 000000018002bff8     libcpmt:syserror.obj
 0002:00001010       ??_C@_0BG@CDNPAGJK@illegal?5byte?5sequence@ 000000018002c010     libcpmt:syserror.obj
 0002:00001028       ??_C@_0CD@BNPLBMNA@inappropriate?5io?5control?5operat@ 000000018002c028     libcpmt:syserror.obj
 0002:00001050       ??_C@_0M@EGEKIIMP@interrupted@ 000000018002c050     libcpmt:syserror.obj
 0002:00001060       ??_C@_0BB@FCMFBGOM@invalid?5argument@ 000000018002c060     libcpmt:syserror.obj
 0002:00001078       ??_C@_0N@OHAFKDEK@invalid?5seek@ 000000018002c078     libcpmt:syserror.obj
 0002:00001088       ??_C@_08GLNPIFBN@io?5error@ 000000018002c088     libcpmt:syserror.obj
 0002:00001098       ??_C@_0P@FLLDBIDK@is?5a?5directory@ 000000018002c098     libcpmt:syserror.obj
 0002:000010a8       ??_C@_0N@IFLPBIOP@message?5size@ 000000018002c0a8     libcpmt:syserror.obj
 0002:000010b8       ??_C@_0N@KIIEAAIO@network?5down@ 000000018002c0b8     libcpmt:syserror.obj
 0002:000010c8       ??_C@_0O@FNPDBHEE@network?5reset@ 000000018002c0c8     libcpmt:syserror.obj
 0002:000010d8       ??_C@_0BE@IFNCKGE@network?5unreachable@ 000000018002c0d8     libcpmt:syserror.obj
 0002:000010f0       ??_C@_0BA@PFFCAOFK@no?5buffer?5space@ 000000018002c0f0     libcpmt:syserror.obj
 0002:00001100       ??_C@_0BB@IEPBLJHK@no?5child?5process@ 000000018002c100     libcpmt:syserror.obj
 0002:00001118       ??_C@_07PLECNNKG@no?5link@ 000000018002c118     libcpmt:syserror.obj
 0002:00001120       ??_C@_0BC@NJECKMKE@no?5lock?5available@ 000000018002c120     libcpmt:syserror.obj
 0002:00001138       ??_C@_0BF@PBGGPKKE@no?5message?5available@ 000000018002c138     libcpmt:syserror.obj
 0002:00001150       ??_C@_0L@EDOLMPAK@no?5message@ 000000018002c150     libcpmt:syserror.obj
 0002:00001160       ??_C@_0BD@EAMBFIDF@no?5protocol?5option@ 000000018002c160     libcpmt:syserror.obj
 0002:00001178       ??_C@_0BD@IJDJKDEA@no?5space?5on?5device@ 000000018002c178     libcpmt:syserror.obj
 0002:00001190       ??_C@_0BE@MKFDAFMP@no?5stream?5resources@ 000000018002c190     libcpmt:syserror.obj
 0002:000011a8       ??_C@_0BK@IMCPHCBI@no?5such?5device?5or?5address@ 000000018002c1a8     libcpmt:syserror.obj
 0002:000011c8       ??_C@_0P@FDINDDOK@no?5such?5device@ 000000018002c1c8     libcpmt:syserror.obj
 0002:000011d8       ??_C@_0BK@NDOCBPGE@no?5such?5file?5or?5directory@ 000000018002c1d8     libcpmt:syserror.obj
 0002:000011f8       ??_C@_0BA@ENLPPKBN@no?5such?5process@ 000000018002c1f8     libcpmt:syserror.obj
 0002:00001208       ??_C@_0BA@DOCPFFJG@not?5a?5directory@ 000000018002c208     libcpmt:syserror.obj
 0002:00001218       ??_C@_0N@POEIPGGF@not?5a?5socket@ 000000018002c218     libcpmt:syserror.obj
 0002:00001228       ??_C@_0N@LGAPMMPI@not?5a?5stream@ 000000018002c228     libcpmt:syserror.obj
 0002:00001238       ??_C@_0O@GLMIBBEG@not?5connected@ 000000018002c238     libcpmt:syserror.obj
 0002:00001248       ??_C@_0BC@ENOOLCNF@not?5enough?5memory@ 000000018002c248     libcpmt:syserror.obj
 0002:00001260       ??_C@_0O@NHEDABJP@not?5supported@ 000000018002c260     libcpmt:syserror.obj
 0002:00001270       ??_C@_0BD@MOLBPMEA@operation?5canceled@ 000000018002c270     libcpmt:syserror.obj
 0002:00001288       ??_C@_0BG@KDKHOPCO@operation?5in?5progress@ 000000018002c288     libcpmt:syserror.obj
 0002:000012a0       ??_C@_0BI@OHIEJAAB@operation?5not?5permitted@ 000000018002c2a0     libcpmt:syserror.obj
 0002:000012b8       ??_C@_0BI@LNEGIFLN@operation?5not?5supported@ 000000018002c2b8     libcpmt:syserror.obj
 0002:000012d0       ??_C@_0BG@OEMDKMEE@operation?5would?5block@ 000000018002c2d0     libcpmt:syserror.obj
 0002:000012e8       ??_C@_0L@BLPOFLNJ@owner?5dead@ 000000018002c2e8     libcpmt:syserror.obj
 0002:000012f8       ??_C@_0BC@CIJDGCDI@permission?5denied@ 000000018002c2f8     libcpmt:syserror.obj
 0002:00001310       ??_C@_0P@FNPOCJBE@protocol?5error@ 000000018002c310     libcpmt:syserror.obj
 0002:00001320       ??_C@_0BH@JPPPLHJB@protocol?5not?5supported@ 000000018002c320     libcpmt:syserror.obj
 0002:00001338       ??_C@_0BG@EICBIHDP@read?5only?5file?5system@ 000000018002c338     libcpmt:syserror.obj
 0002:00001350       ??_C@_0BO@BJBOMOEJ@resource?5deadlock?5would?5occur@ 000000018002c350     libcpmt:syserror.obj
 0002:00001370       ??_C@_0BP@LKNGHENJ@resource?5unavailable?5try?5again@ 000000018002c370     libcpmt:syserror.obj
 0002:00001390       ??_C@_0BE@GOIPJJHG@result?5out?5of?5range@ 000000018002c390     libcpmt:syserror.obj
 0002:000013a8       ??_C@_0BG@MPLKFPAE@state?5not?5recoverable@ 000000018002c3a8     libcpmt:syserror.obj
 0002:000013c0       ??_C@_0P@DIIFGFCG@stream?5timeout@ 000000018002c3c0     libcpmt:syserror.obj
 0002:000013d0       ??_C@_0P@IPFDMIFL@text?5file?5busy@ 000000018002c3d0     libcpmt:syserror.obj
 0002:000013e0       ??_C@_09KJPPMAOI@timed?5out@ 000000018002c3e0     libcpmt:syserror.obj
 0002:000013f0       ??_C@_0BO@HACHBEKI@too?5many?5files?5open?5in?5system@ 000000018002c3f0     libcpmt:syserror.obj
 0002:00001410       ??_C@_0BE@GHAFMPAH@too?5many?5files?5open@ 000000018002c410     libcpmt:syserror.obj
 0002:00001428       ??_C@_0P@HCOMKFCC@too?5many?5links@ 000000018002c428     libcpmt:syserror.obj
 0002:00001438       ??_C@_0BO@EFGOJEF@too?5many?5symbolic?5link?5levels@ 000000018002c438     libcpmt:syserror.obj
 0002:00001458       ??_C@_0BA@KGKGOOJA@value?5too?5large@ 000000018002c458     libcpmt:syserror.obj
 0002:00001468       ??_C@_0BE@MIEJDDNH@wrong?5protocol?5type@ 000000018002c468     libcpmt:syserror.obj
 0002:00001480       ??_C@_1BK@MGMFAEKH@?$AAk?$AAe?$AAr?$AAn?$AAe?$AAl?$AA3?$AA2?$AA?4?$AAd?$AAl?$AAl@ 000000018002c480     libcpmt:winapisupp.obj
 0002:000014a0       ??_C@_08KNHFBNJ@FlsAlloc@  000000018002c4a0     libcpmt:winapisupp.obj
 0002:000014b0       ??_C@_07PEJMOBNF@FlsFree@  000000018002c4b0     libcpmt:winapisupp.obj
 0002:000014b8       ??_C@_0M@GDNOONDI@FlsGetValue@ 000000018002c4b8     libcpmt:winapisupp.obj
 0002:000014c8       ??_C@_0M@JCPCPOEF@FlsSetValue@ 000000018002c4c8     libcpmt:winapisupp.obj
 0002:000014d8       ??_C@_0BM@HCFOFFN@InitializeCriticalSectionEx@ 000000018002c4d8     libcpmt:winapisupp.obj
 0002:000014f8       ??_C@_0BE@GPLMMCMH@InitOnceExecuteOnce@ 000000018002c4f8     libcpmt:winapisupp.obj
 0002:00001510       ??_C@_0P@DLHPPCNH@CreateEventExW@ 000000018002c510     libcpmt:winapisupp.obj
 0002:00001520       ??_C@_0BB@MEFPJLHN@CreateSemaphoreW@ 000000018002c520     libcpmt:winapisupp.obj
 0002:00001538       ??_C@_0BD@KIEEOEEH@CreateSemaphoreExW@ 000000018002c538     libcpmt:winapisupp.obj
 0002:00001550       ??_C@_0BG@OGFAJCKC@CreateThreadpoolTimer@ 000000018002c550     libcpmt:winapisupp.obj
 0002:00001568       ??_C@_0BD@LPLEMMDI@SetThreadpoolTimer@ 000000018002c568     libcpmt:winapisupp.obj
 0002:00001580       ??_C@_0CA@FMNJENH@WaitForThreadpoolTimerCallbacks@ 000000018002c580     libcpmt:winapisupp.obj
 0002:000015a0       ??_C@_0BF@DCFCCNOC@CloseThreadpoolTimer@ 000000018002c5a0     libcpmt:winapisupp.obj
 0002:000015b8       ??_C@_0BF@FLABGKKM@CreateThreadpoolWait@ 000000018002c5b8     libcpmt:winapisupp.obj
 0002:000015d0       ??_C@_0BC@MGCOHNA@SetThreadpoolWait@ 000000018002c5d0     libcpmt:winapisupp.obj
 0002:000015e8       ??_C@_0BE@OCIOMIMP@CloseThreadpoolWait@ 000000018002c5e8     libcpmt:winapisupp.obj
 0002:00001600       ??_C@_0BJ@LKGHFHBO@FlushProcessWriteBuffers@ 000000018002c600     libcpmt:winapisupp.obj
 0002:00001620       ??_C@_0BP@KALKKPMO@FreeLibraryWhenCallbackReturns@ 000000018002c620     libcpmt:winapisupp.obj
 0002:00001640       ??_C@_0BK@DFNBACLA@GetCurrentProcessorNumber@ 000000018002c640     libcpmt:winapisupp.obj
 0002:00001660       ??_C@_0BE@FKKLLFLM@CreateSymbolicLinkW@ 000000018002c660     libcpmt:winapisupp.obj
 0002:00001678       ??_C@_0BE@JOGNEJCI@GetCurrentPackageId@ 000000018002c678     libcpmt:winapisupp.obj
 0002:00001690       ??_C@_0P@CDHHOHKP@GetTickCount64@ 000000018002c690     libcpmt:winapisupp.obj
 0002:000016a0       ??_C@_0BN@NEEHBBPO@GetFileInformationByHandleEx@ 000000018002c6a0     libcpmt:winapisupp.obj
 0002:000016c0       ??_C@_0BL@KBBHGKCM@SetFileInformationByHandle@ 000000018002c6c0     libcpmt:winapisupp.obj
 0002:000016e0       ??_C@_0BP@FPNJPEJC@GetSystemTimePreciseAsFileTime@ 000000018002c6e0     libcpmt:winapisupp.obj
 0002:00001700       ??_C@_0BM@HLJJNPAH@InitializeConditionVariable@ 000000018002c700     libcpmt:winapisupp.obj
 0002:00001720       ??_C@_0BG@BFNILBLN@WakeConditionVariable@ 000000018002c720     libcpmt:winapisupp.obj
 0002:00001738       ??_C@_0BJ@PGPPEPCC@WakeAllConditionVariable@ 000000018002c738     libcpmt:winapisupp.obj
 0002:00001758       ??_C@_0BJ@JEBJOJFJ@SleepConditionVariableCS@ 000000018002c758     libcpmt:winapisupp.obj
 0002:00001778       ??_C@_0BC@MMLHEBPB@InitializeSRWLock@ 000000018002c778     libcpmt:winapisupp.obj
 0002:00001790       ??_C@_0BI@OMNLIJDB@AcquireSRWLockExclusive@ 000000018002c790     libcpmt:winapisupp.obj
 0002:000017a8       ??_C@_0BL@OGHFEMNA@TryAcquireSRWLockExclusive@ 000000018002c7a8     libcpmt:winapisupp.obj
 0002:000017c8       ??_C@_0BI@HMIEPCNJ@ReleaseSRWLockExclusive@ 000000018002c7c8     libcpmt:winapisupp.obj
 0002:000017e0       ??_C@_0BK@LGACAGIC@SleepConditionVariableSRW@ 000000018002c7e0     libcpmt:winapisupp.obj
 0002:00001800       ??_C@_0BF@GGPHFPJA@CreateThreadpoolWork@ 000000018002c800     libcpmt:winapisupp.obj
 0002:00001818       ??_C@_0BF@NHDAIMMO@SubmitThreadpoolWork@ 000000018002c818     libcpmt:winapisupp.obj
 0002:00001830       ??_C@_0BE@NPHIPNPD@CloseThreadpoolWork@ 000000018002c830     libcpmt:winapisupp.obj
 0002:00001848       ??_C@_0BA@IHGNDAEB@CompareStringEx@ 000000018002c848     libcpmt:winapisupp.obj
 0002:00001858       ??_C@_0BA@ONOKGCMP@GetLocaleInfoEx@ 000000018002c858     libcpmt:winapisupp.obj
 0002:00001868       ??_C@_0O@KKBNKAPF@LCMapStringEx@ 000000018002c868     libcpmt:winapisupp.obj
 0002:00001880       ??_7?$ctype@D@std@@6B@     000000018002c880     libcpmt:locale.obj
 0002:000018e0       ??_7?$num_put@DV?$ostreambuf_iterator@DU?$char_traits@D@std@@@std@@@std@@6B@ 000000018002c8e0     libcpmt:locale.obj
 0002:00001940       ??_7?$numpunct@D@std@@6B@  000000018002c940     libcpmt:locale.obj
 0002:000019a8       ??_C@_11LOCGONAA@@         000000018002c9a8     libcpmt:wlocale.obj
 0002:000019ac       ??_C@_01JOAMLHOP@?9@       000000018002c9ac     libcpmt:wlocale.obj
 0002:000019b0       __xmm@80000000000000008000000000000000 000000018002c9b0     libcpmt:wlocale.obj
 0002:000036e0       ??_C@_15EMKDOKLE@?$AAa?$AAr@ 000000018002e6e0     libcpmt:winapinls.obj
 0002:000036e8       ??_C@_15KNPADPLH@?$AAb?$AAg@ 000000018002e6e8     libcpmt:winapinls.obj
 0002:000036f0       ??_C@_15EDMHLDMO@?$AAc?$AAa@ 000000018002e6f0     libcpmt:winapinls.obj
 0002:000036f8       ??_C@_1O@BPEAJADD@?$AAz?$AAh?$AA?9?$AAC?$AAH?$AAS@ 000000018002e6f8     libcpmt:winapinls.obj
 0002:00003708       ??_C@_15LJNHCMNK@?$AAc?$AAs@ 000000018002e708     libcpmt:winapinls.obj
 0002:00003710       ??_C@_15FOMCIDHG@?$AAd?$AAa@ 000000018002e710     libcpmt:winapinls.obj
 0002:00003718       ??_C@_15NBKABECB@?$AAd?$AAe@ 000000018002e718     libcpmt:winapinls.obj
 0002:00003720       ??_C@_15GHPEIIAO@?$AAe?$AAl@ 000000018002e720     libcpmt:winapinls.obj
 0002:00003728       ??_C@_15MNPNEAIF@?$AAe?$AAn@ 000000018002e728     libcpmt:winapinls.obj
 0002:00003730       ??_C@_15GPIOMPMH@?$AAe?$AAs@ 000000018002e730     libcpmt:winapinls.obj
 0002:00003738       ??_C@_15NGLOAKJC@?$AAf?$AAi@ 000000018002e738     libcpmt:winapinls.obj
 0002:00003740       ??_C@_15FBKGNKAM@?$AAf?$AAr@ 000000018002e740     libcpmt:winapinls.obj
 0002:00003748       ??_C@_15KGGCNEFK@?$AAh?$AAe@ 000000018002e748     libcpmt:winapinls.obj
 0002:00003750       ??_C@_15PGHLIDMF@?$AAh?$AAu@ 000000018002e750     libcpmt:winapinls.obj
 0002:00003758       ??_C@_15BIEMAPLM@?$AAi?$AAs@ 000000018002e758     libcpmt:winapinls.obj
 0002:00003760       ??_C@_15IFJLDHAF@?$AAi?$AAt@ 000000018002e760     libcpmt:winapinls.obj
 0002:00003768       ??_C@_15GEMIOCAG@?$AAj?$AAa@ 000000018002e768     libcpmt:winapinls.obj
 0002:00003770       ??_C@_15EPELEGJA@?$AAk?$AAo@ 000000018002e770     libcpmt:winapinls.obj
 0002:00003778       ??_C@_15NDDHIMN@?$AAn?$AAl@ 000000018002e778     libcpmt:winapinls.obj
 0002:00003780       ??_C@_15BPIGNHCD@?$AAn?$AAo@ 000000018002e780     libcpmt:winapinls.obj
 0002:00003788       ??_C@_15DEOPBLCG@?$AAp?$AAl@ 000000018002e788     libcpmt:winapinls.obj
 0002:00003790       ??_C@_15KBECGEFG@?$AAp?$AAt@ 000000018002e790     libcpmt:winapinls.obj
 0002:00003798       ??_C@_15GLJCBFMD@?$AAr?$AAo@ 000000018002e798     libcpmt:winapinls.obj
 0002:000037a0       ??_C@_15FEDGKCDI@?$AAr?$AAu@ 000000018002e7a0     libcpmt:winapinls.obj
 0002:000037a8       ??_C@_15GLKMLLHM@?$AAh?$AAr@ 000000018002e7a8     libcpmt:winapinls.obj
 0002:000037b0       ??_C@_15CPKMFBDB@?$AAs?$AAk@ 000000018002e7b0     libcpmt:winapinls.obj
 0002:000037b8       ??_C@_15BAAIOGMK@?$AAs?$AAq@ 000000018002e7b8     libcpmt:winapinls.obj
 0002:000037c0       ??_C@_15INNPNOHD@?$AAs?$AAv@ 000000018002e7c0     libcpmt:winapinls.obj
 0002:000037c8       ??_C@_15CABMMOGH@?$AAt?$AAh@ 000000018002e7c8     libcpmt:winapinls.obj
 0002:000037d0       ??_C@_15BPLIHJJM@?$AAt?$AAr@ 000000018002e7d0     libcpmt:winapinls.obj
 0002:000037d8       ??_C@_15NEOEKKDJ@?$AAu?$AAr@ 000000018002e7d8     libcpmt:winapinls.obj
 0002:000037e0       ??_C@_15NFICGAJK@?$AAi?$AAd@ 000000018002e7e0     libcpmt:winapinls.obj
 0002:000037e8       ??_C@_15PJPFLCCM@?$AAu?$AAk@ 000000018002e7e8     libcpmt:winapinls.obj
 0002:000037f0       ??_C@_15HPJPHDM@?$AAb?$AAe@ 000000018002e7f0     libcpmt:winapinls.obj
 0002:000037f8       ??_C@_15LCHLGJII@?$AAs?$AAl@ 000000018002e7f8     libcpmt:winapinls.obj
 0002:00003800       ??_C@_15PCFJPHHO@?$AAe?$AAt@ 000000018002e800     libcpmt:winapinls.obj
 0002:00003808       ??_C@_15HPFPGODN@?$AAl?$AAv@ 000000018002e808     libcpmt:winapinls.obj
 0002:00003810       ??_C@_15NFFGKGLG@?$AAl?$AAt@ 000000018002e810     libcpmt:winapinls.obj
 0002:00003818       ??_C@_15BDAKCCHN@?$AAf?$AAa@ 000000018002e818     libcpmt:winapinls.obj
 0002:00003820       ??_C@_15NFGIAIAJ@?$AAv?$AAi@ 000000018002e820     libcpmt:winapinls.obj
 0002:00003828       ??_C@_15LMKNDMHN@?$AAh?$AAy@ 000000018002e828     libcpmt:winapinls.obj
 0002:00003830       ??_C@_15IJBHMCFL@?$AAa?$AAz@ 000000018002e830     libcpmt:winapinls.obj
 0002:00003838       ??_C@_15EKOFJABL@?$AAe?$AAu@ 000000018002e838     libcpmt:winapinls.obj
 0002:00003840       ??_C@_15BGHADCNK@?$AAm?$AAk@ 000000018002e840     libcpmt:winapinls.obj
 0002:00003848       ??_C@_15JDNICKHM@?$AAa?$AAf@ 000000018002e848     libcpmt:winapinls.obj
 0002:00003850       ??_C@_15KPJEDBKD@?$AAk?$AAa@ 000000018002e850     libcpmt:winapinls.obj
 0002:00003858       ??_C@_15PDNFFFEO@?$AAf?$AAo@ 000000018002e858     libcpmt:winapinls.obj
 0002:00003860       ??_C@_15OMLEGLOC@?$AAh?$AAi@ 000000018002e860     libcpmt:winapinls.obj
 0002:00003868       ??_C@_15IDNNENKK@?$AAm?$AAs@ 000000018002e868     libcpmt:winapinls.obj
 0002:00003870       ??_C@_15MACJNBMH@?$AAk?$AAk@ 000000018002e870     libcpmt:winapinls.obj
 0002:00003878       ??_C@_15DKDJEOND@?$AAk?$AAy@ 000000018002e878     libcpmt:winapinls.obj
 0002:00003880       ??_C@_15DFGDLJBG@?$AAs?$AAw@ 000000018002e880     libcpmt:winapinls.obj
 0002:00003888       ??_C@_15BBFAICNG@?$AAu?$AAz@ 000000018002e888     libcpmt:winapinls.obj
 0002:00003890       ??_C@_15DKNDCGEA@?$AAt?$AAt@ 000000018002e890     libcpmt:winapinls.obj
 0002:00003898       ??_C@_15MGIFMDPL@?$AAp?$AAa@ 000000018002e898     libcpmt:winapinls.obj
 0002:000038a0       ??_C@_15HCNDBBA@?$AAg?$AAu@ 000000018002e8a0     libcpmt:winapinls.obj
 0002:000038a8       ??_C@_15FNBEIBON@?$AAt?$AAa@ 000000018002e8a8     libcpmt:winapinls.obj
 0002:000038b0       ??_C@_15NCHGBGLK@?$AAt?$AAe@ 000000018002e8b0     libcpmt:winapinls.obj
 0002:000038b8       ??_C@_15PHPHCBPF@?$AAk?$AAn@ 000000018002e8b8     libcpmt:winapinls.obj
 0002:000038c0       ??_C@_15DLGBCKMP@?$AAm?$AAr@ 000000018002e8c0     libcpmt:winapinls.obj
 0002:000038c8       ??_C@_15EABBLBFF@?$AAs?$AAa@ 000000018002e8c8     libcpmt:winapinls.obj
 0002:000038d0       ??_C@_15CBKOMCOI@?$AAm?$AAn@ 000000018002e8d0     libcpmt:winapinls.obj
 0002:000038d8       ??_C@_15CKDMCJAF@?$AAg?$AAl@ 000000018002e8d8     libcpmt:winapinls.obj
 0002:000038e0       ??_C@_17CNJFBPG@?$AAk?$AAo?$AAk@ 000000018002e8e0     libcpmt:winapinls.obj
 0002:000038e8       ??_C@_17FFBJICPL@?$AAs?$AAy?$AAr@ 000000018002e8e8     libcpmt:winapinls.obj
 0002:000038f0       ??_C@_17KPNDCPAF@?$AAd?$AAi?$AAv@ 000000018002e8f0     libcpmt:winapinls.obj
 0002:000038f8       ??_C@_1M@OKAHONE@?$AAa?$AAr?$AA?9?$AAS?$AAA@ 000000018002e8f8     libcpmt:winapinls.obj
 0002:00003908       ??_C@_1M@FFFIGIGK@?$AAb?$AAg?$AA?9?$AAB?$AAG@ 000000018002e908     libcpmt:winapinls.obj
 0002:00003918       ??_C@_1M@BJNKEDC@?$AAc?$AAa?$AA?9?$AAE?$AAS@ 000000018002e918     libcpmt:winapinls.obj
 0002:00003928       ??_C@_1M@CLNBBOPM@?$AAz?$AAh?$AA?9?$AAT?$AAW@ 000000018002e928     libcpmt:winapinls.obj
 0002:00003938       ??_C@_1M@IJJHFJHA@?$AAc?$AAs?$AA?9?$AAC?$AAZ@ 000000018002e938     libcpmt:winapinls.obj
 0002:00003948       ??_C@_1M@CLPEOBGI@?$AAd?$AAa?$AA?9?$AAD?$AAK@ 000000018002e948     libcpmt:winapinls.obj
 0002:00003958       ??_C@_1M@MCMADGCB@?$AAd?$AAe?$AA?9?$AAD?$AAE@ 000000018002e958     libcpmt:winapinls.obj
 0002:00003968       ??_C@_1M@OOCKEMAM@?$AAe?$AAl?$AA?9?$AAG?$AAR@ 000000018002e968     libcpmt:winapinls.obj
 0002:00003978       ??_C@_1M@BMHNFIME@?$AAe?$AAn?$AA?9?$AAU?$AAS@ 000000018002e978     libcpmt:winapinls.obj
 0002:00003988       ??_C@_1M@DDNJFGID@?$AAf?$AAi?$AA?9?$AAF?$AAI@ 000000018002e988     libcpmt:winapinls.obj
 0002:00003998       ??_C@_1M@GLIPPMAC@?$AAf?$AAr?$AA?9?$AAF?$AAR@ 000000018002e998     libcpmt:winapinls.obj
 0002:000039a8       ??_C@_1M@GFMCHPE@?$AAh?$AAe?$AA?9?$AAI?$AAL@ 000000018002e9a8     libcpmt:winapinls.obj
 0002:000039b8       ??_C@_1M@MHLPGNKM@?$AAh?$AAu?$AA?9?$AAH?$AAU@ 000000018002e9b8     libcpmt:winapinls.obj
 0002:000039c8       ??_C@_1M@LPDDNNPN@?$AAi?$AAs?$AA?9?$AAI?$AAS@ 000000018002e9c8     libcpmt:winapinls.obj
 0002:000039d8       ??_C@_1M@MADIPODN@?$AAi?$AAt?$AA?9?$AAI?$AAT@ 000000018002e9d8     libcpmt:winapinls.obj
 0002:000039e8       ??_C@_1M@HPNHIDJI@?$AAj?$AAa?$AA?9?$AAJ?$AAP@ 000000018002e9e8     libcpmt:winapinls.obj
 0002:000039f8       ??_C@_1M@JLOOOEGK@?$AAk?$AAo?$AA?9?$AAK?$AAR@ 000000018002e9f8     libcpmt:winapinls.obj
 0002:00003a08       ??_C@_1M@IHBJJGG@?$AAn?$AAl?$AA?9?$AAN?$AAL@ 000000018002ea08     libcpmt:winapinls.obj
 0002:00003a18       ??_C@_1M@EANAGDL@?$AAn?$AAb?$AA?9?$AAN?$AAO@ 000000018002ea18     libcpmt:winapinls.obj
 0002:00003a28       ??_C@_1M@NEIEMEGP@?$AAp?$AAl?$AA?9?$AAP?$AAL@ 000000018002ea28     libcpmt:winapinls.obj
 0002:00003a38       ??_C@_1M@BOCFIGEP@?$AAp?$AAt?$AA?9?$AAB?$AAR@ 000000018002ea38     libcpmt:winapinls.obj
 0002:00003a48       ??_C@_1M@IMPFOPBG@?$AAr?$AAo?$AA?9?$AAR?$AAO@ 000000018002ea48     libcpmt:winapinls.obj
 0002:00003a58       ??_C@_1M@IDNNEJMM@?$AAr?$AAu?$AA?9?$AAR?$AAU@ 000000018002ea58     libcpmt:winapinls.obj
 0002:00003a68       ??_C@_1M@LILEEOGM@?$AAh?$AAr?$AA?9?$AAH?$AAR@ 000000018002ea68     libcpmt:winapinls.obj
 0002:00003a78       ??_C@_1M@FKIFEHPB@?$AAs?$AAk?$AA?9?$AAS?$AAK@ 000000018002ea78     libcpmt:winapinls.obj
 0002:00003a88       ??_C@_1M@LJMAMNPJ@?$AAs?$AAq?$AA?9?$AAA?$AAL@ 000000018002ea88     libcpmt:winapinls.obj
 0002:00003a98       ??_C@_1M@GIAKDKJK@?$AAs?$AAv?$AA?9?$AAS?$AAE@ 000000018002ea98     libcpmt:winapinls.obj
 0002:00003aa8       ??_C@_1M@MKJKIKCL@?$AAt?$AAh?$AA?9?$AAT?$AAH@ 000000018002eaa8     libcpmt:winapinls.obj
 0002:00003ab8       ??_C@_1M@MFLCCMPB@?$AAt?$AAr?$AA?9?$AAT?$AAR@ 000000018002eab8     libcpmt:winapinls.obj
 0002:00003ac8       ??_C@_1M@OIJHDKJN@?$AAu?$AAr?$AA?9?$AAP?$AAK@ 000000018002eac8     libcpmt:winapinls.obj
 0002:00003ad8       ??_C@_1M@LHIPCIEK@?$AAi?$AAd?$AA?9?$AAI?$AAD@ 000000018002ead8     libcpmt:winapinls.obj
 0002:00003ae8       ??_C@_1M@MFMOBGI@?$AAu?$AAk?$AA?9?$AAU?$AAA@ 000000018002eae8     libcpmt:winapinls.obj
 0002:00003af8       ??_C@_1M@OBGLJIPL@?$AAb?$AAe?$AA?9?$AAB?$AAY@ 000000018002eaf8     libcpmt:winapinls.obj
 0002:00003b08       ??_C@_1M@BCFAJEAD@?$AAs?$AAl?$AA?9?$AAS?$AAI@ 000000018002eb08     libcpmt:winapinls.obj
 0002:00003b18       ??_C@_1M@FKFFEDDN@?$AAe?$AAt?$AA?9?$AAE?$AAE@ 000000018002eb18     libcpmt:winapinls.obj
 0002:00003b28       ??_C@_1M@KGKKAACI@?$AAl?$AAv?$AA?9?$AAL?$AAV@ 000000018002eb28     libcpmt:winapinls.obj
 0002:00003b38       ??_C@_1M@IFGBIJO@?$AAl?$AAt?$AA?9?$AAL?$AAT@ 000000018002eb38     libcpmt:winapinls.obj
 0002:00003b48       ??_C@_1M@FGEAHEDM@?$AAf?$AAa?$AA?9?$AAI?$AAR@ 000000018002eb48     libcpmt:winapinls.obj
 0002:00003b58       ??_C@_1M@KBMAIBFN@?$AAv?$AAi?$AA?9?$AAV?$AAN@ 000000018002eb58     libcpmt:winapinls.obj
 0002:00003b68       ??_C@_1M@GPCBKDJK@?$AAh?$AAy?$AA?9?$AAA?$AAM@ 000000018002eb68     libcpmt:winapinls.obj
 0002:00003b78       ??_C@_1BG@BECMDDJB@?$AAa?$AAz?$AA?9?$AAA?$AAZ?$AA?9?$AAL?$AAa?$AAt?$AAn@ 000000018002eb78     libcpmt:winapinls.obj
 0002:00003b90       ??_C@_1M@MAOFCAEA@?$AAe?$AAu?$AA?9?$AAE?$AAS@ 000000018002eb90     libcpmt:winapinls.obj
 0002:00003ba0       ??_C@_1M@IGHABKPI@?$AAm?$AAk?$AA?9?$AAM?$AAK@ 000000018002eba0     libcpmt:winapinls.obj
 0002:00003bb0       ??_C@_1M@IAIGNEJG@?$AAt?$AAn?$AA?9?$AAZ?$AAA@ 000000018002ebb0     libcpmt:winapinls.obj
 0002:00003bc0       ??_C@_1M@IIJCOJFA@?$AAx?$AAh?$AA?9?$AAZ?$AAA@ 000000018002ebc0     libcpmt:winapinls.obj
 0002:00003bd0       ??_C@_1M@LGPJHNJH@?$AAz?$AAu?$AA?9?$AAZ?$AAA@ 000000018002ebd0     libcpmt:winapinls.obj
 0002:00003be0       ??_C@_1M@HOKAOIO@?$AAa?$AAf?$AA?9?$AAZ?$AAA@ 000000018002ebe0     libcpmt:winapinls.obj
 0002:00003bf0       ??_C@_1M@DPCLHLIE@?$AAk?$AAa?$AA?9?$AAG?$AAE@ 000000018002ebf0     libcpmt:winapinls.obj
 0002:00003c00       ??_C@_1M@BLKMHJBI@?$AAf?$AAo?$AA?9?$AAF?$AAO@ 000000018002ec00     libcpmt:winapinls.obj
 0002:00003c10       ??_C@_1M@LGGJAPPB@?$AAh?$AAi?$AA?9?$AAI?$AAN@ 000000018002ec10     libcpmt:winapinls.obj
 0002:00003c20       ??_C@_1M@FIKPIHFE@?$AAm?$AAt?$AA?9?$AAM?$AAT@ 000000018002ec20     libcpmt:winapinls.obj
 0002:00003c30       ??_C@_1M@HEGGPBFA@?$AAs?$AAe?$AA?9?$AAN?$AAO@ 000000018002ec30     libcpmt:winapinls.obj
 0002:00003c40       ??_C@_1M@EIBJEEPA@?$AAm?$AAs?$AA?9?$AAM?$AAY@ 000000018002ec40     libcpmt:winapinls.obj
 0002:00003c50       ??_C@_1M@FHLBGMPP@?$AAk?$AAk?$AA?9?$AAK?$AAZ@ 000000018002ec50     libcpmt:winapinls.obj
 0002:00003c60       ??_C@_1M@NGJJLCGI@?$AAk?$AAy?$AA?9?$AAK?$AAG@ 000000018002ec60     libcpmt:winapinls.obj
 0002:00003c70       ??_C@_1M@GIENNBFC@?$AAs?$AAw?$AA?9?$AAK?$AAE@ 000000018002ec70     libcpmt:winapinls.obj
 0002:00003c80       ??_C@_1BG@NDGMJIMJ@?$AAu?$AAz?$AA?9?$AAU?$AAZ?$AA?9?$AAL?$AAa?$AAt?$AAn@ 000000018002ec80     libcpmt:winapinls.obj
 0002:00003c98       ??_C@_1M@IDCCIHBC@?$AAt?$AAt?$AA?9?$AAR?$AAU@ 000000018002ec98     libcpmt:winapinls.obj
 0002:00003ca8       ??_C@_1M@LOICPMOJ@?$AAb?$AAn?$AA?9?$AAI?$AAN@ 000000018002eca8     libcpmt:winapinls.obj
 0002:00003cb8       ??_C@_1M@KPKKNEAH@?$AAp?$AAa?$AA?9?$AAI?$AAN@ 000000018002ecb8     libcpmt:winapinls.obj
 0002:00003cc8       ??_C@_1M@PJGPPBOG@?$AAg?$AAu?$AA?9?$AAI?$AAN@ 000000018002ecc8     libcpmt:winapinls.obj
 0002:00003cd8       ??_C@_1M@KMKMOPHI@?$AAt?$AAa?$AA?9?$AAI?$AAN@ 000000018002ecd8     libcpmt:winapinls.obj
 0002:00003ce8       ??_C@_1M@KFEHEPAC@?$AAt?$AAe?$AA?9?$AAI?$AAN@ 000000018002ece8     libcpmt:winapinls.obj
 0002:00003cf8       ??_C@_1M@CDCLMGHI@?$AAk?$AAn?$AA?9?$AAI?$AAN@ 000000018002ecf8     libcpmt:winapinls.obj
 0002:00003d08       ??_C@_1M@MIODLDKF@?$AAm?$AAl?$AA?9?$AAI?$AAN@ 000000018002ed08     libcpmt:winapinls.obj
 0002:00003d18       ??_C@_1M@PBIEACPO@?$AAm?$AAr?$AA?9?$AAI?$AAN@ 000000018002ed18     libcpmt:winapinls.obj
 0002:00003d28       ??_C@_1M@NIDEAGPH@?$AAs?$AAa?$AA?9?$AAI?$AAN@ 000000018002ed28     libcpmt:winapinls.obj
 0002:00003d38       ??_C@_1M@FHIHCBIO@?$AAm?$AAn?$AA?9?$AAM?$AAN@ 000000018002ed38     libcpmt:winapinls.obj
 0002:00003d48       ??_C@_1M@JAIJPENP@?$AAc?$AAy?$AA?9?$AAG?$AAB@ 000000018002ed48     libcpmt:winapinls.obj
 0002:00003d58       ??_C@_1M@PHGFBEPN@?$AAg?$AAl?$AA?9?$AAE?$AAS@ 000000018002ed58     libcpmt:winapinls.obj
 0002:00003d68       ??_C@_1O@KPIPDNCP@?$AAk?$AAo?$AAk?$AA?9?$AAI?$AAN@ 000000018002ed68     libcpmt:winapinls.obj
 0002:00003d78       ??_C@_1O@KNHJLDJA@?$AAs?$AAy?$AAr?$AA?9?$AAS?$AAY@ 000000018002ed78     libcpmt:winapinls.obj
 0002:00003d88       ??_C@_1O@MKEKBLAH@?$AAd?$AAi?$AAv?$AA?9?$AAM?$AAV@ 000000018002ed88     libcpmt:winapinls.obj
 0002:00003d98       ??_C@_1O@OHDCKDDF@?$AAq?$AAu?$AAz?$AA?9?$AAB?$AAO@ 000000018002ed98     libcpmt:winapinls.obj
 0002:00003da8       ??_C@_1M@LEPJNLFD@?$AAn?$AAs?$AA?9?$AAZ?$AAA@ 000000018002eda8     libcpmt:winapinls.obj
 0002:00003db8       ??_C@_1M@OMLEIIJB@?$AAm?$AAi?$AA?9?$AAN?$AAZ@ 000000018002edb8     libcpmt:winapinls.obj
 0002:00003dc8       ??_C@_1M@PMPEAILG@?$AAa?$AAr?$AA?9?$AAI?$AAQ@ 000000018002edc8     libcpmt:winapinls.obj
 0002:00003dd8       ??_C@_1M@BIBDDEMK@?$AAz?$AAh?$AA?9?$AAC?$AAN@ 000000018002edd8     libcpmt:winapinls.obj
 0002:00003de8       ??_C@_1M@CNKPNOEE@?$AAd?$AAe?$AA?9?$AAC?$AAH@ 000000018002ede8     libcpmt:winapinls.obj
 0002:00003df8       ??_C@_1M@LKMGMLKO@?$AAe?$AAn?$AA?9?$AAG?$AAB@ 000000018002edf8     libcpmt:winapinls.obj
 0002:00003e08       ??_C@_1M@PGKJFFGL@?$AAe?$AAs?$AA?9?$AAM?$AAX@ 000000018002ee08     libcpmt:winapinls.obj
 0002:00003e18       ??_C@_1M@DNNANBDC@?$AAf?$AAr?$AA?9?$AAB?$AAE@ 000000018002ee18     libcpmt:winapinls.obj
 0002:00003e28       ??_C@_1M@HLGMDFHM@?$AAi?$AAt?$AA?9?$AAC?$AAH@ 000000018002ee28     libcpmt:winapinls.obj
 0002:00003e38       ??_C@_1M@CLLBGJH@?$AAn?$AAl?$AA?9?$AAB?$AAE@ 000000018002ee38     libcpmt:winapinls.obj
 0002:00003e48       ??_C@_1M@BODBOGLF@?$AAn?$AAn?$AA?9?$AAN?$AAO@ 000000018002ee48     libcpmt:winapinls.obj
 0002:00003e58       ??_C@_1M@HFFAHKAD@?$AAp?$AAt?$AA?9?$AAP?$AAT@ 000000018002ee58     libcpmt:winapinls.obj
 0002:00003e68       ??_C@_1BG@LNOAKHIE@?$AAs?$AAr?$AA?9?$AAS?$AAP?$AA?9?$AAL?$AAa?$AAt?$AAn@ 000000018002ee68     libcpmt:winapinls.obj
 0002:00003e80       ??_C@_1M@HBMHBGAK@?$AAs?$AAv?$AA?9?$AAF?$AAI@ 000000018002ee80     libcpmt:winapinls.obj
 0002:00003e90       ??_C@_1BG@DGCJGJBE@?$AAa?$AAz?$AA?9?$AAA?$AAZ?$AA?9?$AAC?$AAy?$AAr?$AAl@ 000000018002ee90     libcpmt:winapinls.obj
 0002:00003ea8       ??_C@_1M@KEJDAAHB@?$AAs?$AAe?$AA?9?$AAS?$AAE@ 000000018002eea8     libcpmt:winapinls.obj
 0002:00003eb8       ??_C@_1M@HEIBJJAD@?$AAm?$AAs?$AA?9?$AAB?$AAN@ 000000018002eeb8     libcpmt:winapinls.obj
 0002:00003ec8       ??_C@_1BG@PBGJMCEM@?$AAu?$AAz?$AA?9?$AAU?$AAZ?$AA?9?$AAC?$AAy?$AAr?$AAl@ 000000018002eec8     libcpmt:winapinls.obj
 0002:00003ee0       ??_C@_1O@LAOBCMDF@?$AAq?$AAu?$AAz?$AA?9?$AAE?$AAC@ 000000018002eee0     libcpmt:winapinls.obj
 0002:00003ef0       ??_C@_1M@POEEMAIO@?$AAa?$AAr?$AA?9?$AAE?$AAG@ 000000018002eef0     libcpmt:winapinls.obj
 0002:00003f00       ??_C@_1M@EFAKDEDL@?$AAz?$AAh?$AA?9?$AAH?$AAK@ 000000018002ef00     libcpmt:winapinls.obj
 0002:00003f10       ??_C@_1M@HKKIJHGI@?$AAd?$AAe?$AA?9?$AAA?$AAT@ 000000018002ef10     libcpmt:winapinls.obj
 0002:00003f20       ??_C@_1M@KBFBEHJF@?$AAe?$AAn?$AA?9?$AAA?$AAU@ 000000018002ef20     libcpmt:winapinls.obj
 0002:00003f30       ??_C@_1M@MNPLFAAH@?$AAe?$AAs?$AA?9?$AAE?$AAS@ 000000018002ef30     libcpmt:winapinls.obj
 0002:00003f40       ??_C@_1M@HJOOJFMA@?$AAf?$AAr?$AA?9?$AAC?$AAA@ 000000018002ef40     libcpmt:winapinls.obj
 0002:00003f50       ??_C@_1BG@JPOFPNAB@?$AAs?$AAr?$AA?9?$AAS?$AAP?$AA?9?$AAC?$AAy?$AAr?$AAl@ 000000018002ef50     libcpmt:winapinls.obj
 0002:00003f68       ??_C@_1M@LNFOCMOB@?$AAs?$AAe?$AA?9?$AAF?$AAI@ 000000018002ef68     libcpmt:winapinls.obj
 0002:00003f78       ??_C@_1O@MGJBOAMB@?$AAq?$AAu?$AAz?$AA?9?$AAP?$AAE@ 000000018002ef78     libcpmt:winapinls.obj
 0002:00003f88       ??_C@_1M@GJINLBOK@?$AAa?$AAr?$AA?9?$AAL?$AAY@ 000000018002ef88     libcpmt:winapinls.obj
 0002:00003f98       ??_C@_1M@GGMNHJNL@?$AAz?$AAh?$AA?9?$AAS?$AAG@ 000000018002ef98     libcpmt:winapinls.obj
 0002:00003fa8       ??_C@_1M@HOIKODND@?$AAd?$AAe?$AA?9?$AAL?$AAU@ 000000018002efa8     libcpmt:winapinls.obj
 0002:00003fb8       ??_C@_1M@DDOCCGFG@?$AAe?$AAn?$AA?9?$AAC?$AAA@ 000000018002efb8     libcpmt:winapinls.obj
 0002:00003fc8       ??_C@_1M@BNOEMJLF@?$AAe?$AAs?$AA?9?$AAG?$AAT@ 000000018002efc8     libcpmt:winapinls.obj
 0002:00003fd8       ??_C@_1M@EOGNKEK@?$AAf?$AAr?$AA?9?$AAC?$AAH@ 000000018002efd8     libcpmt:winapinls.obj
 0002:00003fe8       ??_C@_1M@FLIDJFHL@?$AAh?$AAr?$AA?9?$AAB?$AAA@ 000000018002efe8     libcpmt:winapinls.obj
 0002:00003ff8       ??_C@_1O@FMCELNAJ@?$AAs?$AAm?$AAj?$AA?9?$AAN?$AAO@ 000000018002eff8     libcpmt:winapinls.obj
 0002:00004008       ??_C@_1M@JHGLJMGJ@?$AAa?$AAr?$AA?9?$AAD?$AAZ@ 000000018002f008     libcpmt:winapinls.obj
 0002:00004018       ??_C@_1M@JKKFDCNP@?$AAz?$AAh?$AA?9?$AAM?$AAO@ 000000018002f018     libcpmt:winapinls.obj
 0002:00004028       ??_C@_1M@GEEFALPE@?$AAd?$AAe?$AA?9?$AAL?$AAI@ 000000018002f028     libcpmt:winapinls.obj
 0002:00004038       ??_C@_1M@IGEOFBG@?$AAe?$AAn?$AA?9?$AAN?$AAZ@ 000000018002f038     libcpmt:winapinls.obj
 0002:00004048       ??_C@_1M@KDBONEHP@?$AAe?$AAs?$AA?9?$AAC?$AAR@ 000000018002f048     libcpmt:winapinls.obj
 0002:00004058       ??_C@_1M@FHMDOHNN@?$AAf?$AAr?$AA?9?$AAL?$AAU@ 000000018002f058     libcpmt:winapinls.obj
 0002:00004068       ??_C@_1BG@NFKKMAFG@?$AAb?$AAs?$AA?9?$AAB?$AAA?$AA?9?$AAL?$AAa?$AAt?$AAn@ 000000018002f068     libcpmt:winapinls.obj
 0002:00004080       ??_C@_1O@IMNBEMCI@?$AAs?$AAm?$AAj?$AA?9?$AAS?$AAE@ 000000018002f080     libcpmt:winapinls.obj
 0002:00004090       ??_C@_1M@DHHMBNDP@?$AAa?$AAr?$AA?9?$AAM?$AAA@ 000000018002f090     libcpmt:winapinls.obj
 0002:000040a0       ??_C@_1M@BNBLJCGH@?$AAe?$AAn?$AA?9?$AAI?$AAE@ 000000018002f0a0     libcpmt:winapinls.obj
 0002:000040b0       ??_C@_1M@GEPAFMDL@?$AAe?$AAs?$AA?9?$AAP?$AAA@ 000000018002f0b0     libcpmt:winapinls.obj
 0002:000040c0       ??_C@_1M@OJONDMDL@?$AAf?$AAr?$AA?9?$AAM?$AAC@ 000000018002f0c0     libcpmt:winapinls.obj
 0002:000040d0       ??_C@_1BG@OBCNFJB@?$AAs?$AAr?$AA?9?$AAB?$AAA?$AA?9?$AAL?$AAa?$AAt?$AAn@ 000000018002f0d0     libcpmt:winapinls.obj
 0002:000040e8       ??_C@_1O@KEMEEGPO@?$AAs?$AAm?$AAa?$AA?9?$AAN?$AAO@ 000000018002f0e8     libcpmt:winapinls.obj
 0002:000040f8       ??_C@_1M@ELMGFODK@?$AAa?$AAr?$AA?9?$AAT?$AAN@ 000000018002f0f8     libcpmt:winapinls.obj
 0002:00004108       ??_C@_1M@BHDLHFAF@?$AAe?$AAn?$AA?9?$AAZ?$AAA@ 000000018002f108     libcpmt:winapinls.obj
 0002:00004118       ??_C@_1M@BMGIGLIF@?$AAe?$AAs?$AA?9?$AAD?$AAO@ 000000018002f118     libcpmt:winapinls.obj
 0002:00004128       ??_C@_1BG@CMBHIPBE@?$AAs?$AAr?$AA?9?$AAB?$AAA?$AA?9?$AAC?$AAy?$AAr?$AAl@ 000000018002f128     libcpmt:winapinls.obj
 0002:00004140       ??_C@_1O@HEDBLHNP@?$AAs?$AAm?$AAa?$AA?9?$AAS?$AAE@ 000000018002f140     libcpmt:winapinls.obj
 0002:00004150       ??_C@_1M@DAGCADIM@?$AAa?$AAr?$AA?9?$AAO?$AAM@ 000000018002f150     libcpmt:winapinls.obj
 0002:00004160       ??_C@_1M@FODLMICG@?$AAe?$AAn?$AA?9?$AAJ?$AAM@ 000000018002f160     libcpmt:winapinls.obj
 0002:00004170       ??_C@_1M@DNMLCIHB@?$AAe?$AAs?$AA?9?$AAV?$AAE@ 000000018002f170     libcpmt:winapinls.obj
 0002:00004180       ??_C@_1O@EOKHMKJK@?$AAs?$AAm?$AAs?$AA?9?$AAF?$AAI@ 000000018002f180     libcpmt:winapinls.obj
 0002:00004190       ??_C@_1M@CAFJMKOF@?$AAa?$AAr?$AA?9?$AAY?$AAE@ 000000018002f190     libcpmt:winapinls.obj
 0002:000041a0       ??_C@_1M@CBFHIJLI@?$AAe?$AAn?$AA?9?$AAC?$AAB@ 000000018002f1a0     libcpmt:winapinls.obj
 0002:000041b0       ??_C@_1M@BGNFLDN@?$AAe?$AAs?$AA?9?$AAC?$AAO@ 000000018002f1b0     libcpmt:winapinls.obj
 0002:000041c0       ??_C@_1O@JMPHMAMC@?$AAs?$AAm?$AAn?$AA?9?$AAF?$AAI@ 000000018002f1c0     libcpmt:winapinls.obj
 0002:000041d0       ??_C@_1M@JLANABKE@?$AAa?$AAr?$AA?9?$AAS?$AAY@ 000000018002f1d0     libcpmt:winapinls.obj
 0002:000041e0       ??_C@_1M@HPKGCFGN@?$AAe?$AAn?$AA?9?$AAB?$AAZ@ 000000018002f1e0     libcpmt:winapinls.obj
 0002:000041f0       ??_C@_1M@OLJCMLGM@?$AAe?$AAs?$AA?9?$AAP?$AAE@ 000000018002f1f0     libcpmt:winapinls.obj
 0002:00004200       ??_C@_1M@MKKGFKLE@?$AAa?$AAr?$AA?9?$AAJ?$AAO@ 000000018002f200     libcpmt:winapinls.obj
 0002:00004210       ??_C@_1M@EKPGLDNI@?$AAe?$AAn?$AA?9?$AAT?$AAT@ 000000018002f210     libcpmt:winapinls.obj
 0002:00004220       ??_C@_1M@OONGHFHE@?$AAe?$AAs?$AA?9?$AAA?$AAR@ 000000018002f220     libcpmt:winapinls.obj
 0002:00004230       ??_C@_1M@OOJFGBHE@?$AAa?$AAr?$AA?9?$AAL?$AAB@ 000000018002f230     libcpmt:winapinls.obj
 0002:00004240       ??_C@_1M@GCEJHNEG@?$AAe?$AAn?$AA?9?$AAZ?$AAW@ 000000018002f240     libcpmt:winapinls.obj
 0002:00004250       ??_C@_1M@JNOCAHJI@?$AAe?$AAs?$AA?9?$AAE?$AAC@ 000000018002f250     libcpmt:winapinls.obj
 0002:00004260       ??_C@_1M@JEFHPGGB@?$AAa?$AAr?$AA?9?$AAK?$AAW@ 000000018002f260     libcpmt:winapinls.obj
 0002:00004270       ??_C@_1M@MLKIBJOJ@?$AAe?$AAn?$AA?9?$AAP?$AAH@ 000000018002f270     libcpmt:winapinls.obj
 0002:00004280       ??_C@_1M@BDNIPEND@?$AAe?$AAs?$AA?9?$AAC?$AAL@ 000000018002f280     libcpmt:winapinls.obj
 0002:00004290       ??_C@_1M@MPNMEKBD@?$AAa?$AAr?$AA?9?$AAA?$AAE@ 000000018002f290     libcpmt:winapinls.obj
 0002:000042a0       ??_C@_1M@KBJALCPI@?$AAe?$AAs?$AA?9?$AAU?$AAY@ 000000018002f2a0     libcpmt:winapinls.obj
 0002:000042b0       ??_C@_1M@LLCCOAGA@?$AAa?$AAr?$AA?9?$AAB?$AAH@ 000000018002f2b0     libcpmt:winapinls.obj
 0002:000042c0       ??_C@_1M@PBFNCDEL@?$AAe?$AAs?$AA?9?$AAP?$AAY@ 000000018002f2c0     libcpmt:winapinls.obj
 0002:000042d0       ??_C@_1M@EDGINPNP@?$AAa?$AAr?$AA?9?$AAQ?$AAA@ 000000018002f2d0     libcpmt:winapinls.obj
 0002:000042e0       ??_C@_1M@MKDBIIJI@?$AAe?$AAs?$AA?9?$AAB?$AAO@ 000000018002f2e0     libcpmt:winapinls.obj
 0002:000042f0       ??_C@_1M@CPKKEBLD@?$AAe?$AAs?$AA?9?$AAS?$AAV@ 000000018002f2f0     libcpmt:winapinls.obj
 0002:00004300       ??_C@_1M@NDBGMMJL@?$AAe?$AAs?$AA?9?$AAH?$AAN@ 000000018002f300     libcpmt:winapinls.obj
 0002:00004310       ??_C@_1M@JIJIBHDP@?$AAe?$AAs?$AA?9?$AAN?$AAI@ 000000018002f310     libcpmt:winapinls.obj
 0002:00004320       ??_C@_1M@CGFMKEEK@?$AAe?$AAs?$AA?9?$AAP?$AAR@ 000000018002f320     libcpmt:winapinls.obj
 0002:00004330       ??_C@_1O@ICJHKIIK@?$AAz?$AAh?$AA?9?$AAC?$AAH?$AAT@ 000000018002f330     libcpmt:winapinls.obj
 0002:00004340       ??_C@_15CLNEJCE@?$AAs?$AAr@ 000000018002f340     libcpmt:winapinls.obj
 0002:00004348       ??_C@_1M@KAHEKEIG@?$AAa?$AAf?$AA?9?$AAz?$AAa@ 000000018002f348     libcpmt:winapinls.obj
 0002:00004358       ??_C@_1M@GIECOABL@?$AAa?$AAr?$AA?9?$AAa?$AAe@ 000000018002f358     libcpmt:winapinls.obj
 0002:00004368       ??_C@_1M@BMLMEKGI@?$AAa?$AAr?$AA?9?$AAb?$AAh@ 000000018002f368     libcpmt:winapinls.obj
 0002:00004378       ??_C@_1M@DAPFDGGB@?$AAa?$AAr?$AA?9?$AAd?$AAz@ 000000018002f378     libcpmt:winapinls.obj
 0002:00004388       ??_C@_1M@FJNKGKIG@?$AAa?$AAr?$AA?9?$AAe?$AAg@ 000000018002f388     libcpmt:winapinls.obj
 0002:00004398       ??_C@_1M@FLGKKCLO@?$AAa?$AAr?$AA?9?$AAi?$AAq@ 000000018002f398     libcpmt:winapinls.obj
 0002:000043a8       ??_C@_1M@GNDIPALM@?$AAa?$AAr?$AA?9?$AAj?$AAo@ 000000018002f3a8     libcpmt:winapinls.obj
 0002:000043b8       ??_C@_1M@DDMJFMGJ@?$AAa?$AAr?$AA?9?$AAk?$AAw@ 000000018002f3b8     libcpmt:winapinls.obj
 0002:000043c8       ??_C@_1M@EJALMLHM@?$AAa?$AAr?$AA?9?$AAl?$AAb@ 000000018002f3c8     libcpmt:winapinls.obj
 0002:000043d8       ??_C@_1M@MOBDBLOC@?$AAa?$AAr?$AA?9?$AAl?$AAy@ 000000018002f3d8     libcpmt:winapinls.obj
 0002:000043e8       ??_C@_1M@JAOCLHDH@?$AAa?$AAr?$AA?9?$AAm?$AAa@ 000000018002f3e8     libcpmt:winapinls.obj
 0002:000043f8       ??_C@_1M@JHPMKJIE@?$AAa?$AAr?$AA?9?$AAo?$AAm@ 000000018002f3f8     libcpmt:winapinls.obj
 0002:00004408       ??_C@_1M@OEPGHFNH@?$AAa?$AAr?$AA?9?$AAq?$AAa@ 000000018002f408     libcpmt:winapinls.obj
 0002:00004418       ??_C@_1M@KJDONENM@?$AAa?$AAr?$AA?9?$AAs?$AAa@ 000000018002f418     libcpmt:winapinls.obj
 0002:00004428       ??_C@_1M@DMJDKLKM@?$AAa?$AAr?$AA?9?$AAs?$AAy@ 000000018002f428     libcpmt:winapinls.obj
 0002:00004438       ??_C@_1M@OMFIPEDC@?$AAa?$AAr?$AA?9?$AAt?$AAn@ 000000018002f438     libcpmt:winapinls.obj
 0002:00004448       ??_C@_1M@IHMHGAON@?$AAa?$AAr?$AA?9?$AAy?$AAe@ 000000018002f448     libcpmt:winapinls.obj
 0002:00004458       ??_C@_1BG@KDCPGJGB@?$AAa?$AAz?$AA?9?$AAa?$AAz?$AA?9?$AAc?$AAy?$AAr?$AAl@ 000000018002f458     libcpmt:winapinls.obj
 0002:00004470       ??_C@_1BG@IBCKDDOE@?$AAa?$AAz?$AA?9?$AAa?$AAz?$AA?9?$AAl?$AAa?$AAt?$AAn@ 000000018002f470     libcpmt:winapinls.obj
 0002:00004488       ??_C@_1M@EGPFDCPD@?$AAb?$AAe?$AA?9?$AAb?$AAy@ 000000018002f488     libcpmt:winapinls.obj
 0002:00004498       ??_C@_1M@PCMGMCGC@?$AAb?$AAg?$AA?9?$AAb?$AAg@ 000000018002f498     libcpmt:winapinls.obj
 0002:000044a8       ??_C@_1M@BJBMFGOB@?$AAb?$AAn?$AA?9?$AAi?$AAn@ 000000018002f4a8     libcpmt:winapinls.obj
 0002:000044b8       ??_C@_1BG@EAKMMACD@?$AAb?$AAs?$AA?9?$AAb?$AAa?$AA?9?$AAl?$AAa?$AAt?$AAn@ 000000018002f4b8     libcpmt:winapinls.obj
 0002:000044d0       ??_C@_1M@KGADAODK@?$AAc?$AAa?$AA?9?$AAe?$AAs@ 000000018002f4d0     libcpmt:winapinls.obj
 0002:000044e0       ??_C@_1M@COAJPDHI@?$AAc?$AAs?$AA?9?$AAc?$AAz@ 000000018002f4e0     libcpmt:winapinls.obj
 0002:000044f0       ??_C@_1M@DHBHFONH@?$AAc?$AAy?$AA?9?$AAg?$AAb@ 000000018002f4f0     libcpmt:winapinls.obj
 0002:00004500       ??_C@_1M@IMGKELGA@?$AAd?$AAa?$AA?9?$AAd?$AAk@ 000000018002f500     libcpmt:winapinls.obj
 0002:00004510       ??_C@_1M@NNDGDNGA@?$AAd?$AAe?$AA?9?$AAa?$AAt@ 000000018002f510     libcpmt:winapinls.obj
 0002:00004520       ??_C@_1M@IKDBHEEM@?$AAd?$AAe?$AA?9?$AAc?$AAh@ 000000018002f520     libcpmt:winapinls.obj
 0002:00004530       ??_C@_1M@GFFOJMCJ@?$AAd?$AAe?$AA?9?$AAd?$AAe@ 000000018002f530     libcpmt:winapinls.obj
 0002:00004540       ??_C@_1M@MDNLKBPM@?$AAd?$AAe?$AA?9?$AAl?$AAi@ 000000018002f540     libcpmt:winapinls.obj
 0002:00004550       ??_C@_1M@NJBEEJNL@?$AAd?$AAe?$AA?9?$AAl?$AAu@ 000000018002f550     libcpmt:winapinls.obj
 0002:00004560       ??_C@_1O@GNNELBAP@?$AAd?$AAi?$AAv?$AA?9?$AAm?$AAv@ 000000018002f560     libcpmt:winapinls.obj
 0002:00004570       ??_C@_1M@EJLEOGAE@?$AAe?$AAl?$AA?9?$AAg?$AAr@ 000000018002f570     libcpmt:winapinls.obj
 0002:00004580       ??_C@_1M@GMPONJN@?$AAe?$AAn?$AA?9?$AAa?$AAu@ 000000018002f580     libcpmt:winapinls.obj
 0002:00004590       ??_C@_1M@NIDIIPGF@?$AAe?$AAn?$AA?9?$AAb?$AAz@ 000000018002f590     libcpmt:winapinls.obj
 0002:000045a0       ??_C@_1M@JEHMIMFO@?$AAe?$AAn?$AA?9?$AAc?$AAa@ 000000018002f5a0     libcpmt:winapinls.obj
 0002:000045b0       ??_C@_1M@IGMJCDLA@?$AAe?$AAn?$AA?9?$AAc?$AAb@ 000000018002f5b0     libcpmt:winapinls.obj
 0002:000045c0       ??_C@_1M@BNFIGBKG@?$AAe?$AAn?$AA?9?$AAg?$AAb@ 000000018002f5c0     libcpmt:winapinls.obj
 0002:000045d0       ??_C@_1M@LKIFDIGP@?$AAe?$AAn?$AA?9?$AAi?$AAe@ 000000018002f5d0     libcpmt:winapinls.obj
 0002:000045e0       ??_C@_1M@PJKFGCCO@?$AAe?$AAn?$AA?9?$AAj?$AAm@ 000000018002f5e0     libcpmt:winapinls.obj
 0002:000045f0       ??_C@_1M@KPPKEPBO@?$AAe?$AAn?$AA?9?$AAn?$AAz@ 000000018002f5f0     libcpmt:winapinls.obj
 0002:00004600       ??_C@_1M@GMDGLDOB@?$AAe?$AAn?$AA?9?$AAp?$AAh@ 000000018002f600     libcpmt:winapinls.obj
 0002:00004610       ??_C@_1M@ONGIBJNA@?$AAe?$AAn?$AA?9?$AAt?$AAt@ 000000018002f610     libcpmt:winapinls.obj
 0002:00004620       ??_C@_1M@LLODPCMM@?$AAe?$AAn?$AA?9?$AAu?$AAs@ 000000018002f620     libcpmt:winapinls.obj
 0002:00004630       ??_C@_1M@LAKFNPAN@?$AAe?$AAn?$AA?9?$AAz?$AAa@ 000000018002f630     libcpmt:winapinls.obj
 0002:00004640       ??_C@_1M@MFNHNHEO@?$AAe?$AAn?$AA?9?$AAz?$AAw@ 000000018002f640     libcpmt:winapinls.obj
 0002:00004650       ??_C@_1M@EJEINPHM@?$AAe?$AAs?$AA?9?$AAa?$AAr@ 000000018002f650     libcpmt:winapinls.obj
 0002:00004660       ??_C@_1M@GNKPCCJA@?$AAe?$AAs?$AA?9?$AAb?$AAo@ 000000018002f660     libcpmt:winapinls.obj
 0002:00004670       ??_C@_1M@LEEGFONL@?$AAe?$AAs?$AA?9?$AAc?$AAl@ 000000018002f670     libcpmt:winapinls.obj
 0002:00004680       ??_C@_1M@KGPDPBDF@?$AAe?$AAs?$AA?9?$AAc?$AAo@ 000000018002f680     libcpmt:winapinls.obj
 0002:00004690       ??_C@_1M@EIAHOHH@?$AAe?$AAs?$AA?9?$AAc?$AAr@ 000000018002f690     libcpmt:winapinls.obj
 0002:000046a0       ??_C@_1M@LLPGMBIN@?$AAe?$AAs?$AA?9?$AAd?$AAo@ 000000018002f6a0     libcpmt:winapinls.obj
 0002:000046b0       ??_C@_1M@DKHMKNJA@?$AAe?$AAs?$AA?9?$AAe?$AAc@ 000000018002f6b0     libcpmt:winapinls.obj
 0002:000046c0       ??_C@_1M@GKGFPKAP@?$AAe?$AAs?$AA?9?$AAe?$AAs@ 000000018002f6c0     libcpmt:winapinls.obj
 0002:000046d0       ??_C@_1M@LKHKGDLN@?$AAe?$AAs?$AA?9?$AAg?$AAt@ 000000018002f6d0     libcpmt:winapinls.obj
 0002:000046e0       ??_C@_1M@HEIIGGJD@?$AAe?$AAs?$AA?9?$AAh?$AAn@ 000000018002f6e0     libcpmt:winapinls.obj
 0002:000046f0       ??_C@_1M@FBDHPPGD@?$AAe?$AAs?$AA?9?$AAm?$AAx@ 000000018002f6f0     libcpmt:winapinls.obj
 0002:00004700       ??_C@_1M@DPAGLNDH@?$AAe?$AAs?$AA?9?$AAn?$AAi@ 000000018002f700     libcpmt:winapinls.obj
 0002:00004710       ??_C@_1M@MDGOPGDD@?$AAe?$AAs?$AA?9?$AAp?$AAa@ 000000018002f710     libcpmt:winapinls.obj
 0002:00004720       ??_C@_1M@EMAMGBGE@?$AAe?$AAs?$AA?9?$AAp?$AAe@ 000000018002f720     libcpmt:winapinls.obj
 0002:00004730       ??_C@_1M@IBMCAOEC@?$AAe?$AAs?$AA?9?$AAp?$AAr@ 000000018002f730     libcpmt:winapinls.obj
 0002:00004740       ??_C@_1M@FGMDIJED@?$AAe?$AAs?$AA?9?$AAp?$AAy@ 000000018002f740     libcpmt:winapinls.obj
 0002:00004750       ??_C@_1M@IIDEOLLL@?$AAe?$AAs?$AA?9?$AAs?$AAv@ 000000018002f750     libcpmt:winapinls.obj
 0002:00004760       ??_C@_1M@GAOBIPA@?$AAe?$AAs?$AA?9?$AAu?$AAy@ 000000018002f760     libcpmt:winapinls.obj
 0002:00004770       ??_C@_1M@JKFFICHJ@?$AAe?$AAs?$AA?9?$AAv?$AAe@ 000000018002f770     libcpmt:winapinls.obj
 0002:00004780       ??_C@_1M@PNMLOJDF@?$AAe?$AAt?$AA?9?$AAe?$AAe@ 000000018002f780     libcpmt:winapinls.obj
 0002:00004790       ??_C@_1M@GHHLIKEI@?$AAe?$AAu?$AA?9?$AAe?$AAs@ 000000018002f790     libcpmt:winapinls.obj
 0002:000047a0       ??_C@_1M@PBNONODE@?$AAf?$AAa?$AA?9?$AAi?$AAr@ 000000018002f7a0     libcpmt:winapinls.obj
 0002:000047b0       ??_C@_1M@JEEHPMIL@?$AAf?$AAi?$AA?9?$AAf?$AAi@ 000000018002f7b0     libcpmt:winapinls.obj
 0002:000047c0       ??_C@_1M@LMDCNDBA@?$AAf?$AAo?$AA?9?$AAf?$AAo@ 000000018002f7c0     libcpmt:winapinls.obj
 0002:000047d0       ??_C@_1M@JKEOHLDK@?$AAf?$AAr?$AA?9?$AAb?$AAe@ 000000018002f7d0     libcpmt:winapinls.obj
 0002:000047e0       ??_C@_1M@NOHADPMI@?$AAf?$AAr?$AA?9?$AAc?$AAa@ 000000018002f7e0     libcpmt:winapinls.obj
 0002:000047f0       ??_C@_1M@KDHIHAEC@?$AAf?$AAr?$AA?9?$AAc?$AAh@ 000000018002f7f0     libcpmt:winapinls.obj
 0002:00004800       ??_C@_1M@MMBBFGAK@?$AAf?$AAr?$AA?9?$AAf?$AAr@ 000000018002f800     libcpmt:winapinls.obj
 0002:00004810       ??_C@_1M@PAFNENNF@?$AAf?$AAr?$AA?9?$AAl?$AAu@ 000000018002f810     libcpmt:winapinls.obj
 0002:00004820       ??_C@_1M@EOHDJGDD@?$AAf?$AAr?$AA?9?$AAm?$AAc@ 000000018002f820     libcpmt:winapinls.obj
 0002:00004830       ??_C@_1M@FAPLLOPF@?$AAg?$AAl?$AA?9?$AAe?$AAs@ 000000018002f830     libcpmt:winapinls.obj
 0002:00004840       ??_C@_1M@FOPBFLOO@?$AAg?$AAu?$AA?9?$AAi?$AAn@ 000000018002f840     libcpmt:winapinls.obj
 0002:00004850       ??_C@_1M@KBMCINPM@?$AAh?$AAe?$AA?9?$AAi?$AAl@ 000000018002f850     libcpmt:winapinls.obj
 0002:00004860       ??_C@_1M@BBPHKFPJ@?$AAh?$AAi?$AA?9?$AAi?$AAn@ 000000018002f860     libcpmt:winapinls.obj
 0002:00004870       ??_C@_1M@PMBNDPHD@?$AAh?$AAr?$AA?9?$AAb?$AAa@ 000000018002f870     libcpmt:winapinls.obj
 0002:00004880       ??_C@_1M@BPCKOEGE@?$AAh?$AAr?$AA?9?$AAh?$AAr@ 000000018002f880     libcpmt:winapinls.obj
 0002:00004890       ??_C@_1M@GACBMHKE@?$AAh?$AAu?$AA?9?$AAh?$AAu@ 000000018002f890     libcpmt:winapinls.obj
 0002:000048a0       ??_C@_1M@MILPAJJC@?$AAh?$AAy?$AA?9?$AAa?$AAm@ 000000018002f8a0     libcpmt:winapinls.obj
 0002:000048b0       ??_C@_1M@BABBICEC@?$AAi?$AAd?$AA?9?$AAi?$AAd@ 000000018002f8b0     libcpmt:winapinls.obj
 0002:000048c0       ??_C@_1M@BIKNHHPF@?$AAi?$AAs?$AA?9?$AAi?$AAs@ 000000018002f8c0     libcpmt:winapinls.obj
 0002:000048d0       ??_C@_1M@NMPCJPHE@?$AAi?$AAt?$AA?9?$AAc?$AAh@ 000000018002f8d0     libcpmt:winapinls.obj
 0002:000048e0       ??_C@_1M@GHKGFEDF@?$AAi?$AAt?$AA?9?$AAi?$AAt@ 000000018002f8e0     libcpmt:winapinls.obj
 0002:000048f0       ??_C@_1M@NIEJCJJA@?$AAj?$AAa?$AA?9?$AAj?$AAp@ 000000018002f8f0     libcpmt:winapinls.obj
 0002:00004900       ??_C@_1M@JILFNBIM@?$AAk?$AAa?$AA?9?$AAg?$AAe@ 000000018002f900     libcpmt:winapinls.obj
 0002:00004910       ??_C@_1M@PACPMGPH@?$AAk?$AAk?$AA?9?$AAk?$AAz@ 000000018002f910     libcpmt:winapinls.obj
 0002:00004920       ??_C@_1M@IELFGMHA@?$AAk?$AAn?$AA?9?$AAi?$AAn@ 000000018002f920     libcpmt:winapinls.obj
 0002:00004930       ??_C@_1M@DMHAEOGC@?$AAk?$AAo?$AA?9?$AAk?$AAr@ 000000018002f930     libcpmt:winapinls.obj
 0002:00004940       ??_C@_1O@IBBJHCH@?$AAk?$AAo?$AAk?$AA?9?$AAi?$AAn@ 000000018002f940     libcpmt:winapinls.obj
 0002:00004950       ??_C@_1M@HBAHBIGA@?$AAk?$AAy?$AA?9?$AAk?$AAg@ 000000018002f950     libcpmt:winapinls.obj
 0002:00004960       ??_C@_1M@KPMILCJG@?$AAl?$AAt?$AA?9?$AAl?$AAt@ 000000018002f960     libcpmt:winapinls.obj
 0002:00004970       ??_C@_1M@BDEKKCA@?$AAl?$AAv?$AA?9?$AAl?$AAv@ 000000018002f970     libcpmt:winapinls.obj
 0002:00004980       ??_C@_1M@ELCKCCJJ@?$AAm?$AAi?$AA?9?$AAn?$AAz@ 000000018002f980     libcpmt:winapinls.obj
 0002:00004990       ??_C@_1M@CBOOLAPA@?$AAm?$AAk?$AA?9?$AAm?$AAk@ 000000018002f990     libcpmt:winapinls.obj
 0002:000049a0       ??_C@_1M@GPHNBJKN@?$AAm?$AAl?$AA?9?$AAi?$AAn@ 000000018002f9a0     libcpmt:winapinls.obj
 0002:000049b0       ??_C@_1M@PABJILIG@?$AAm?$AAn?$AA?9?$AAm?$AAn@ 000000018002f9b0     libcpmt:winapinls.obj
 0002:000049c0       ??_C@_1M@FGBKKIPG@?$AAm?$AAr?$AA?9?$AAi?$AAn@ 000000018002f9c0     libcpmt:winapinls.obj
 0002:000049d0       ??_C@_1M@NDBPDDAL@?$AAm?$AAs?$AA?9?$AAb?$AAn@ 000000018002f9d0     libcpmt:winapinls.obj
 0002:000049e0       ??_C@_1M@OPIHOOPI@?$AAm?$AAs?$AA?9?$AAm?$AAy@ 000000018002f9e0     libcpmt:winapinls.obj
 0002:000049f0       ??_C@_1M@PPDBCNFM@?$AAm?$AAt?$AA?9?$AAm?$AAt@ 000000018002f9f0     libcpmt:winapinls.obj
 0002:00004a00       ??_C@_1M@KDJDKMDD@?$AAn?$AAb?$AA?9?$AAn?$AAo@ 000000018002fa00     libcpmt:winapinls.obj
 0002:00004a10       ??_C@_1M@KFCFLMJP@?$AAn?$AAl?$AA?9?$AAb?$AAe@ 000000018002fa10     libcpmt:winapinls.obj
 0002:00004a20       ??_C@_1M@KPOPDDGO@?$AAn?$AAl?$AA?9?$AAn?$AAl@ 000000018002fa20     libcpmt:winapinls.obj
 0002:00004a30       ??_C@_1M@LJKPEMLN@?$AAn?$AAn?$AA?9?$AAn?$AAo@ 000000018002fa30     libcpmt:winapinls.obj
 0002:00004a40       ??_C@_1M@BDGHHBFL@?$AAn?$AAs?$AA?9?$AAz?$AAa@ 000000018002fa40     libcpmt:winapinls.obj
 0002:00004a50       ??_C@_1M@IDEHOAP@?$AAp?$AAa?$AA?9?$AAi?$AAn@ 000000018002fa50     libcpmt:winapinls.obj
 0002:00004a60       ??_C@_1M@HDBKGOGH@?$AAp?$AAl?$AA?9?$AAp?$AAl@ 000000018002fa60     libcpmt:winapinls.obj
 0002:00004a70       ??_C@_1M@LJLLCMEH@?$AAp?$AAt?$AA?9?$AAb?$AAr@ 000000018002fa70     libcpmt:winapinls.obj
 0002:00004a80       ??_C@_1M@NCMONAAL@?$AAp?$AAt?$AA?9?$AAp?$AAt@ 000000018002fa80     libcpmt:winapinls.obj
 0002:00004a90       ??_C@_1O@EAKMAJDN@?$AAq?$AAu?$AAz?$AA?9?$AAb?$AAo@ 000000018002fa90     libcpmt:winapinls.obj
 0002:00004aa0       ??_C@_1O@BHHPIGDN@?$AAq?$AAu?$AAz?$AA?9?$AAe?$AAc@ 000000018002faa0     libcpmt:winapinls.obj
 0002:00004ab0       ??_C@_1O@GBAPEKMJ@?$AAq?$AAu?$AAz?$AA?9?$AAp?$AAe@ 000000018002fab0     libcpmt:winapinls.obj
 0002:00004ac0       ??_C@_1M@CLGLEFBO@?$AAr?$AAo?$AA?9?$AAr?$AAo@ 000000018002fac0     libcpmt:winapinls.obj
 0002:00004ad0       ??_C@_1M@CEEDODME@?$AAr?$AAu?$AA?9?$AAr?$AAu@ 000000018002fad0     libcpmt:winapinls.obj
 0002:00004ae0       ??_C@_1M@HPKKKMPP@?$AAs?$AAa?$AA?9?$AAi?$AAn@ 000000018002fae0     libcpmt:winapinls.obj
 0002:00004af0       ??_C@_1M@BKMAIGOJ@?$AAs?$AAe?$AA?9?$AAf?$AAi@ 000000018002faf0     libcpmt:winapinls.obj
 0002:00004b00       ??_C@_1M@NDPIFLFI@?$AAs?$AAe?$AA?9?$AAn?$AAo@ 000000018002fb00     libcpmt:winapinls.obj
 0002:00004b10       ??_C@_1M@DANKKHJ@?$AAs?$AAe?$AA?9?$AAs?$AAe@ 000000018002fb10     libcpmt:winapinls.obj
 0002:00004b20       ??_C@_1M@PNBLONPJ@?$AAs?$AAk?$AA?9?$AAs?$AAk@ 000000018002fb20     libcpmt:winapinls.obj
 0002:00004b30       ??_C@_1M@LFMODOAL@?$AAs?$AAl?$AA?9?$AAs?$AAi@ 000000018002fb30     libcpmt:winapinls.obj
 0002:00004b40       ??_C@_1O@DFKOMPG@?$AAs?$AAm?$AAa?$AA?9?$AAn?$AAo@ 000000018002fb40     libcpmt:winapinls.obj
 0002:00004b50       ??_C@_1O@NDKPBNNH@?$AAs?$AAm?$AAa?$AA?9?$AAs?$AAe@ 000000018002fb50     libcpmt:winapinls.obj
 0002:00004b60       ??_C@_1O@PLLKBHAB@?$AAs?$AAm?$AAj?$AA?9?$AAn?$AAo@ 000000018002fb60     libcpmt:winapinls.obj
 0002:00004b70       ??_C@_1O@CLEPOGCA@?$AAs?$AAm?$AAj?$AA?9?$AAs?$AAe@ 000000018002fb70     libcpmt:winapinls.obj
 0002:00004b80       ??_C@_1O@DLGJGKMK@?$AAs?$AAm?$AAn?$AA?9?$AAf?$AAi@ 000000018002fb80     libcpmt:winapinls.obj
 0002:00004b90       ??_C@_1O@OJDJGAJC@?$AAs?$AAm?$AAs?$AA?9?$AAf?$AAi@ 000000018002fb90     libcpmt:winapinls.obj
 0002:00004ba0       ??_C@_1M@BOFOGHPB@?$AAs?$AAq?$AA?9?$AAa?$AAl@ 000000018002fba0     libcpmt:winapinls.obj
 0002:00004bb0       ??_C@_1BG@LJBBIPGB@?$AAs?$AAr?$AA?9?$AAb?$AAa?$AA?9?$AAc?$AAy?$AAr?$AAl@ 000000018002fbb0     libcpmt:winapinls.obj
 0002:00004bc8       ??_C@_1BG@JLBENFOE@?$AAs?$AAr?$AA?9?$AAb?$AAa?$AA?9?$AAl?$AAa?$AAt?$AAn@ 000000018002fbc8     libcpmt:winapinls.obj
 0002:00004be0       ??_C@_1BG@KODPNHE@?$AAs?$AAr?$AA?9?$AAs?$AAp?$AA?9?$AAc?$AAy?$AAr?$AAl@ 000000018002fbe0     libcpmt:winapinls.obj
 0002:00004bf8       ??_C@_1BG@CIOGKHPB@?$AAs?$AAr?$AA?9?$AAs?$AAp?$AA?9?$AAl?$AAa?$AAt?$AAn@ 000000018002fbf8     libcpmt:winapinls.obj
 0002:00004c10       ??_C@_1M@NGFJLMAC@?$AAs?$AAv?$AA?9?$AAf?$AAi@ 000000018002fc10     libcpmt:winapinls.obj
 0002:00004c20       ??_C@_1M@MPJEJAJC@?$AAs?$AAv?$AA?9?$AAs?$AAe@ 000000018002fc20     libcpmt:winapinls.obj
 0002:00004c30       ??_C@_1M@MPNDHLFK@?$AAs?$AAw?$AA?9?$AAk?$AAe@ 000000018002fc30     libcpmt:winapinls.obj
 0002:00004c40       ??_C@_1O@KOHBJJI@?$AAs?$AAy?$AAr?$AA?9?$AAs?$AAy@ 000000018002fc40     libcpmt:winapinls.obj
 0002:00004c50       ??_C@_1M@LDCEFHA@?$AAt?$AAa?$AA?9?$AAi?$AAn@ 000000018002fc50     libcpmt:winapinls.obj
 0002:00004c60       ??_C@_1M@CNJOFAK@?$AAt?$AAe?$AA?9?$AAi?$AAn@ 000000018002fc60     libcpmt:winapinls.obj
 0002:00004c70       ??_C@_1M@GNAECACD@?$AAt?$AAh?$AA?9?$AAt?$AAh@ 000000018002fc70     libcpmt:winapinls.obj
 0002:00004c80       ??_C@_1M@CHBIHOJO@?$AAt?$AAn?$AA?9?$AAz?$AAa@ 000000018002fc80     libcpmt:winapinls.obj
 0002:00004c90       ??_C@_1M@GCCMIGPJ@?$AAt?$AAr?$AA?9?$AAt?$AAr@ 000000018002fc90     libcpmt:winapinls.obj
 0002:00004ca0       ??_C@_1M@CELMCNBK@?$AAt?$AAt?$AA?9?$AAr?$AAu@ 000000018002fca0     libcpmt:winapinls.obj
 0002:00004cb0       ??_C@_1M@KLMCELGA@?$AAu?$AAk?$AA?9?$AAu?$AAa@ 000000018002fcb0     libcpmt:winapinls.obj
 0002:00004cc0       ??_C@_1M@EPAJJAJF@?$AAu?$AAr?$AA?9?$AAp?$AAk@ 000000018002fcc0     libcpmt:winapinls.obj
 0002:00004cd0       ??_C@_1BG@GEGPMCDJ@?$AAu?$AAz?$AA?9?$AAu?$AAz?$AA?9?$AAc?$AAy?$AAr?$AAl@ 000000018002fcd0     libcpmt:winapinls.obj
 0002:00004ce8       ??_C@_1BG@EGGKJILM@?$AAu?$AAz?$AA?9?$AAu?$AAz?$AA?9?$AAl?$AAa?$AAt?$AAn@ 000000018002fce8     libcpmt:winapinls.obj
 0002:00004d00       ??_C@_1M@GFOCLFF@?$AAv?$AAi?$AA?9?$AAv?$AAn@ 000000018002fd00     libcpmt:winapinls.obj
 0002:00004d10       ??_C@_1M@CPAMEDFI@?$AAx?$AAh?$AA?9?$AAz?$AAa@ 000000018002fd10     libcpmt:winapinls.obj
 0002:00004d20       ??_C@_1O@EBKIFIGN@?$AAz?$AAh?$AA?9?$AAc?$AAh?$AAs@ 000000018002fd20     libcpmt:winapinls.obj
 0002:00004d30       ??_C@_1O@NMHPGANE@?$AAz?$AAh?$AA?9?$AAc?$AAh?$AAt@ 000000018002fd30     libcpmt:winapinls.obj
 0002:00004d40       ??_C@_1M@LPINJOMC@?$AAz?$AAh?$AA?9?$AAc?$AAn@ 000000018002fd40     libcpmt:winapinls.obj
 0002:00004d50       ??_C@_1M@OCJEJODD@?$AAz?$AAh?$AA?9?$AAh?$AAk@ 000000018002fd50     libcpmt:winapinls.obj
 0002:00004d60       ??_C@_1M@DNDLJINH@?$AAz?$AAh?$AA?9?$AAm?$AAo@ 000000018002fd60     libcpmt:winapinls.obj
 0002:00004d70       ??_C@_1M@MBFDNDND@?$AAz?$AAh?$AA?9?$AAs?$AAg@ 000000018002fd70     libcpmt:winapinls.obj
 0002:00004d80       ??_C@_1M@IMEPLEPE@?$AAz?$AAh?$AA?9?$AAt?$AAw@ 000000018002fd80     libcpmt:winapinls.obj
 0002:00004d90       ??_C@_1M@BBGHNHJP@?$AAz?$AAu?$AA?9?$AAz?$AAa@ 000000018002fd90     libcpmt:winapinls.obj
 0002:00004dd0       ??_C@_1EC@JIJBPKFM@?$AAa?$AAp?$AAi?$AA?9?$AAm?$AAs?$AA?9?$AAw?$AAi?$AAn?$AA?9?$AAc?$AAo?$AAr?$AAe@ 000000018002fdd0     LIBCMT:thread_safe_statics.obj
 0002:00004e18       _pRawDllMain               000000018002fe18     LIBCMT:dll_dllmain.obj
 0002:00004e18       _pDefaultRawDllMain        000000018002fe18     LIBCMT:dll_dllmain.obj
 0002:00004e28       ??_7type_info@@6B@         000000018002fe28     LIBCMT:std_type_info_static.obj
 0002:00004e48       ??_7bad_array_new_length@std@@6B@ 000000018002fe48     LIBCMT:throw_bad_alloc.obj
 0002:00004e58       ??_C@_0BF@KINCDENJ@bad?5array?5new?5length@ 000000018002fe58     LIBCMT:throw_bad_alloc.obj
 0002:00004f48       _pDestructExceptionObject  000000018002ff48     libvcruntime:ehhelpers.obj
 0002:00004f58       ??_7bad_exception@std@@6B@ 000000018002ff58     libvcruntime:frame.obj
 0002:00004f68       ??_C@_0O@DPKOEFFH@bad?5exception@ 000000018002ff68     libvcruntime:frame.obj
 0002:00004f90       ??_C@_1DM@KHCHBNEB@?$AAa?$AAp?$AAi?$AA?9?$AAm?$AAs?$AA?9?$AAw?$AAi?$AAn?$AA?9?$AAc?$AAo?$AAr?$AAe@ 000000018002ff90     libvcruntime:winapi_downlevel.obj
 0002:00004fd0       ??_C@_1DK@LPPGFMPP@?$AAa?$AAp?$AAi?$AA?9?$AAm?$AAs?$AA?9?$AAw?$AAi?$AAn?$AA?9?$AAc?$AAo?$AAr?$AAe@ 000000018002ffd0     libvcruntime:winapi_downlevel.obj
 0002:00005010       ??_C@_1BC@GDMECMAK@?$AAk?$AAe?$AAr?$AAn?$AAe?$AAl?$AA3?$AA2@ 0000000180030010     libvcruntime:winapi_downlevel.obj
 0002:00005028       ??_C@_1BA@PFFKHIOG@?$AAa?$AAp?$AAi?$AA?9?$AAm?$AAs?$AA?9@ 0000000180030028     libvcruntime:winapi_downlevel.obj
 0002:00005038       ??_C@_1BA@IAIFMGEF@?$AAe?$AAx?$AAt?$AA?9?$AAm?$AAs?$AA?9@ 0000000180030038     libvcruntime:winapi_downlevel.obj
 0002:000053a8       ??_C@_08EHJDFFNH@__based?$CI@ 00000001800303a8     libvcruntime:undname.obj
 0002:000053b8       ??_C@_07KOLFKCDI@__cdecl@  00000001800303b8     libvcruntime:undname.obj
 0002:000053c0       ??_C@_08GHMPAG@__pascal@   00000001800303c0     libvcruntime:undname.obj
 0002:000053d0       ??_C@_09IFJBGAPI@__stdcall@ 00000001800303d0     libvcruntime:undname.obj
 0002:000053e0       ??_C@_0L@NPHFGOKO@__thiscall@ 00000001800303e0     libvcruntime:undname.obj
 0002:000053f0       ??_C@_0L@JMKHOMEK@__fastcall@ 00000001800303f0     libvcruntime:undname.obj
 0002:00005400       ??_C@_0N@BCKKPABJ@__vectorcall@ 0000000180030400     libvcruntime:undname.obj
 0002:00005410       ??_C@_09HIJEGCPM@__clrcall@ 0000000180030410     libvcruntime:undname.obj
 0002:0000541c       ??_C@_06GHPCKEAG@__eabi@   000000018003041c     libvcruntime:undname.obj
 0002:00005428       ??_C@_09IOPIDJLG@__swift_1@ 0000000180030428     libvcruntime:undname.obj
 0002:00005438       ??_C@_09KFNFGKHF@__swift_2@ 0000000180030438     libvcruntime:undname.obj
 0002:00005448       ??_C@_07JOMMBBKO@__ptr64@  0000000180030448     libvcruntime:undname.obj
 0002:00005450       ??_C@_0L@PILCLIHE@__restrict@ 0000000180030450     libvcruntime:undname.obj
 0002:00005460       ??_C@_0M@GFIIJFMG@__unaligned@ 0000000180030460     libvcruntime:undname.obj
 0002:00005470       ??_C@_09DHDLOLLB@restrict?$CI@ 0000000180030470     libvcruntime:undname.obj
 0002:0000547c       ??_C@_04NIHEBCM@?5new@     000000018003047c     libvcruntime:undname.obj
 0002:00005488       ??_C@_07FPCDHGMM@?5delete@ 0000000180030488     libvcruntime:undname.obj
 0002:00005490       ??_C@_01NEMOKFLO@?$DN@     0000000180030490     libvcruntime:undname.obj
 0002:00005494       ??_C@_02GPIOPFAK@?$DO?$DO@ 0000000180030494     libvcruntime:undname.obj
 0002:00005498       ??_C@_02FODMEDOG@?$DM?$DM@ 0000000180030498     libvcruntime:undname.obj
 0002:0000549c       ??_C@_01DCLJPIOD@?$CB@     000000018003049c     libvcruntime:undname.obj
 0002:000054a0       ??_C@_02EGOFBIJA@?$DN?$DN@ 00000001800304a0     libvcruntime:undname.obj
 0002:000054a4       ??_C@_02FDNJECIE@?$CB?$DN@ 00000001800304a4     libvcruntime:undname.obj
 0002:000054a8       ??_C@_02GPECMEKF@?$FL?$FN@ 00000001800304a8     libvcruntime:undname.obj
 0002:000054b0       ??_C@_08LHJFAFGD@operator@ 00000001800304b0     libvcruntime:undname.obj
 0002:000054bc       ??_C@_02HBOOOICD@?9?$DO@   00000001800304bc     libvcruntime:undname.obj
 0002:000054c0       ??_C@_02ECNGHCIF@?$CL?$CL@ 00000001800304c0     libvcruntime:undname.obj
 0002:000054c4       ??_C@_02BAABKJLB@?9?9@     00000001800304c4     libvcruntime:undname.obj
 0002:000054c8       ??_C@_01MIFGBAGJ@?$CL@     00000001800304c8     libvcruntime:undname.obj
 0002:000054cc       ??_C@_01HNPIGOCE@?$CG@     00000001800304cc     libvcruntime:undname.obj
 0002:000054d0       ??_C@_03MNHNFDLC@?9?$DO?$CK@ 00000001800304d0     libvcruntime:undname.obj
 0002:000054d4       ??_C@_01KMDKNFGN@?1@       00000001800304d4     libvcruntime:undname.obj
 0002:000054d8       ??_C@_01FGNFDNOH@?$CF@     00000001800304d8     libvcruntime:undname.obj
 0002:000054dc       ??_C@_01MNNFJEPP@?$DM@     00000001800304dc     libvcruntime:undname.obj
 0002:000054e0       ??_C@_02EHCHHCKH@?$DM?$DN@ 00000001800304e0     libvcruntime:undname.obj
 0002:000054e4       ??_C@_01PPODPGHN@?$DO@     00000001800304e4     libvcruntime:undname.obj
 0002:000054e8       ??_C@_02EEKDKGMJ@?$DO?$DN@ 00000001800304e8     libvcruntime:undname.obj
 0002:000054ec       ??_C@_01IHBHIGKO@?0@       00000001800304ec     libvcruntime:undname.obj
 0002:000054f0       ??_C@_02HCKGKOFO@?$CI?$CJ@ 00000001800304f0     libvcruntime:undname.obj
 0002:000054f4       ??_C@_01PJKLJHI@?$HO@      00000001800304f4     libvcruntime:undname.obj
 0002:000054f8       ??_C@_01JKBOJNNK@?$FO@     00000001800304f8     libvcruntime:undname.obj
 0002:000054fc       ??_C@_01DNKMNLPK@?$HM@     00000001800304fc     libvcruntime:undname.obj
 0002:00005500       ??_C@_02PPKAJPJL@?$CG?$CG@ 0000000180030500     libvcruntime:undname.obj
 0002:00005504       ??_C@_02NONPIBCD@?$HM?$HM@ 0000000180030504     libvcruntime:undname.obj
 0002:00005508       ??_C@_02FPIMKNGF@?$CK?$DN@ 0000000180030508     libvcruntime:undname.obj
 0002:0000550c       ??_C@_02FOEOMHFC@?$CL?$DN@ 000000018003050c     libvcruntime:undname.obj
 0002:00005510       ??_C@_02FKMDLLOA@?9?$DN@   0000000180030510     libvcruntime:undname.obj
 0002:00005514       ??_C@_02FJEHGPIO@?1?$DN@   0000000180030514     libvcruntime:undname.obj
 0002:00005518       ??_C@_02FENAOKFI@?$CF?$DN@ 0000000180030518     libvcruntime:undname.obj
 0002:0000551c       ??_C@_03IKFCCPFF@?$DO?$DO?$DN@ 000000018003051c     libvcruntime:undname.obj
 0002:00005520       ??_C@_03CDNPDDLA@?$DM?$DM?$DN@ 0000000180030520     libvcruntime:undname.obj
 0002:00005524       ??_C@_02FGJGFEAB@?$CG?$DN@ 0000000180030524     libvcruntime:undname.obj
 0002:00005528       ??_C@_02DHLNPPGH@?$HM?$DN@ 0000000180030528     libvcruntime:undname.obj
 0002:0000552c       ??_C@_02MHEGNOJ@?$FO?$DN@  000000018003052c     libvcruntime:undname.obj
 0002:00005530       ??_C@_09IFPLHPGF@?$GAvftable?8@ 0000000180030530     libvcruntime:undname.obj
 0002:00005540       ??_C@_09BLBHBJP@?$GAvbtable?8@ 0000000180030540     libvcruntime:undname.obj
 0002:00005550       ??_C@_07FEEIOKP@?$GAvcall?8@ 0000000180030550     libvcruntime:undname.obj
 0002:00005558       ??_C@_08LLFFHHDJ@?$GAtypeof?8@ 0000000180030558     libvcruntime:undname.obj
 0002:00005568       ??_C@_0BF@KDPPACIK@?$GAlocal?5static?5guard?8@ 0000000180030568     libvcruntime:undname.obj
 0002:00005580       ??_C@_08OBABFOLI@?$GAstring?8@ 0000000180030580     libvcruntime:undname.obj
 0002:00005590       ??_C@_0BD@JDLKDPAB@?$GAvbase?5destructor?8@ 0000000180030590     libvcruntime:undname.obj
 0002:000055a8       ??_C@_0BN@DEGPLNFK@?$GAvector?5deleting?5destructor?8@ 00000001800305a8     libvcruntime:undname.obj
 0002:000055c8       ??_C@_0BO@OBMKPJIG@?$GAdefault?5constructor?5closure?8@ 00000001800305c8     libvcruntime:undname.obj
 0002:000055e8       ??_C@_0BN@IMDCHIKM@?$GAscalar?5deleting?5destructor?8@ 00000001800305e8     libvcruntime:undname.obj
 0002:00005608       ??_C@_0BO@PFGOCPJJ@?$GAvector?5constructor?5iterator?8@ 0000000180030608     libvcruntime:undname.obj
 0002:00005628       ??_C@_0BN@LFPFMEDL@?$GAvector?5destructor?5iterator?8@ 0000000180030628     libvcruntime:undname.obj
 0002:00005648       ??_C@_0CE@IKBNEHA@?$GAvector?5vbase?5constructor?5itera@ 0000000180030648     libvcruntime:undname.obj
 0002:00005670       ??_C@_0BL@NILFHHPC@?$GAvirtual?5displacement?5map?8@ 0000000180030670     libvcruntime:undname.obj
 0002:00005690       ??_C@_0CB@JONCMFFK@?$GAeh?5vector?5constructor?5iterator@ 0000000180030690     libvcruntime:undname.obj
 0002:000056b8       ??_C@_0CA@GCEOPDGL@?$GAeh?5vector?5destructor?5iterator?8@ 00000001800306b8     libvcruntime:undname.obj
 0002:000056d8       ??_C@_0CH@OOJPLCPH@?$GAeh?5vector?5vbase?5constructor?5it@ 00000001800306d8     libvcruntime:undname.obj
 0002:00005700       ??_C@_0BL@LLKPOHJI@?$GAcopy?5constructor?5closure?8@ 0000000180030700     libvcruntime:undname.obj
 0002:00005720       ??_C@_0BA@KBCDOMBN@?$GAudt?5returning?8@ 0000000180030720     libvcruntime:undname.obj
 0002:00005730       ??_C@_03KLGMFNMG@?$GAEH@   0000000180030730     libvcruntime:undname.obj
 0002:00005734       ??_C@_05KHLCHHI@?$GARTTI@  0000000180030734     libvcruntime:undname.obj
 0002:00005740       ??_C@_0BA@KKLDJDLB@?$GAlocal?5vftable?8@ 0000000180030740     libvcruntime:undname.obj
 0002:00005750       ??_C@_0CE@IIHCMGGL@?$GAlocal?5vftable?5constructor?5clos@ 0000000180030750     libvcruntime:undname.obj
 0002:00005774       ??_C@_06FHBGPFGH@?5new?$FL?$FN@ 0000000180030774     libvcruntime:undname.obj
 0002:00005780       ??_C@_09LBNFPBCA@?5delete?$FL?$FN@ 0000000180030780     libvcruntime:undname.obj
 0002:00005790       ??_C@_0P@HJKNJFNN@?$GAomni?5callsig?8@ 0000000180030790     libvcruntime:undname.obj
 0002:000057a0       ??_C@_0BL@CNOONJFP@?$GAplacement?5delete?5closure?8@ 00000001800307a0     libvcruntime:undname.obj
 0002:000057c0       ??_C@_0BN@CKNJLHMB@?$GAplacement?5delete?$FL?$FN?5closure?8@ 00000001800307c0     libvcruntime:undname.obj
 0002:000057e0       ??_C@_0CG@CFDHKGGD@?$GAmanaged?5vector?5constructor?5ite@ 00000001800307e0     libvcruntime:undname.obj
 0002:00005808       ??_C@_0CF@IMGKMJNO@?$GAmanaged?5vector?5destructor?5iter@ 0000000180030808     libvcruntime:undname.obj
 0002:00005830       ??_C@_0CG@HLDDJMAG@?$GAeh?5vector?5copy?5constructor?5ite@ 0000000180030830     libvcruntime:undname.obj
 0002:00005858       ??_C@_0CM@FCBBDIGB@?$GAeh?5vector?5vbase?5copy?5construct@ 0000000180030858     libvcruntime:undname.obj
 0002:00005888       ??_C@_0BL@CLIPGLGB@?$GAdynamic?5initializer?5for?5?8@ 0000000180030888     libvcruntime:undname.obj
 0002:000058a8       ??_C@_0CB@PDBIFEP@?$GAdynamic?5atexit?5destructor?5for?5@ 00000001800308a8     libvcruntime:undname.obj
 0002:000058d0       ??_C@_0CD@CGAJBKEJ@?$GAvector?5copy?5constructor?5iterat@ 00000001800308d0     libvcruntime:undname.obj
 0002:000058f8       ??_C@_0CJ@GJELGAMM@?$GAvector?5vbase?5copy?5constructor?5@ 00000001800308f8     libvcruntime:undname.obj
 0002:00005928       ??_C@_0CL@FGIJHLCE@?$GAmanaged?5vector?5copy?5constructo@ 0000000180030928     libvcruntime:undname.obj
 0002:00005958       ??_C@_0BM@PMGGMLDN@?$GAlocal?5static?5thread?5guard?8@ 0000000180030958     libvcruntime:undname.obj
 0002:00005978       ??_C@_0N@BDNMDMOL@operator?5?$CC?$CC?5@ 0000000180030978     libvcruntime:undname.obj
 0002:00005988       ??_C@_0BC@GGEBGALA@operator?5co_await@ 0000000180030988     libvcruntime:undname.obj
 0002:000059a0       ??_C@_0BC@DAFEJGAK@?5Type?5Descriptor?8@ 00000001800309a0     libvcruntime:undname.obj
 0002:000059b8       ??_C@_0BM@LDKODKLH@?5Base?5Class?5Descriptor?5at?5?$CI@ 00000001800309b8     libvcruntime:undname.obj
 0002:000059d8       ??_C@_0BD@LGICGFMM@?5Base?5Class?5Array?8@ 00000001800309d8     libvcruntime:undname.obj
 0002:000059f0       ??_C@_0BN@MECKDCOJ@?5Class?5Hierarchy?5Descriptor?8@ 00000001800309f0     libvcruntime:undname.obj
 0002:00005a10       ??_C@_0BK@CFCOFLF@?5Complete?5Object?5Locator?8@ 0000000180030a10     libvcruntime:undname.obj
 0002:00005a30       format_validation_lookup_table 0000000180030a30     libucrt:output.obj
 0002:00005a90       ??_C@_1O@CEDCILHN@?$AA?$CI?$AAn?$AAu?$AAl?$AAl?$AA?$CJ?$AA?$AA@ 0000000180030a90     libucrt:output.obj
 0002:00005aa0       ??_C@_06OJHGLDPL@?$CInull?$CJ?$AA@ 0000000180030aa0     libucrt:output.obj
 0002:00005aa8       __real@0000000000000000    0000000180030aa8     libucrt:frexp.obj
 0002:00005ab0       __real@3ff0000000000000    0000000180030ab0     libucrt:frexp.obj
 0002:00005ab8       __real@8000000000000000    0000000180030ab8     libucrt:frexp.obj
 0002:00005ac0       __newctype                 0000000180030ac0     libucrt:ctype.obj
 0002:00005dc0       __newclmap                 0000000180030dc0     libucrt:ctype.obj
 0002:00005f40       __newcumap                 0000000180030f40     libucrt:ctype.obj
 0002:000060c0       _wctype                    00000001800310c0     libucrt:ctype.obj
 0002:00006440       ?large_power_data@?1??multiply_by_power_of_ten@__crt_strtox@@YA_NAEAUbig_integer@2@I@Z@4QBIB 0000000180031440     libucrt:strtod.obj
 0002:00006d50       ?large_power_indices@?1??multiply_by_power_of_ten@__crt_strtox@@YA_NAEAUbig_integer@2@I@Z@4QBUunpack_index@?1??12@YA_N0I@Z@B 0000000180031d50     libucrt:strtod.obj
 0002:00006de8       ?small_powers_of_ten@?1??multiply_by_power_of_ten@__crt_strtox@@YA_NAEAUbig_integer@2@I@Z@4QBIB 0000000180031de8     libucrt:strtod.obj
 0002:00008ac0       __acrt_exception_action_table 0000000180033ac0     libucrt:exception_filter.obj
 0002:00008b80       __acrt_signal_action_table_count 0000000180033b80     libucrt:exception_filter.obj
 0002:00008b88       __acrt_signal_action_first_fpe_index 0000000180033b88     libucrt:exception_filter.obj
 0002:00008b90       __acrt_signal_action_fpe_count 0000000180033b90     libucrt:exception_filter.obj
 0002:00008b98       ??_C@_1BI@BGOHAHKC@?$AAm?$AAs?$AAc?$AAo?$AAr?$AAe?$AAe?$AA?4?$AAd?$AAl?$AAl?$AA?$AA@ 0000000180033b98     libucrt:exit.obj
 0002:00008bb0       ??_C@_0P@MIGLKIOC@CorExitProcess?$AA@ 0000000180033bb0     libucrt:exit.obj
 0002:00008cc0       ??_C@_03OEIAHPBN@INF?$AA@  0000000180033cc0     libucrt:cvt.obj
 0002:00008cc4       ??_C@_03OJHLLCGB@inf?$AA@  0000000180033cc4     libucrt:cvt.obj
 0002:00008cc8       ??_C@_03LKNCIKJB@NAN?$AA@  0000000180033cc8     libucrt:cvt.obj
 0002:00008ccc       ??_C@_03LHCJEHON@nan?$AA@  0000000180033ccc     libucrt:cvt.obj
 0002:00008cd0       ??_C@_09OFJJIMPC@NAN?$CISNAN?$CJ?$AA@ 0000000180033cd0     libucrt:cvt.obj
 0002:00008ce0       ??_C@_09IPFBKMDL@nan?$CIsnan?$CJ?$AA@ 0000000180033ce0     libucrt:cvt.obj
 0002:00008cf0       ??_C@_08IKHNHAJ@NAN?$CIIND?$CJ?$AA@ 0000000180033cf0     libucrt:cvt.obj
 0002:00008d00       ??_C@_08OFCDMILK@nan?$CIind?$CJ?$AA@ 0000000180033d00     libucrt:cvt.obj
 0002:00008d0c       ??_C@_05KLBDPFGC@e?$CL000?$AA@ 0000000180033d0c     libucrt:cvt.obj
 0002:00008da0       __lc_category              0000000180033da0     libucrt:wsetlocale.obj
 0002:00008e30       ??_C@_1O@GIFLHMA@?$AAL?$AAC?$AA_?$AAA?$AAL?$AAL?$AA?$AA@ 0000000180033e30     libucrt:wsetlocale.obj
 0002:00008e40       ??_C@_1BG@PPOMIBNJ@?$AAL?$AAC?$AA_?$AAC?$AAO?$AAL?$AAL?$AAA?$AAT?$AAE?$AA?$AA@ 0000000180033e40     libucrt:wsetlocale.obj
 0002:00008e58       ??_C@_1BC@FFJGAPJM@?$AAL?$AAC?$AA_?$AAC?$AAT?$AAY?$AAP?$AAE?$AA?$AA@ 0000000180033e58     libucrt:wsetlocale.obj
 0002:00008e70       ??_C@_1BI@PCKFNJFB@?$AAL?$AAC?$AA_?$AAM?$AAO?$AAN?$AAE?$AAT?$AAA?$AAR?$AAY?$AA?$AA@ 0000000180033e70     libucrt:wsetlocale.obj
 0002:00008e88       ??_C@_1BG@ENIEDKID@?$AAL?$AAC?$AA_?$AAN?$AAU?$AAM?$AAE?$AAR?$AAI?$AAC?$AA?$AA@ 0000000180033e88     libucrt:wsetlocale.obj
 0002:00008ea0       ??_C@_1BA@HAAOMIIG@?$AAL?$AAC?$AA_?$AAT?$AAI?$AAM?$AAE?$AA?$AA@ 0000000180033ea0     libucrt:wsetlocale.obj
 0002:00008eb0       ??_C@_15NBPDDFIP@?$AA?$DN?$AA?$DL?$AA?$AA@ 0000000180033eb0     libucrt:wsetlocale.obj
 0002:00008eb8       ??_C@_13PJJBFPED@?$AA?$DL?$AA?$AA@ 0000000180033eb8     libucrt:wsetlocale.obj
 0002:00008ebc       ??_C@_13NMPKAAJP@?$AA?$DN?$AA?$AA@ 0000000180033ebc     libucrt:wsetlocale.obj
 0002:00008ec0       ??_C@_13FHBKNHDA@?$AAC?$AA?$AA@ 0000000180033ec0     libucrt:wsetlocale.obj
 0002:00008ec8       ??_C@_19MPDNHKDG@?$AAu?$AAt?$AAf?$AA8?$AA?$AA@ 0000000180033ec8     libucrt:wsetlocale.obj
 0002:00008ed8       ??_C@_1M@FPEIIFAM@?$AAu?$AAt?$AAf?$AA?9?$AA8?$AA?$AA@ 0000000180033ed8     libucrt:wsetlocale.obj
 0002:00008ee8       ??_C@_17MBJJLFDM@?$AA_?$AA?4?$AA?0?$AA?$AA@ 0000000180033ee8     libucrt:wsetlocale.obj
 0002:00008ef0       ??_C@_13ENNFDPBH@?$AA_?$AA?$AA@ 0000000180033ef0     libucrt:wsetlocale.obj
 0002:00008ef4       ??_C@_13JOFGPIOO@?$AA?4?$AA?$AA@ 0000000180033ef4     libucrt:wsetlocale.obj
 0002:00008f00       __lc_time_c                0000000180033f00     libucrt:nlsdata.obj
 0002:000091c0       ??_C@_03KOEHGMDN@Sun?$AA@  00000001800341c0     libucrt:nlsdata.obj
 0002:000091c4       ??_C@_03PDAGKDH@Mon?$AA@   00000001800341c4     libucrt:nlsdata.obj
 0002:000091c8       ??_C@_03NAGEINEP@Tue?$AA@  00000001800341c8     libucrt:nlsdata.obj
 0002:000091cc       ??_C@_03MHOMLAJA@Wed?$AA@  00000001800341cc     libucrt:nlsdata.obj
 0002:000091d0       ??_C@_03IOFIKPDN@Thu?$AA@  00000001800341d0     libucrt:nlsdata.obj
 0002:000091d4       ??_C@_03IDIOELNC@Fri?$AA@  00000001800341d4     libucrt:nlsdata.obj
 0002:000091d8       ??_C@_03FEFJNEK@Sat?$AA@   00000001800341d8     libucrt:nlsdata.obj
 0002:000091dc       ??_C@_06OOPIFAJ@Sunday?$AA@ 00000001800341dc     libucrt:nlsdata.obj
 0002:000091e4       ??_C@_06JLEDEDGH@Monday?$AA@ 00000001800341e4     libucrt:nlsdata.obj
 0002:000091f0       ??_C@_07BAAGCFCM@Tuesday?$AA@ 00000001800341f0     libucrt:nlsdata.obj
 0002:000091f8       ??_C@_09DLIGFAKA@Wednesday?$AA@ 00000001800341f8     libucrt:nlsdata.obj
 0002:00009208       ??_C@_08HACCIKIA@Thursday?$AA@ 0000000180034208     libucrt:nlsdata.obj
 0002:00009214       ??_C@_06JECMNKMI@Friday?$AA@ 0000000180034214     libucrt:nlsdata.obj
 0002:00009220       ??_C@_08INBOOONO@Saturday?$AA@ 0000000180034220     libucrt:nlsdata.obj
 0002:0000922c       ??_C@_03JIHJHPIE@Jan?$AA@  000000018003422c     libucrt:nlsdata.obj
 0002:00009230       ??_C@_03HJBDCHOM@Feb?$AA@  0000000180034230     libucrt:nlsdata.obj
 0002:00009234       ??_C@_03ODNJBKGA@Mar?$AA@  0000000180034234     libucrt:nlsdata.obj
 0002:00009238       ??_C@_03LEOLGMJP@Apr?$AA@  0000000180034238     libucrt:nlsdata.obj
 0002:0000923c       ??_C@_03CNMDKL@May?$AA@    000000018003423c     libucrt:nlsdata.obj
 0002:00009240       ??_C@_03IDFGHECI@Jun?$AA@  0000000180034240     libucrt:nlsdata.obj
 0002:00009244       ??_C@_03LBGABGKK@Jul?$AA@  0000000180034244     libucrt:nlsdata.obj
 0002:00009248       ??_C@_03IFJFEIGA@Aug?$AA@  0000000180034248     libucrt:nlsdata.obj
 0002:0000924c       ??_C@_03GGCAPAJC@Sep?$AA@  000000018003424c     libucrt:nlsdata.obj
 0002:00009250       ??_C@_03BMAOKBAD@Oct?$AA@  0000000180034250     libucrt:nlsdata.obj
 0002:00009254       ??_C@_03JPJOFNIA@Nov?$AA@  0000000180034254     libucrt:nlsdata.obj
 0002:00009258       ??_C@_03MKABNOCG@Dec?$AA@  0000000180034258     libucrt:nlsdata.obj
 0002:00009260       ??_C@_07CGJPFGJA@January?$AA@ 0000000180034260     libucrt:nlsdata.obj
 0002:00009268       ??_C@_08GNJGEPFN@February?$AA@ 0000000180034268     libucrt:nlsdata.obj
 0002:00009274       ??_C@_05HPCKOFNC@March?$AA@ 0000000180034274     libucrt:nlsdata.obj
 0002:0000927c       ??_C@_05DMJDNLEJ@April?$AA@ 000000018003427c     libucrt:nlsdata.obj
 0002:00009284       ??_C@_04CNLMGBGM@June?$AA@ 0000000180034284     libucrt:nlsdata.obj
 0002:0000928c       ??_C@_04MIEPOIFP@July?$AA@ 000000018003428c     libucrt:nlsdata.obj
 0002:00009294       ??_C@_06LBBHFDDG@August?$AA@ 0000000180034294     libucrt:nlsdata.obj
 0002:000092a0       ??_C@_09BHHEALKD@September?$AA@ 00000001800342a0     libucrt:nlsdata.obj
 0002:000092b0       ??_C@_07JJNFCEND@October?$AA@ 00000001800342b0     libucrt:nlsdata.obj
 0002:000092b8       ??_C@_08HCHEGEOA@November?$AA@ 00000001800342b8     libucrt:nlsdata.obj
 0002:000092c8       ??_C@_08EDHMEBNP@December?$AA@ 00000001800342c8     libucrt:nlsdata.obj
 0002:000092d4       ??_C@_02DEDBPAFC@AM?$AA@   00000001800342d4     libucrt:nlsdata.obj
 0002:000092d8       ??_C@_02CJNFDJBF@PM?$AA@   00000001800342d8     libucrt:nlsdata.obj
 0002:000092e0       ??_C@_08BPBNCDIB@MM?1dd?1yy?$AA@ 00000001800342e0     libucrt:nlsdata.obj
 0002:000092f0       ??_C@_0BE@CKGJFCPC@dddd?0?5MMMM?5dd?0?5yyyy?$AA@ 00000001800342f0     libucrt:nlsdata.obj
 0002:00009308       ??_C@_08JCCMCCIL@HH?3mm?3ss?$AA@ 0000000180034308     libucrt:nlsdata.obj
 0002:00009318       ??_C@_17MBGCMIPB@?$AAS?$AAu?$AAn?$AA?$AA@ 0000000180034318     libucrt:nlsdata.obj
 0002:00009320       ??_C@_17KBOMKBF@?$AAM?$AAo?$AAn?$AA?$AA@ 0000000180034320     libucrt:nlsdata.obj
 0002:00009328       ??_C@_17BMKGEGOJ@?$AAT?$AAu?$AAe?$AA?$AA@ 0000000180034328     libucrt:nlsdata.obj
 0002:00009330       ??_C@_17CJEDCEPE@?$AAW?$AAe?$AAd?$AA?$AA@ 0000000180034330     libucrt:nlsdata.obj
 0002:00009338       ??_C@_17PDPHAADD@?$AAT?$AAh?$AAu?$AA?$AA@ 0000000180034338     libucrt:nlsdata.obj
 0002:00009340       ??_C@_17HFOLPPLP@?$AAF?$AAr?$AAi?$AA?$AA@ 0000000180034340     libucrt:nlsdata.obj
 0002:00009348       ??_C@_17GGIBDPIH@?$AAS?$AAa?$AAt?$AA?$AA@ 0000000180034348     libucrt:nlsdata.obj
 0002:00009350       ??_C@_1O@IHNHDHPB@?$AAS?$AAu?$AAn?$AAd?$AAa?$AAy?$AA?$AA@ 0000000180034350     libucrt:nlsdata.obj
 0002:00009360       ??_C@_1O@MMNBFLIA@?$AAM?$AAo?$AAn?$AAd?$AAa?$AAy?$AA?$AA@ 0000000180034360     libucrt:nlsdata.obj
 0002:00009370       ??_C@_1BA@ENFBFFEK@?$AAT?$AAu?$AAe?$AAs?$AAd?$AAa?$AAy?$AA?$AA@ 0000000180034370     libucrt:nlsdata.obj
 0002:00009380       ??_C@_1BE@EBOGMDOH@?$AAW?$AAe?$AAd?$AAn?$AAe?$AAs?$AAd?$AAa?$AAy?$AA?$AA@ 0000000180034380     libucrt:nlsdata.obj
 0002:00009398       ??_C@_1BC@HHMNLIHE@?$AAT?$AAh?$AAu?$AAr?$AAs?$AAd?$AAa?$AAy?$AA?$AA@ 0000000180034398     libucrt:nlsdata.obj
 0002:000093b0       ??_C@_1O@PDICJHAG@?$AAF?$AAr?$AAi?$AAd?$AAa?$AAy?$AA?$AA@ 00000001800343b0     libucrt:nlsdata.obj
 0002:000093c0       ??_C@_1BC@ENMNNPAJ@?$AAS?$AAa?$AAt?$AAu?$AAr?$AAd?$AAa?$AAy?$AA?$AA@ 00000001800343c0     libucrt:nlsdata.obj
 0002:000093d8       ??_C@_17DKNBKCHM@?$AAJ?$AAa?$AAn?$AA?$AA@ 00000001800343d8     libucrt:nlsdata.obj
 0002:000093e0       ??_C@_17LMDJEKJN@?$AAF?$AAe?$AAb?$AA?$AA@ 00000001800343e0     libucrt:nlsdata.obj
 0002:000093e8       ??_C@_17CKNLEDEC@?$AAM?$AAa?$AAr?$AA?$AA@ 00000001800343e8     libucrt:nlsdata.obj
 0002:000093f0       ??_C@_17LFPOIHDD@?$AAA?$AAp?$AAr?$AA?$AA@ 00000001800343f0     libucrt:nlsdata.obj
 0002:000093f8       ??_C@_17PNNKMEED@?$AAM?$AAa?$AAy?$AA?$AA@ 00000001800343f8     libucrt:nlsdata.obj
 0002:00009400       ??_C@_17KCJGOCPB@?$AAJ?$AAu?$AAn?$AA?$AA@ 0000000180034400     libucrt:nlsdata.obj
 0002:00009408       ??_C@_17IJPCKHK@?$AAJ?$AAu?$AAl?$AA?$AA@ 0000000180034408     libucrt:nlsdata.obj
 0002:00009410       ??_C@_17ICPELBCN@?$AAA?$AAu?$AAg?$AA?$AA@ 0000000180034410     libucrt:nlsdata.obj
 0002:00009418       ??_C@_17HCHCOKMG@?$AAS?$AAe?$AAp?$AA?$AA@ 0000000180034418     libucrt:nlsdata.obj
 0002:00009420       ??_C@_17FNLKOI@?$AAO?$AAc?$AAt?$AA?$AA@ 0000000180034420     libucrt:nlsdata.obj
 0002:00009428       ??_C@_17BBDMLCIG@?$AAN?$AAo?$AAv?$AA?$AA@ 0000000180034428     libucrt:nlsdata.obj
 0002:00009430       ??_C@_17EGKACKIF@?$AAD?$AAe?$AAc?$AA?$AA@ 0000000180034430     libucrt:nlsdata.obj
 0002:00009438       ??_C@_1BA@EFMEIEBA@?$AAJ?$AAa?$AAn?$AAu?$AAa?$AAr?$AAy?$AA?$AA@ 0000000180034438     libucrt:nlsdata.obj
 0002:00009448       ??_C@_1BC@JGDDFFAM@?$AAF?$AAe?$AAb?$AAr?$AAu?$AAa?$AAr?$AAy?$AA?$AA@ 0000000180034448     libucrt:nlsdata.obj
 0002:00009460       ??_C@_1M@IKEENEDF@?$AAM?$AAa?$AAr?$AAc?$AAh?$AA?$AA@ 0000000180034460     libucrt:nlsdata.obj
 0002:00009470       ??_C@_1M@GJNLMHFD@?$AAA?$AAp?$AAr?$AAi?$AAl?$AA?$AA@ 0000000180034470     libucrt:nlsdata.obj
 0002:00009480       ??_C@_19EPFLPGAP@?$AAJ?$AAu?$AAn?$AAe?$AA?$AA@ 0000000180034480     libucrt:nlsdata.obj
 0002:00009490       ??_C@_19BIFMLPCD@?$AAJ?$AAu?$AAl?$AAy?$AA?$AA@ 0000000180034490     libucrt:nlsdata.obj
 0002:000094a0       ??_C@_1O@PAHLKOAC@?$AAA?$AAu?$AAg?$AAu?$AAs?$AAt?$AA?$AA@ 00000001800344a0     libucrt:nlsdata.obj
 0002:000094b0       ??_C@_1BE@DKAAMBJL@?$AAS?$AAe?$AAp?$AAt?$AAe?$AAm?$AAb?$AAe?$AAr?$AA?$AA@ 00000001800344b0     libucrt:nlsdata.obj
 0002:000094c8       ??_C@_1BA@EPANDLNG@?$AAO?$AAc?$AAt?$AAo?$AAb?$AAe?$AAr?$AA?$AA@ 00000001800344c8     libucrt:nlsdata.obj
 0002:000094d8       ??_C@_1BC@BGLIFPF@?$AAN?$AAo?$AAv?$AAe?$AAm?$AAb?$AAe?$AAr?$AA?$AA@ 00000001800344d8     libucrt:nlsdata.obj
 0002:000094f0       ??_C@_1BC@FEMKIFH@?$AAD?$AAe?$AAc?$AAe?$AAm?$AAb?$AAe?$AAr?$AA?$AA@ 00000001800344f0     libucrt:nlsdata.obj
 0002:00009504       ??_C@_15ODEHAHHF@?$AAA?$AAM?$AA?$AA@ 0000000180034504     libucrt:nlsdata.obj
 0002:0000950c       ??_C@_15CLMNNGEL@?$AAP?$AAM?$AA?$AA@ 000000018003450c     libucrt:nlsdata.obj
 0002:00009518       ??_C@_1BC@IEBCMHCM@?$AAM?$AAM?$AA?1?$AAd?$AAd?$AA?1?$AAy?$AAy?$AA?$AA@ 0000000180034518     libucrt:nlsdata.obj
 0002:00009530       ??_C@_1CI@KNAKOEBC@?$AAd?$AAd?$AAd?$AAd?$AA?0?$AA?5?$AAM?$AAM?$AAM?$AAM?$AA?5?$AAd?$AAd?$AA?0?$AA?5?$AAy?$AAy?$AAy?$AAy?$AA?$AA@ 0000000180034530     libucrt:nlsdata.obj
 0002:00009558       ??_C@_1BC@GDGBMEMK@?$AAH?$AAH?$AA?3?$AAm?$AAm?$AA?3?$AAs?$AAs?$AA?$AA@ 0000000180034558     libucrt:nlsdata.obj
 0002:00009570       ??_C@_1M@BMHNFIME@?$AAe?$AAn?$AA?9?$AAU?$AAS?$AA?$AA@ 0000000180034570     libucrt:nlsdata.obj
 0002:00009750       ??_C@_03KHJOGHMM@exp?$AA@  0000000180034750     libucrt:fpexcept.obj
 0002:00009754       ??_C@_03JGHBODFD@pow?$AA@  0000000180034754     libucrt:fpexcept.obj
 0002:00009758       ??_C@_03MGHMBJCF@log?$AA@  0000000180034758     libucrt:fpexcept.obj
 0002:0000975c       ??_C@_05HGHHAHAP@log10?$AA@ 000000018003475c     libucrt:fpexcept.obj
 0002:00009764       ??_C@_04COOMCNPB@sinh?$AA@ 0000000180034764     libucrt:fpexcept.obj
 0002:0000976c       ??_C@_04HPJJNFIM@cosh?$AA@ 000000018003476c     libucrt:fpexcept.obj
 0002:00009774       ??_C@_04FJHINJAO@tanh?$AA@ 0000000180034774     libucrt:fpexcept.obj
 0002:0000977c       ??_C@_04FIHNOPOL@asin?$AA@ 000000018003477c     libucrt:fpexcept.obj
 0002:00009784       ??_C@_04PDIFKINK@acos?$AA@ 0000000180034784     libucrt:fpexcept.obj
 0002:0000978c       ??_C@_04MLLJIGOK@atan?$AA@ 000000018003478c     libucrt:fpexcept.obj
 0002:00009794       ??_C@_05KNGEOGJB@atan2?$AA@ 0000000180034794     libucrt:fpexcept.obj
 0002:0000979c       ??_C@_04EIAKFFMI@sqrt?$AA@ 000000018003479c     libucrt:fpexcept.obj
 0002:000097a4       ??_C@_03BLEJJJBH@sin?$AA@  00000001800347a4     libucrt:fpexcept.obj
 0002:000097a8       ??_C@_03LALBNOCG@cos?$AA@  00000001800347a8     libucrt:fpexcept.obj
 0002:000097ac       ??_C@_03IIINPABG@tan?$AA@  00000001800347ac     libucrt:fpexcept.obj
 0002:000097b0       ??_C@_04GFPJNGEK@ceil?$AA@ 00000001800347b0     libucrt:fpexcept.obj
 0002:000097b8       ??_C@_05PBJFFIGL@floor?$AA@ 00000001800347b8     libucrt:fpexcept.obj
 0002:000097c0       ??_C@_04ODHECPBC@fabs?$AA@ 00000001800347c0     libucrt:fpexcept.obj
 0002:000097c8       ??_C@_04EHEDPDJG@modf?$AA@ 00000001800347c8     libucrt:fpexcept.obj
 0002:000097d0       ??_C@_05CEJMAHNP@ldexp?$AA@ 00000001800347d0     libucrt:fpexcept.obj
 0002:000097d8       ??_C@_05KBKMEMPO@_cabs?$AA@ 00000001800347d8     libucrt:fpexcept.obj
 0002:000097e0       ??_C@_06MEIMCGCF@_hypot?$AA@ 00000001800347e0     libucrt:fpexcept.obj
 0002:000097e8       ??_C@_04KEPJIHGP@fmod?$AA@ 00000001800347e8     libucrt:fpexcept.obj
 0002:000097f0       ??_C@_05GKKHEGJL@frexp?$AA@ 00000001800347f0     libucrt:fpexcept.obj
 0002:000097f8       ??_C@_03MJLDFKDL@_y0?$AA@  00000001800347f8     libucrt:fpexcept.obj
 0002:000097fc       ??_C@_03NAKIGLHK@_y1?$AA@  00000001800347fc     libucrt:fpexcept.obj
 0002:00009800       ??_C@_03ONILCKOB@_yn?$AA@  0000000180034800     libucrt:fpexcept.obj
 0002:00009804       ??_C@_05JGDBENOH@_logb?$AA@ 0000000180034804     libucrt:fpexcept.obj
 0002:00009810       ??_C@_0L@KDOEJCKC@_nextafter?$AA@ 0000000180034810     libucrt:fpexcept.obj
 0002:00009820       _d_inf                     0000000180034820     libucrt:util.obj
 0002:00009828       _d_max                     0000000180034828     libucrt:util.obj
 0002:000098d0       ??_C@_1EA@JGEFHKEI@?$AAa?$AAp?$AAi?$AA?9?$AAm?$AAs?$AA?9?$AAw?$AAi?$AAn?$AA?9?$AAc?$AAo?$AAr?$AAe?$AA?9?$AAd?$AAa?$AAt?$AAe?$AAt?$AAi?$AAm?$AAe?$AA?9?$AAl?$AA1?$AA?9?$AA1?$AA?9?$AA1?$AA?$AA@ 00000001800348d0     libucrt:winapi_thunks.obj
 0002:00009910       ??_C@_1DM@KHCHBNEB@?$AAa?$AAp?$AAi?$AA?9?$AAm?$AAs?$AA?9?$AAw?$AAi?$AAn?$AA?9?$AAc?$AAo?$AAr?$AAe?$AA?9?$AAf?$AAi?$AAb?$AAe?$AAr?$AAs?$AA?9?$AAl?$AA1?$AA?9?$AA1?$AA?9?$AA1?$AA?$AA@ 0000000180034910     libucrt:winapi_thunks.obj
 0002:00009950       ??_C@_1DI@IJCEHOCB@?$AAa?$AAp?$AAi?$AA?9?$AAm?$AAs?$AA?9?$AAw?$AAi?$AAn?$AA?9?$AAc?$AAo?$AAr?$AAe?$AA?9?$AAf?$AAi?$AAl?$AAe?$AA?9?$AAl?$AA1?$AA?9?$AA2?$AA?9?$AA2?$AA?$AA@ 0000000180034950     libucrt:winapi_thunks.obj
 0002:00009990       ??_C@_1EI@MPIAOHOC@?$AAa?$AAp?$AAi?$AA?9?$AAm?$AAs?$AA?9?$AAw?$AAi?$AAn?$AA?9?$AAc?$AAo?$AAr?$AAe?$AA?9?$AAl?$AAo?$AAc?$AAa?$AAl?$AAi?$AAz?$AAa?$AAt?$AAi?$AAo?$AAn?$AA?9?$AAl?$AA1?$AA?9@ 0000000180034990     libucrt:winapi_thunks.obj
 0002:000099e0       ??_C@_1FK@FPHCKFIE@?$AAa?$AAp?$AAi?$AA?9?$AAm?$AAs?$AA?9?$AAw?$AAi?$AAn?$AA?9?$AAc?$AAo?$AAr?$AAe?$AA?9?$AAl?$AAo?$AAc?$AAa?$AAl?$AAi?$AAz?$AAa?$AAt?$AAi?$AAo?$AAn?$AA?9?$AAo?$AAb?$AAs@ 00000001800349e0     libucrt:winapi_thunks.obj
 0002:00009a40       ??_C@_1EM@DILCGIIO@?$AAa?$AAp?$AAi?$AA?9?$AAm?$AAs?$AA?9?$AAw?$AAi?$AAn?$AA?9?$AAc?$AAo?$AAr?$AAe?$AA?9?$AAp?$AAr?$AAo?$AAc?$AAe?$AAs?$AAs?$AAt?$AAh?$AAr?$AAe?$AAa?$AAd?$AAs?$AA?9?$AAl@ 0000000180034a40     libucrt:winapi_thunks.obj
 0002:00009a90       ??_C@_1DM@LNCGDDPN@?$AAa?$AAp?$AAi?$AA?9?$AAm?$AAs?$AA?9?$AAw?$AAi?$AAn?$AA?9?$AAc?$AAo?$AAr?$AAe?$AA?9?$AAs?$AAt?$AAr?$AAi?$AAn?$AAg?$AA?9?$AAl?$AA1?$AA?9?$AA1?$AA?9?$AA0?$AA?$AA@ 0000000180034a90     libucrt:winapi_thunks.obj
 0002:00009ad0       ??_C@_1DK@LPPGFMPP@?$AAa?$AAp?$AAi?$AA?9?$AAm?$AAs?$AA?9?$AAw?$AAi?$AAn?$AA?9?$AAc?$AAo?$AAr?$AAe?$AA?9?$AAs?$AAy?$AAn?$AAc?$AAh?$AA?9?$AAl?$AA1?$AA?9?$AA2?$AA?9?$AA0?$AA?$AA@ 0000000180034ad0     libucrt:winapi_thunks.obj
 0002:00009b10       ??_C@_1DO@FPAPJEMD@?$AAa?$AAp?$AAi?$AA?9?$AAm?$AAs?$AA?9?$AAw?$AAi?$AAn?$AA?9?$AAc?$AAo?$AAr?$AAe?$AA?9?$AAs?$AAy?$AAs?$AAi?$AAn?$AAf?$AAo?$AA?9?$AAl?$AA1?$AA?9?$AA2?$AA?9?$AA1?$AA?$AA@ 0000000180034b10     libucrt:winapi_thunks.obj
 0002:00009b50       ??_C@_1DK@NDHNAHIO@?$AAa?$AAp?$AAi?$AA?9?$AAm?$AAs?$AA?9?$AAw?$AAi?$AAn?$AA?9?$AAc?$AAo?$AAr?$AAe?$AA?9?$AAw?$AAi?$AAn?$AAr?$AAt?$AA?9?$AAl?$AA1?$AA?9?$AA1?$AA?9?$AA0?$AA?$AA@ 0000000180034b50     libucrt:winapi_thunks.obj
 0002:00009b90       ??_C@_1DM@KGHDGBCM@?$AAa?$AAp?$AAi?$AA?9?$AAm?$AAs?$AA?9?$AAw?$AAi?$AAn?$AA?9?$AAc?$AAo?$AAr?$AAe?$AA?9?$AAx?$AAs?$AAt?$AAa?$AAt?$AAe?$AA?9?$AAl?$AA2?$AA?9?$AA1?$AA?9?$AA0?$AA?$AA@ 0000000180034b90     libucrt:winapi_thunks.obj
 0002:00009bd0       ??_C@_1EO@IJIOEFOH@?$AAa?$AAp?$AAi?$AA?9?$AAm?$AAs?$AA?9?$AAw?$AAi?$AAn?$AA?9?$AAr?$AAt?$AAc?$AAo?$AAr?$AAe?$AA?9?$AAn?$AAt?$AAu?$AAs?$AAe?$AAr?$AA?9?$AAw?$AAi?$AAn?$AAd?$AAo?$AAw?$AA?9@ 0000000180034bd0     libucrt:winapi_thunks.obj
 0002:00009c20       ??_C@_1FG@HHGEKANL@?$AAa?$AAp?$AAi?$AA?9?$AAm?$AAs?$AA?9?$AAw?$AAi?$AAn?$AA?9?$AAs?$AAe?$AAc?$AAu?$AAr?$AAi?$AAt?$AAy?$AA?9?$AAs?$AAy?$AAs?$AAt?$AAe?$AAm?$AAf?$AAu?$AAn?$AAc?$AAt?$AAi@ 0000000180034c20     libucrt:winapi_thunks.obj
 0002:00009c80       ??_C@_1EG@DBIOJECG@?$AAe?$AAx?$AAt?$AA?9?$AAm?$AAs?$AA?9?$AAw?$AAi?$AAn?$AA?9?$AAn?$AAt?$AAu?$AAs?$AAe?$AAr?$AA?9?$AAd?$AAi?$AAa?$AAl?$AAo?$AAg?$AAb?$AAo?$AAx?$AA?9?$AAl?$AA1?$AA?9?$AA1@ 0000000180034c80     libucrt:winapi_thunks.obj
 0002:00009cd0       ??_C@_1EO@FIHMJCLF@?$AAe?$AAx?$AAt?$AA?9?$AAm?$AAs?$AA?9?$AAw?$AAi?$AAn?$AA?9?$AAn?$AAt?$AAu?$AAs?$AAe?$AAr?$AA?9?$AAw?$AAi?$AAn?$AAd?$AAo?$AAw?$AAs?$AAt?$AAa?$AAt?$AAi?$AAo?$AAn?$AA?9@ 0000000180034cd0     libucrt:winapi_thunks.obj
 0002:00009d20       ??_C@_1BC@DNHGCMLG@?$AAa?$AAd?$AAv?$AAa?$AAp?$AAi?$AA3?$AA2?$AA?$AA@ 0000000180034d20     libucrt:winapi_thunks.obj
 0002:00009d38       ??_C@_1BC@GDMECMAK@?$AAk?$AAe?$AAr?$AAn?$AAe?$AAl?$AA3?$AA2?$AA?$AA@ 0000000180034d38     libucrt:winapi_thunks.obj
 0002:00009d50       ??_C@_1M@OAIMIKLP@?$AAn?$AAt?$AAd?$AAl?$AAl?$AA?$AA@ 0000000180034d50     libucrt:winapi_thunks.obj
 0002:00009d60       ??_C@_1EG@DPGNFKGC@?$AAa?$AAp?$AAi?$AA?9?$AAm?$AAs?$AA?9?$AAw?$AAi?$AAn?$AA?9?$AAa?$AAp?$AAp?$AAm?$AAo?$AAd?$AAe?$AAl?$AA?9?$AAr?$AAu?$AAn?$AAt?$AAi?$AAm?$AAe?$AA?9?$AAl?$AA1?$AA?9?$AA1@ 0000000180034d60     libucrt:winapi_thunks.obj
 0002:00009da8       ??_C@_1O@BCCLBEOE@?$AAu?$AAs?$AAe?$AAr?$AA3?$AA2?$AA?$AA@ 0000000180034da8     libucrt:winapi_thunks.obj
 0002:00009db8       ??_C@_1BA@PFFKHIOG@?$AAa?$AAp?$AAi?$AA?9?$AAm?$AAs?$AA?9?$AA?$AA@ 0000000180034db8     libucrt:winapi_thunks.obj
 0002:00009dc8       ??_C@_1BA@IAIFMGEF@?$AAe?$AAx?$AAt?$AA?9?$AAm?$AAs?$AA?9?$AA?$AA@ 0000000180034dc8     libucrt:winapi_thunks.obj
 0002:00009de0       ??_C@_0BA@FHFNEAED@AreFileApisANSI?$AA@ 0000000180034de0     libucrt:winapi_thunks.obj
 0002:00009df8       ??_C@_0BA@IHGNDAEB@CompareStringEx?$AA@ 0000000180034df8     libucrt:winapi_thunks.obj
 0002:00009e10       ??_C@_0BE@LJANKFHF@EnumSystemLocalesEx?$AA@ 0000000180034e10     libucrt:winapi_thunks.obj
 0002:00009e30       ??_C@_08KNHFBNJ@FlsAlloc?$AA@ 0000000180034e30     libucrt:winapi_thunks.obj
 0002:00009e48       ??_C@_07PEJMOBNF@FlsFree?$AA@ 0000000180034e48     libucrt:winapi_thunks.obj
 0002:00009e58       ??_C@_0M@GDNOONDI@FlsGetValue?$AA@ 0000000180034e58     libucrt:winapi_thunks.obj
 0002:00009e70       ??_C@_0M@JCPCPOEF@FlsSetValue?$AA@ 0000000180034e70     libucrt:winapi_thunks.obj
 0002:00009e88       ??_C@_0BA@EPCJIIPD@GetDateFormatEx?$AA@ 0000000180034e88     libucrt:winapi_thunks.obj
 0002:00009ea0       ??_C@_0BA@ONOKGCMP@GetLocaleInfoEx?$AA@ 0000000180034ea0     libucrt:winapi_thunks.obj
 0002:00009eb8       ??_C@_0BA@CIJJKCJJ@GetTimeFormatEx?$AA@ 0000000180034eb8     libucrt:winapi_thunks.obj
 0002:00009ed0       ??_C@_0BJ@PBCCBIPI@GetUserDefaultLocaleName?$AA@ 0000000180034ed0     libucrt:winapi_thunks.obj
 0002:00009ef8       ??_C@_0BM@HCFOFFN@InitializeCriticalSectionEx?$AA@ 0000000180034ef8     libucrt:winapi_thunks.obj
 0002:00009f20       ??_C@_0BC@CELBKLLA@IsValidLocaleName?$AA@ 0000000180034f20     libucrt:winapi_thunks.obj
 0002:00009f40       ??_C@_0O@KKBNKAPF@LCMapStringEx?$AA@ 0000000180034f40     libucrt:winapi_thunks.obj
 0002:00009f58       ??_C@_0BB@CDHDDLLP@LCIDToLocaleName?$AA@ 0000000180034f58     libucrt:winapi_thunks.obj
 0002:00009f78       ??_C@_0BB@HBDEELFH@LocaleNameToLCID?$AA@ 0000000180034f78     libucrt:winapi_thunks.obj
 0002:00009f90       ??_C@_0CF@OJOFEIGO@AppPolicyGetProcessTerminationMe@ 0000000180034f90     libucrt:winapi_thunks.obj
 0002:00009fe0       __log_256_lead             0000000180034fe0     libucrt:log_256_lead_tail_table.obj
 0002:0000a7f0       __log_256_tail             00000001800357f0     libucrt:log_256_lead_tail_table.obj
 0002:0000b000       __two_to_jby64_head_table  0000000180036000     libucrt:two_to_jby64_head_tail_table.obj
 0002:0000b200       __two_to_jby64_tail_table  0000000180036200     libucrt:two_to_jby64_head_tail_table.obj
 0002:0000b400       ??_C@_04MBFDLNIM@powf?$AA@ 0000000180036400     libucrt:pow_special.obj
 0002:0000b410       __two_to_jby64_table       0000000180036410     libucrt:two_to_jby64_table.obj
 0002:0000b610       __log_F_inv_qword          0000000180036610     libucrt:log_f_inv_qword_table.obj
 0002:0000be40       ??_C@_1M@HPNHIDJI@?$AAj?$AAa?$AA?9?$AAJ?$AAP?$AA?$AA@ 0000000180036e40     libucrt:mbctype.obj
 0002:0000be50       ??_C@_1M@BIBDDEMK@?$AAz?$AAh?$AA?9?$AAC?$AAN?$AA?$AA@ 0000000180036e50     libucrt:mbctype.obj
 0002:0000be60       ??_C@_1M@JLOOOEGK@?$AAk?$AAo?$AA?9?$AAK?$AAR?$AA?$AA@ 0000000180036e60     libucrt:mbctype.obj
 0002:0000be70       ??_C@_1M@CLNBBOPM@?$AAz?$AAh?$AA?9?$AAT?$AAW?$AA?$AA@ 0000000180036e70     libucrt:mbctype.obj
 0002:0000be7c       ??_C@_00CNPNBAHC@?$AA@     0000000180036e7c     libucrt:mbrtowc.obj
 0002:0000be80       ??_C@_01GBGANLPD@0?$AA@    0000000180036e80     libucrt:cfout.obj
 0002:0000be84       ??_C@_05DNEBIAHO@1?$CDINF?$AA@ 0000000180036e84     libucrt:cfout.obj
 0002:0000be8c       ??_C@_06IMKFLFPG@1?$CDQNAN?$AA@ 0000000180036e8c     libucrt:cfout.obj
 0002:0000be94       ??_C@_06PGGFOGJG@1?$CDSNAN?$AA@ 0000000180036e94     libucrt:cfout.obj
 0002:0000be9c       ??_C@_05PHHOCPM@1?$CDIND?$AA@ 0000000180036e9c     libucrt:cfout.obj
 0002:0000beb0       __acrt_rg_language         0000000180036eb0     libucrt:get_qualified_locale.obj
 0002:0000c2c0       __acrt_rg_language_count   00000001800372c0     libucrt:get_qualified_locale.obj
 0002:0000c2d0       __acrt_rg_country          00000001800372d0     libucrt:get_qualified_locale.obj
 0002:0000c440       __acrt_rg_country_count    0000000180037440     libucrt:get_qualified_locale.obj
 0002:0000c448       ??_C@_1BC@LLOKLNP@?$AAa?$AAm?$AAe?$AAr?$AAi?$AAc?$AAa?$AAn?$AA?$AA@ 0000000180037448     libucrt:get_qualified_locale.obj
 0002:0000c460       ??_C@_1CC@HEIGCDGG@?$AAa?$AAm?$AAe?$AAr?$AAi?$AAc?$AAa?$AAn?$AA?5?$AAe?$AAn?$AAg?$AAl?$AAi?$AAs?$AAh?$AA?$AA@ 0000000180037460     libucrt:get_qualified_locale.obj
 0002:0000c488       ??_C@_1CC@IHCNOMIN@?$AAa?$AAm?$AAe?$AAr?$AAi?$AAc?$AAa?$AAn?$AA?9?$AAe?$AAn?$AAg?$AAl?$AAi?$AAs?$AAh?$AA?$AA@ 0000000180037488     libucrt:get_qualified_locale.obj
 0002:0000c4b0       ??_C@_1BG@GKAGPCGG@?$AAa?$AAu?$AAs?$AAt?$AAr?$AAa?$AAl?$AAi?$AAa?$AAn?$AA?$AA@ 00000001800374b0     libucrt:get_qualified_locale.obj
 0002:0000c4c8       ??_C@_1BA@GMENCENF@?$AAb?$AAe?$AAl?$AAg?$AAi?$AAa?$AAn?$AA?$AA@ 00000001800374c8     libucrt:get_qualified_locale.obj
 0002:0000c4d8       ??_C@_1BC@PJMIIAAN@?$AAc?$AAa?$AAn?$AAa?$AAd?$AAi?$AAa?$AAn?$AA?$AA@ 00000001800374d8     libucrt:get_qualified_locale.obj
 0002:0000c4f0       ??_C@_17NOIMNFBF@?$AAc?$AAh?$AAh?$AA?$AA@ 00000001800374f0     libucrt:get_qualified_locale.obj
 0002:0000c4f8       ??_C@_17GGDALCHA@?$AAc?$AAh?$AAi?$AA?$AA@ 00000001800374f8     libucrt:get_qualified_locale.obj
 0002:0000c500       ??_C@_1BA@NPNJKIBL@?$AAc?$AAh?$AAi?$AAn?$AAe?$AAs?$AAe?$AA?$AA@ 0000000180037500     libucrt:get_qualified_locale.obj
 0002:0000c510       ??_C@_1CC@DINBAMMJ@?$AAc?$AAh?$AAi?$AAn?$AAe?$AAs?$AAe?$AA?9?$AAh?$AAo?$AAn?$AAg?$AAk?$AAo?$AAn?$AAg?$AA?$AA@ 0000000180037510     libucrt:get_qualified_locale.obj
 0002:0000c538       ??_C@_1CG@IOBJPACO@?$AAc?$AAh?$AAi?$AAn?$AAe?$AAs?$AAe?$AA?9?$AAs?$AAi?$AAm?$AAp?$AAl?$AAi?$AAf?$AAi?$AAe?$AAd?$AA?$AA@ 0000000180037538     libucrt:get_qualified_locale.obj
 0002:0000c560       ??_C@_1CE@GAJNDCKG@?$AAc?$AAh?$AAi?$AAn?$AAe?$AAs?$AAe?$AA?9?$AAs?$AAi?$AAn?$AAg?$AAa?$AAp?$AAo?$AAr?$AAe?$AA?$AA@ 0000000180037560     libucrt:get_qualified_locale.obj
 0002:0000c588       ??_C@_1CI@PAJPIOOD@?$AAc?$AAh?$AAi?$AAn?$AAe?$AAs?$AAe?$AA?9?$AAt?$AAr?$AAa?$AAd?$AAi?$AAt?$AAi?$AAo?$AAn?$AAa?$AAl?$AA?$AA@ 0000000180037588     libucrt:get_qualified_locale.obj
 0002:0000c5b0       ??_C@_1BM@NILJBMMD@?$AAd?$AAu?$AAt?$AAc?$AAh?$AA?9?$AAb?$AAe?$AAl?$AAg?$AAi?$AAa?$AAn?$AA?$AA@ 00000001800375b0     libucrt:get_qualified_locale.obj
 0002:0000c5d0       ??_C@_1CC@OOJPJNEJ@?$AAe?$AAn?$AAg?$AAl?$AAi?$AAs?$AAh?$AA?9?$AAa?$AAm?$AAe?$AAr?$AAi?$AAc?$AAa?$AAn?$AA?$AA@ 00000001800375d0     libucrt:get_qualified_locale.obj
 0002:0000c5f8       ??_C@_1BI@IOLFEEM@?$AAe?$AAn?$AAg?$AAl?$AAi?$AAs?$AAh?$AA?9?$AAa?$AAu?$AAs?$AA?$AA@ 00000001800375f8     libucrt:get_qualified_locale.obj
 0002:0000c610       ??_C@_1BO@HFFNLENJ@?$AAe?$AAn?$AAg?$AAl?$AAi?$AAs?$AAh?$AA?9?$AAb?$AAe?$AAl?$AAi?$AAz?$AAe?$AA?$AA@ 0000000180037610     libucrt:get_qualified_locale.obj
 0002:0000c630       ??_C@_1BI@HAPKJMPO@?$AAe?$AAn?$AAg?$AAl?$AAi?$AAs?$AAh?$AA?9?$AAc?$AAa?$AAn?$AA?$AA@ 0000000180037630     libucrt:get_qualified_locale.obj
 0002:0000c648       ??_C@_1CE@HLNDMIOJ@?$AAe?$AAn?$AAg?$AAl?$AAi?$AAs?$AAh?$AA?9?$AAc?$AAa?$AAr?$AAi?$AAb?$AAb?$AAe?$AAa?$AAn?$AA?$AA@ 0000000180037648     libucrt:get_qualified_locale.obj
 0002:0000c670       ??_C@_1BI@LDHJHHAC@?$AAe?$AAn?$AAg?$AAl?$AAi?$AAs?$AAh?$AA?9?$AAi?$AAr?$AAe?$AA?$AA@ 0000000180037670     libucrt:get_qualified_locale.obj
 0002:0000c688       ??_C@_1CA@NJMMCFOC@?$AAe?$AAn?$AAg?$AAl?$AAi?$AAs?$AAh?$AA?9?$AAj?$AAa?$AAm?$AAa?$AAi?$AAc?$AAa?$AA?$AA@ 0000000180037688     libucrt:get_qualified_locale.obj
 0002:0000c6a8       ??_C@_1BG@BHJEBBGG@?$AAe?$AAn?$AAg?$AAl?$AAi?$AAs?$AAh?$AA?9?$AAn?$AAz?$AA?$AA@ 00000001800376a8     libucrt:get_qualified_locale.obj
 0002:0000c6c0       ??_C@_1CK@FGOEJJCO@?$AAe?$AAn?$AAg?$AAl?$AAi?$AAs?$AAh?$AA?9?$AAs?$AAo?$AAu?$AAt?$AAh?$AA?5?$AAa?$AAf?$AAr?$AAi?$AAc?$AAa?$AA?$AA@ 00000001800376c0     libucrt:get_qualified_locale.obj
 0002:0000c6f0       ??_C@_1DE@PDBJPCJ@?$AAe?$AAn?$AAg?$AAl?$AAi?$AAs?$AAh?$AA?9?$AAt?$AAr?$AAi?$AAn?$AAi?$AAd?$AAa?$AAd?$AA?5?$AAy?$AA?5?$AAt?$AAo?$AAb?$AAa?$AAg?$AAo?$AA?$AA@ 00000001800376f0     libucrt:get_qualified_locale.obj
 0002:0000c728       ??_C@_1BG@JGCANDME@?$AAe?$AAn?$AAg?$AAl?$AAi?$AAs?$AAh?$AA?9?$AAu?$AAk?$AA?$AA@ 0000000180037728     libucrt:get_qualified_locale.obj
 0002:0000c740       ??_C@_1BG@DINKMLE@?$AAe?$AAn?$AAg?$AAl?$AAi?$AAs?$AAh?$AA?9?$AAu?$AAs?$AA?$AA@ 0000000180037740     libucrt:get_qualified_locale.obj
 0002:0000c758       ??_C@_1BI@NMFDBHJE@?$AAe?$AAn?$AAg?$AAl?$AAi?$AAs?$AAh?$AA?9?$AAu?$AAs?$AAa?$AA?$AA@ 0000000180037758     libucrt:get_qualified_locale.obj
 0002:0000c770       ??_C@_1BO@OIHKJKII@?$AAf?$AAr?$AAe?$AAn?$AAc?$AAh?$AA?9?$AAb?$AAe?$AAl?$AAg?$AAi?$AAa?$AAn?$AA?$AA@ 0000000180037770     libucrt:get_qualified_locale.obj
 0002:0000c790       ??_C@_1CA@NKAELJKI@?$AAf?$AAr?$AAe?$AAn?$AAc?$AAh?$AA?9?$AAc?$AAa?$AAn?$AAa?$AAd?$AAi?$AAa?$AAn?$AA?$AA@ 0000000180037790     libucrt:get_qualified_locale.obj
 0002:0000c7b0       ??_C@_1CE@MGKCNLGN@?$AAf?$AAr?$AAe?$AAn?$AAc?$AAh?$AA?9?$AAl?$AAu?$AAx?$AAe?$AAm?$AAb?$AAo?$AAu?$AAr?$AAg?$AA?$AA@ 00000001800377b0     libucrt:get_qualified_locale.obj
 0002:0000c7d8       ??_C@_1BK@CEGEAILM@?$AAf?$AAr?$AAe?$AAn?$AAc?$AAh?$AA?9?$AAs?$AAw?$AAi?$AAs?$AAs?$AA?$AA@ 00000001800377d8     libucrt:get_qualified_locale.obj
 0002:0000c7f8       ??_C@_1CA@PAFKEOCC@?$AAg?$AAe?$AAr?$AAm?$AAa?$AAn?$AA?9?$AAa?$AAu?$AAs?$AAt?$AAr?$AAi?$AAa?$AAn?$AA?$AA@ 00000001800377f8     libucrt:get_qualified_locale.obj
 0002:0000c818       ??_C@_1CI@HCFHGOFD@?$AAg?$AAe?$AAr?$AAm?$AAa?$AAn?$AA?9?$AAl?$AAi?$AAc?$AAh?$AAt?$AAe?$AAn?$AAs?$AAt?$AAe?$AAi?$AAn?$AA?$AA@ 0000000180037818     libucrt:get_qualified_locale.obj
 0002:0000c840       ??_C@_1CE@FEDDNPDG@?$AAg?$AAe?$AAr?$AAm?$AAa?$AAn?$AA?9?$AAl?$AAu?$AAx?$AAe?$AAm?$AAb?$AAo?$AAu?$AAr?$AAg?$AA?$AA@ 0000000180037840     libucrt:get_qualified_locale.obj
 0002:0000c868       ??_C@_1BK@LIMINNMN@?$AAg?$AAe?$AAr?$AAm?$AAa?$AAn?$AA?9?$AAs?$AAw?$AAi?$AAs?$AAs?$AA?$AA@ 0000000180037868     libucrt:get_qualified_locale.obj
 0002:0000c888       ??_C@_1BM@LGMDBEPD@?$AAi?$AAr?$AAi?$AAs?$AAh?$AA?9?$AAe?$AAn?$AAg?$AAl?$AAi?$AAs?$AAh?$AA?$AA@ 0000000180037888     libucrt:get_qualified_locale.obj
 0002:0000c8a8       ??_C@_1BM@NNCFBAEE@?$AAi?$AAt?$AAa?$AAl?$AAi?$AAa?$AAn?$AA?9?$AAs?$AAw?$AAi?$AAs?$AAs?$AA?$AA@ 00000001800378a8     libucrt:get_qualified_locale.obj
 0002:0000c8c8       ??_C@_1BE@FEDJNPIB@?$AAn?$AAo?$AAr?$AAw?$AAe?$AAg?$AAi?$AAa?$AAn?$AA?$AA@ 00000001800378c8     libucrt:get_qualified_locale.obj
 0002:0000c8e0       ??_C@_1CC@CILKDEIE@?$AAn?$AAo?$AAr?$AAw?$AAe?$AAg?$AAi?$AAa?$AAn?$AA?9?$AAb?$AAo?$AAk?$AAm?$AAa?$AAl?$AA?$AA@ 00000001800378e0     libucrt:get_qualified_locale.obj
 0002:0000c908       ??_C@_1CE@DHMMHEPL@?$AAn?$AAo?$AAr?$AAw?$AAe?$AAg?$AAi?$AAa?$AAn?$AA?9?$AAn?$AAy?$AAn?$AAo?$AAr?$AAs?$AAk?$AA?$AA@ 0000000180037908     libucrt:get_qualified_locale.obj
 0002:0000c930       ??_C@_1CK@OPNMHECD@?$AAp?$AAo?$AAr?$AAt?$AAu?$AAg?$AAu?$AAe?$AAs?$AAe?$AA?9?$AAb?$AAr?$AAa?$AAz?$AAi?$AAl?$AAi?$AAa?$AAn?$AA?$AA@ 0000000180037930     libucrt:get_qualified_locale.obj
 0002:0000c960       ??_C@_1CE@KEEHCDB@?$AAs?$AAp?$AAa?$AAn?$AAi?$AAs?$AAh?$AA?9?$AAa?$AAr?$AAg?$AAe?$AAn?$AAt?$AAi?$AAn?$AAa?$AA?$AA@ 0000000180037960     libucrt:get_qualified_locale.obj
 0002:0000c988       ??_C@_1CA@GIAOLHJD@?$AAs?$AAp?$AAa?$AAn?$AAi?$AAs?$AAh?$AA?9?$AAb?$AAo?$AAl?$AAi?$AAv?$AAi?$AAa?$AA?$AA@ 0000000180037988     libucrt:get_qualified_locale.obj
 0002:0000c9a8       ??_C@_1BM@OJNDFNPD@?$AAs?$AAp?$AAa?$AAn?$AAi?$AAs?$AAh?$AA?9?$AAc?$AAh?$AAi?$AAl?$AAe?$AA?$AA@ 00000001800379a8     libucrt:get_qualified_locale.obj
 0002:0000c9c8       ??_C@_1CC@OCOLPALL@?$AAs?$AAp?$AAa?$AAn?$AAi?$AAs?$AAh?$AA?9?$AAc?$AAo?$AAl?$AAo?$AAm?$AAb?$AAi?$AAa?$AA?$AA@ 00000001800379c8     libucrt:get_qualified_locale.obj
 0002:0000c9f0       ??_C@_1CG@BPOFMKBB@?$AAs?$AAp?$AAa?$AAn?$AAi?$AAs?$AAh?$AA?9?$AAc?$AAo?$AAs?$AAt?$AAa?$AA?5?$AAr?$AAi?$AAc?$AAa?$AA?$AA@ 00000001800379f0     libucrt:get_qualified_locale.obj
 0002:0000ca18       ??_C@_1DG@IGOBAPBB@?$AAs?$AAp?$AAa?$AAn?$AAi?$AAs?$AAh?$AA?9?$AAd?$AAo?$AAm?$AAi?$AAn?$AAi?$AAc?$AAa?$AAn?$AA?5?$AAr?$AAe?$AAp?$AAu?$AAb?$AAl?$AAi?$AAc?$AA?$AA@ 0000000180037a18     libucrt:get_qualified_locale.obj
 0002:0000ca50       ??_C@_1CA@JHAPGEGI@?$AAs?$AAp?$AAa?$AAn?$AAi?$AAs?$AAh?$AA?9?$AAe?$AAc?$AAu?$AAa?$AAd?$AAo?$AAr?$AA?$AA@ 0000000180037a50     libucrt:get_qualified_locale.obj
 0002:0000ca70       ??_C@_1CI@LAPALJPP@?$AAs?$AAp?$AAa?$AAn?$AAi?$AAs?$AAh?$AA?9?$AAe?$AAl?$AA?5?$AAs?$AAa?$AAl?$AAv?$AAa?$AAd?$AAo?$AAr?$AA?$AA@ 0000000180037a70     libucrt:get_qualified_locale.obj
 0002:0000ca98       ??_C@_1CE@PDGBOFOM@?$AAs?$AAp?$AAa?$AAn?$AAi?$AAs?$AAh?$AA?9?$AAg?$AAu?$AAa?$AAt?$AAe?$AAm?$AAa?$AAl?$AAa?$AA?$AA@ 0000000180037a98     libucrt:get_qualified_locale.obj
 0002:0000cac0       ??_C@_1CC@NBEBAODI@?$AAs?$AAp?$AAa?$AAn?$AAi?$AAs?$AAh?$AA?9?$AAh?$AAo?$AAn?$AAd?$AAu?$AAr?$AAa?$AAs?$AA?$AA@ 0000000180037ac0     libucrt:get_qualified_locale.obj
 0002:0000cae8       ??_C@_1CA@LLKGHBMF@?$AAs?$AAp?$AAa?$AAn?$AAi?$AAs?$AAh?$AA?9?$AAm?$AAe?$AAx?$AAi?$AAc?$AAa?$AAn?$AA?$AA@ 0000000180037ae8     libucrt:get_qualified_locale.obj
 0002:0000cb08       ??_C@_1BO@LKNDOIGD@?$AAs?$AAp?$AAa?$AAn?$AAi?$AAs?$AAh?$AA?9?$AAm?$AAo?$AAd?$AAe?$AAr?$AAn?$AA?$AA@ 0000000180037b08     libucrt:get_qualified_locale.obj
 0002:0000cb28       ??_C@_1CE@NMDMOEEB@?$AAs?$AAp?$AAa?$AAn?$AAi?$AAs?$AAh?$AA?9?$AAn?$AAi?$AAc?$AAa?$AAr?$AAa?$AAg?$AAu?$AAa?$AA?$AA@ 0000000180037b28     libucrt:get_qualified_locale.obj
 0002:0000cb50       ??_C@_1BO@LLCBEJGB@?$AAs?$AAp?$AAa?$AAn?$AAi?$AAs?$AAh?$AA?9?$AAp?$AAa?$AAn?$AAa?$AAm?$AAa?$AA?$AA@ 0000000180037b50     libucrt:get_qualified_locale.obj
 0002:0000cb70       ??_C@_1CC@FKPGGIHO@?$AAs?$AAp?$AAa?$AAn?$AAi?$AAs?$AAh?$AA?9?$AAp?$AAa?$AAr?$AAa?$AAg?$AAu?$AAa?$AAy?$AA?$AA@ 0000000180037b70     libucrt:get_qualified_locale.obj
 0002:0000cb98       ??_C@_1BK@CDEIHOOP@?$AAs?$AAp?$AAa?$AAn?$AAi?$AAs?$AAh?$AA?9?$AAp?$AAe?$AAr?$AAu?$AA?$AA@ 0000000180037b98     libucrt:get_qualified_locale.obj
 0002:0000cbb8       ??_C@_1CI@GAHAKKGP@?$AAs?$AAp?$AAa?$AAn?$AAi?$AAs?$AAh?$AA?9?$AAp?$AAu?$AAe?$AAr?$AAt?$AAo?$AA?5?$AAr?$AAi?$AAc?$AAo?$AA?$AA@ 0000000180037bb8     libucrt:get_qualified_locale.obj
 0002:0000cbe0       ??_C@_1CA@NKJBCAGP@?$AAs?$AAp?$AAa?$AAn?$AAi?$AAs?$AAh?$AA?9?$AAu?$AAr?$AAu?$AAg?$AAu?$AAa?$AAy?$AA?$AA@ 0000000180037be0     libucrt:get_qualified_locale.obj
 0002:0000cc00       ??_C@_1CE@ODILCONM@?$AAs?$AAp?$AAa?$AAn?$AAi?$AAs?$AAh?$AA?9?$AAv?$AAe?$AAn?$AAe?$AAz?$AAu?$AAe?$AAl?$AAa?$AA?$AA@ 0000000180037c00     libucrt:get_qualified_locale.obj
 0002:0000cc28       ??_C@_1CA@OBNMCGFO@?$AAs?$AAw?$AAe?$AAd?$AAi?$AAs?$AAh?$AA?9?$AAf?$AAi?$AAn?$AAl?$AAa?$AAn?$AAd?$AA?$AA@ 0000000180037c28     libucrt:get_qualified_locale.obj
 0002:0000cc48       ??_C@_1M@PIPDDPPI@?$AAs?$AAw?$AAi?$AAs?$AAs?$AA?$AA@ 0000000180037c48     libucrt:get_qualified_locale.obj
 0002:0000cc54       ??_C@_15PJPFLCCM@?$AAu?$AAk?$AA?$AA@ 0000000180037c54     libucrt:get_qualified_locale.obj
 0002:0000cc5c       ??_C@_15GMFIMNFM@?$AAu?$AAs?$AA?$AA@ 0000000180037c5c     libucrt:get_qualified_locale.obj
 0002:0000cc68       ??_C@_17HAEBFAGL@?$AAu?$AAs?$AAa?$AA?$AA@ 0000000180037c68     libucrt:get_qualified_locale.obj
 0002:0000cc70       ??_C@_1BA@DPFJEPHB@?$AAa?$AAm?$AAe?$AAr?$AAi?$AAc?$AAa?$AA?$AA@ 0000000180037c70     libucrt:get_qualified_locale.obj
 0002:0000cc80       ??_C@_1BA@ELOGGFK@?$AAb?$AAr?$AAi?$AAt?$AAa?$AAi?$AAn?$AA?$AA@ 0000000180037c80     libucrt:get_qualified_locale.obj
 0002:0000cc90       ??_C@_1M@GHBGIGDA@?$AAc?$AAh?$AAi?$AAn?$AAa?$AA?$AA@ 0000000180037c90     libucrt:get_qualified_locale.obj
 0002:0000cca0       ??_C@_1M@NCHEJOPO@?$AAc?$AAz?$AAe?$AAc?$AAh?$AA?$AA@ 0000000180037ca0     libucrt:get_qualified_locale.obj
 0002:0000ccb0       ??_C@_1BA@BKPAPBLA@?$AAe?$AAn?$AAg?$AAl?$AAa?$AAn?$AAd?$AA?$AA@ 0000000180037cb0     libucrt:get_qualified_locale.obj
 0002:0000ccc0       ??_C@_1BM@HKBCKIPC@?$AAg?$AAr?$AAe?$AAa?$AAt?$AA?5?$AAb?$AAr?$AAi?$AAt?$AAa?$AAi?$AAn?$AA?$AA@ 0000000180037cc0     libucrt:get_qualified_locale.obj
 0002:0000cce0       ??_C@_1BA@PPCHPGJB@?$AAh?$AAo?$AAl?$AAl?$AAa?$AAn?$AAd?$AA?$AA@ 0000000180037ce0     libucrt:get_qualified_locale.obj
 0002:0000ccf0       ??_C@_1BE@JBMPEGDG@?$AAh?$AAo?$AAn?$AAg?$AA?9?$AAk?$AAo?$AAn?$AAg?$AA?$AA@ 0000000180037cf0     libucrt:get_qualified_locale.obj
 0002:0000cd08       ??_C@_1BI@KOELBBPJ@?$AAn?$AAe?$AAw?$AA?9?$AAz?$AAe?$AAa?$AAl?$AAa?$AAn?$AAd?$AA?$AA@ 0000000180037d08     libucrt:get_qualified_locale.obj
 0002:0000cd20       ??_C@_15HIEBHAIO@?$AAn?$AAz?$AA?$AA@ 0000000180037d20     libucrt:get_qualified_locale.obj
 0002:0000cd28       ??_C@_1BC@CHBCPFPI@?$AAp?$AAr?$AA?5?$AAc?$AAh?$AAi?$AAn?$AAa?$AA?$AA@ 0000000180037d28     libucrt:get_qualified_locale.obj
 0002:0000cd40       ??_C@_1BC@JAOIIFKD@?$AAp?$AAr?$AA?9?$AAc?$AAh?$AAi?$AAn?$AAa?$AA?$AA@ 0000000180037d40     libucrt:get_qualified_locale.obj
 0002:0000cd58       ??_C@_1BI@BEHPPHKC@?$AAp?$AAu?$AAe?$AAr?$AAt?$AAo?$AA?9?$AAr?$AAi?$AAc?$AAo?$AA?$AA@ 0000000180037d58     libucrt:get_qualified_locale.obj
 0002:0000cd70       ??_C@_1O@PAEOFKDI@?$AAs?$AAl?$AAo?$AAv?$AAa?$AAk?$AA?$AA@ 0000000180037d70     libucrt:get_qualified_locale.obj
 0002:0000cd80       ??_C@_1BK@FIHMCKAM@?$AAs?$AAo?$AAu?$AAt?$AAh?$AA?5?$AAa?$AAf?$AAr?$AAi?$AAc?$AAa?$AA?$AA@ 0000000180037d80     libucrt:get_qualified_locale.obj
 0002:0000cda0       ??_C@_1BI@NAEOODKB@?$AAs?$AAo?$AAu?$AAt?$AAh?$AA?5?$AAk?$AAo?$AAr?$AAe?$AAa?$AA?$AA@ 0000000180037da0     libucrt:get_qualified_locale.obj
 0002:0000cdb8       ??_C@_1BK@FBDGGIFF@?$AAs?$AAo?$AAu?$AAt?$AAh?$AA?9?$AAa?$AAf?$AAr?$AAi?$AAc?$AAa?$AA?$AA@ 0000000180037db8     libucrt:get_qualified_locale.obj
 0002:0000cdd8       ??_C@_1BI@GHLEJDPK@?$AAs?$AAo?$AAu?$AAt?$AAh?$AA?9?$AAk?$AAo?$AAr?$AAe?$AAa?$AA?$AA@ 0000000180037dd8     libucrt:get_qualified_locale.obj
 0002:0000cdf0       ??_C@_1CE@PLHLOMJF@?$AAt?$AAr?$AAi?$AAn?$AAi?$AAd?$AAa?$AAd?$AA?5?$AA?$CG?$AA?5?$AAt?$AAo?$AAb?$AAa?$AAg?$AAo?$AA?$AA@ 0000000180037df0     libucrt:get_qualified_locale.obj
 0002:0000ce18       ??_C@_1BO@MODIMHHI@?$AAu?$AAn?$AAi?$AAt?$AAe?$AAd?$AA?9?$AAk?$AAi?$AAn?$AAg?$AAd?$AAo?$AAm?$AA?$AA@ 0000000180037e18     libucrt:get_qualified_locale.obj
 0002:0000ce38       ??_C@_1BM@FFHJONBJ@?$AAu?$AAn?$AAi?$AAt?$AAe?$AAd?$AA?9?$AAs?$AAt?$AAa?$AAt?$AAe?$AAs?$AA?$AA@ 0000000180037e38     libucrt:get_qualified_locale.obj
 0002:0000ce58       ??_C@_17DNCLJFIF@?$AAA?$AAC?$AAP?$AA?$AA@ 0000000180037e58     libucrt:get_qualified_locale.obj
 0002:0000ce60       ??_C@_17CIKBIHLH@?$AAO?$AAC?$AAP?$AA?$AA@ 0000000180037e60     libucrt:get_qualified_locale.obj
 0002:0000ce68       __rglangidNotDefault       0000000180037e68     libucrt:getqloc_downlevel.obj
 0002:0000dcd0       ??_C@_15EMKDOKLE@?$AAa?$AAr?$AA?$AA@ 0000000180038cd0     libucrt:lcidtoname_downlevel.obj
 0002:0000dcd8       ??_C@_15KNPADPLH@?$AAb?$AAg?$AA?$AA@ 0000000180038cd8     libucrt:lcidtoname_downlevel.obj
 0002:0000dce0       ??_C@_15EDMHLDMO@?$AAc?$AAa?$AA?$AA@ 0000000180038ce0     libucrt:lcidtoname_downlevel.obj
 0002:0000dce8       ??_C@_1O@BPEAJADD@?$AAz?$AAh?$AA?9?$AAC?$AAH?$AAS?$AA?$AA@ 0000000180038ce8     libucrt:lcidtoname_downlevel.obj
 0002:0000dcf8       ??_C@_15LJNHCMNK@?$AAc?$AAs?$AA?$AA@ 0000000180038cf8     libucrt:lcidtoname_downlevel.obj
 0002:0000dd00       ??_C@_15FOMCIDHG@?$AAd?$AAa?$AA?$AA@ 0000000180038d00     libucrt:lcidtoname_downlevel.obj
 0002:0000dd08       ??_C@_15NBKABECB@?$AAd?$AAe?$AA?$AA@ 0000000180038d08     libucrt:lcidtoname_downlevel.obj
 0002:0000dd10       ??_C@_15GHPEIIAO@?$AAe?$AAl?$AA?$AA@ 0000000180038d10     libucrt:lcidtoname_downlevel.obj
 0002:0000dd18       ??_C@_15MNPNEAIF@?$AAe?$AAn?$AA?$AA@ 0000000180038d18     libucrt:lcidtoname_downlevel.obj
 0002:0000dd20       ??_C@_15GPIOMPMH@?$AAe?$AAs?$AA?$AA@ 0000000180038d20     libucrt:lcidtoname_downlevel.obj
 0002:0000dd28       ??_C@_15NGLOAKJC@?$AAf?$AAi?$AA?$AA@ 0000000180038d28     libucrt:lcidtoname_downlevel.obj
 0002:0000dd30       ??_C@_15FBKGNKAM@?$AAf?$AAr?$AA?$AA@ 0000000180038d30     libucrt:lcidtoname_downlevel.obj
 0002:0000dd38       ??_C@_15KGGCNEFK@?$AAh?$AAe?$AA?$AA@ 0000000180038d38     libucrt:lcidtoname_downlevel.obj
 0002:0000dd40       ??_C@_15PGHLIDMF@?$AAh?$AAu?$AA?$AA@ 0000000180038d40     libucrt:lcidtoname_downlevel.obj
 0002:0000dd48       ??_C@_15BIEMAPLM@?$AAi?$AAs?$AA?$AA@ 0000000180038d48     libucrt:lcidtoname_downlevel.obj
 0002:0000dd50       ??_C@_15IFJLDHAF@?$AAi?$AAt?$AA?$AA@ 0000000180038d50     libucrt:lcidtoname_downlevel.obj
 0002:0000dd58       ??_C@_15GEMIOCAG@?$AAj?$AAa?$AA?$AA@ 0000000180038d58     libucrt:lcidtoname_downlevel.obj
 0002:0000dd60       ??_C@_15EPELEGJA@?$AAk?$AAo?$AA?$AA@ 0000000180038d60     libucrt:lcidtoname_downlevel.obj
 0002:0000dd68       ??_C@_15NDDHIMN@?$AAn?$AAl?$AA?$AA@ 0000000180038d68     libucrt:lcidtoname_downlevel.obj
 0002:0000dd70       ??_C@_15BPIGNHCD@?$AAn?$AAo?$AA?$AA@ 0000000180038d70     libucrt:lcidtoname_downlevel.obj
 0002:0000dd78       ??_C@_15DEOPBLCG@?$AAp?$AAl?$AA?$AA@ 0000000180038d78     libucrt:lcidtoname_downlevel.obj
 0002:0000dd80       ??_C@_15KBECGEFG@?$AAp?$AAt?$AA?$AA@ 0000000180038d80     libucrt:lcidtoname_downlevel.obj
 0002:0000dd88       ??_C@_15GLJCBFMD@?$AAr?$AAo?$AA?$AA@ 0000000180038d88     libucrt:lcidtoname_downlevel.obj
 0002:0000dd90       ??_C@_15FEDGKCDI@?$AAr?$AAu?$AA?$AA@ 0000000180038d90     libucrt:lcidtoname_downlevel.obj
 0002:0000dd98       ??_C@_15GLKMLLHM@?$AAh?$AAr?$AA?$AA@ 0000000180038d98     libucrt:lcidtoname_downlevel.obj
 0002:0000dda0       ??_C@_15CPKMFBDB@?$AAs?$AAk?$AA?$AA@ 0000000180038da0     libucrt:lcidtoname_downlevel.obj
 0002:0000dda8       ??_C@_15BAAIOGMK@?$AAs?$AAq?$AA?$AA@ 0000000180038da8     libucrt:lcidtoname_downlevel.obj
 0002:0000ddb0       ??_C@_15INNPNOHD@?$AAs?$AAv?$AA?$AA@ 0000000180038db0     libucrt:lcidtoname_downlevel.obj
 0002:0000ddb8       ??_C@_15CABMMOGH@?$AAt?$AAh?$AA?$AA@ 0000000180038db8     libucrt:lcidtoname_downlevel.obj
 0002:0000ddc0       ??_C@_15BPLIHJJM@?$AAt?$AAr?$AA?$AA@ 0000000180038dc0     libucrt:lcidtoname_downlevel.obj
 0002:0000ddc8       ??_C@_15NEOEKKDJ@?$AAu?$AAr?$AA?$AA@ 0000000180038dc8     libucrt:lcidtoname_downlevel.obj
 0002:0000ddd0       ??_C@_15NFICGAJK@?$AAi?$AAd?$AA?$AA@ 0000000180038dd0     libucrt:lcidtoname_downlevel.obj
 0002:0000ddd8       ??_C@_15HPJPHDM@?$AAb?$AAe?$AA?$AA@ 0000000180038dd8     libucrt:lcidtoname_downlevel.obj
 0002:0000dde0       ??_C@_15LCHLGJII@?$AAs?$AAl?$AA?$AA@ 0000000180038de0     libucrt:lcidtoname_downlevel.obj
 0002:0000dde8       ??_C@_15PCFJPHHO@?$AAe?$AAt?$AA?$AA@ 0000000180038de8     libucrt:lcidtoname_downlevel.obj
 0002:0000ddf0       ??_C@_15HPFPGODN@?$AAl?$AAv?$AA?$AA@ 0000000180038df0     libucrt:lcidtoname_downlevel.obj
 0002:0000ddf8       ??_C@_15NFFGKGLG@?$AAl?$AAt?$AA?$AA@ 0000000180038df8     libucrt:lcidtoname_downlevel.obj
 0002:0000de00       ??_C@_15BDAKCCHN@?$AAf?$AAa?$AA?$AA@ 0000000180038e00     libucrt:lcidtoname_downlevel.obj
 0002:0000de08       ??_C@_15NFGIAIAJ@?$AAv?$AAi?$AA?$AA@ 0000000180038e08     libucrt:lcidtoname_downlevel.obj
 0002:0000de10       ??_C@_15LMKNDMHN@?$AAh?$AAy?$AA?$AA@ 0000000180038e10     libucrt:lcidtoname_downlevel.obj
 0002:0000de18       ??_C@_15IJBHMCFL@?$AAa?$AAz?$AA?$AA@ 0000000180038e18     libucrt:lcidtoname_downlevel.obj
 0002:0000de20       ??_C@_15EKOFJABL@?$AAe?$AAu?$AA?$AA@ 0000000180038e20     libucrt:lcidtoname_downlevel.obj
 0002:0000de28       ??_C@_15BGHADCNK@?$AAm?$AAk?$AA?$AA@ 0000000180038e28     libucrt:lcidtoname_downlevel.obj
 0002:0000de30       ??_C@_15JDNICKHM@?$AAa?$AAf?$AA?$AA@ 0000000180038e30     libucrt:lcidtoname_downlevel.obj
 0002:0000de38       ??_C@_15KPJEDBKD@?$AAk?$AAa?$AA?$AA@ 0000000180038e38     libucrt:lcidtoname_downlevel.obj
 0002:0000de40       ??_C@_15PDNFFFEO@?$AAf?$AAo?$AA?$AA@ 0000000180038e40     libucrt:lcidtoname_downlevel.obj
 0002:0000de48       ??_C@_15OMLEGLOC@?$AAh?$AAi?$AA?$AA@ 0000000180038e48     libucrt:lcidtoname_downlevel.obj
 0002:0000de50       ??_C@_15IDNNENKK@?$AAm?$AAs?$AA?$AA@ 0000000180038e50     libucrt:lcidtoname_downlevel.obj
 0002:0000de58       ??_C@_15MACJNBMH@?$AAk?$AAk?$AA?$AA@ 0000000180038e58     libucrt:lcidtoname_downlevel.obj
 0002:0000de60       ??_C@_15DKDJEOND@?$AAk?$AAy?$AA?$AA@ 0000000180038e60     libucrt:lcidtoname_downlevel.obj
 0002:0000de68       ??_C@_15DFGDLJBG@?$AAs?$AAw?$AA?$AA@ 0000000180038e68     libucrt:lcidtoname_downlevel.obj
 0002:0000de70       ??_C@_15BBFAICNG@?$AAu?$AAz?$AA?$AA@ 0000000180038e70     libucrt:lcidtoname_downlevel.obj
 0002:0000de78       ??_C@_15DKNDCGEA@?$AAt?$AAt?$AA?$AA@ 0000000180038e78     libucrt:lcidtoname_downlevel.obj
 0002:0000de80       ??_C@_15MGIFMDPL@?$AAp?$AAa?$AA?$AA@ 0000000180038e80     libucrt:lcidtoname_downlevel.obj
 0002:0000de88       ??_C@_15HCNDBBA@?$AAg?$AAu?$AA?$AA@ 0000000180038e88     libucrt:lcidtoname_downlevel.obj
 0002:0000de90       ??_C@_15FNBEIBON@?$AAt?$AAa?$AA?$AA@ 0000000180038e90     libucrt:lcidtoname_downlevel.obj
 0002:0000de98       ??_C@_15NCHGBGLK@?$AAt?$AAe?$AA?$AA@ 0000000180038e98     libucrt:lcidtoname_downlevel.obj
 0002:0000dea0       ??_C@_15PHPHCBPF@?$AAk?$AAn?$AA?$AA@ 0000000180038ea0     libucrt:lcidtoname_downlevel.obj
 0002:0000dea8       ??_C@_15DLGBCKMP@?$AAm?$AAr?$AA?$AA@ 0000000180038ea8     libucrt:lcidtoname_downlevel.obj
 0002:0000deb0       ??_C@_15EABBLBFF@?$AAs?$AAa?$AA?$AA@ 0000000180038eb0     libucrt:lcidtoname_downlevel.obj
 0002:0000deb8       ??_C@_15CBKOMCOI@?$AAm?$AAn?$AA?$AA@ 0000000180038eb8     libucrt:lcidtoname_downlevel.obj
 0002:0000dec0       ??_C@_15CKDMCJAF@?$AAg?$AAl?$AA?$AA@ 0000000180038ec0     libucrt:lcidtoname_downlevel.obj
 0002:0000dec8       ??_C@_17CNJFBPG@?$AAk?$AAo?$AAk?$AA?$AA@ 0000000180038ec8     libucrt:lcidtoname_downlevel.obj
 0002:0000ded0       ??_C@_17FFBJICPL@?$AAs?$AAy?$AAr?$AA?$AA@ 0000000180038ed0     libucrt:lcidtoname_downlevel.obj
 0002:0000ded8       ??_C@_17KPNDCPAF@?$AAd?$AAi?$AAv?$AA?$AA@ 0000000180038ed8     libucrt:lcidtoname_downlevel.obj
 0002:0000dee0       ??_C@_11LOCGONAA@?$AA?$AA@ 0000000180038ee0     libucrt:lcidtoname_downlevel.obj
 0002:0000dee8       ??_C@_1M@OKAHONE@?$AAa?$AAr?$AA?9?$AAS?$AAA?$AA?$AA@ 0000000180038ee8     libucrt:lcidtoname_downlevel.obj
 0002:0000def8       ??_C@_1M@FFFIGIGK@?$AAb?$AAg?$AA?9?$AAB?$AAG?$AA?$AA@ 0000000180038ef8     libucrt:lcidtoname_downlevel.obj
 0002:0000df08       ??_C@_1M@BJNKEDC@?$AAc?$AAa?$AA?9?$AAE?$AAS?$AA?$AA@ 0000000180038f08     libucrt:lcidtoname_downlevel.obj
 0002:0000df18       ??_C@_1M@IJJHFJHA@?$AAc?$AAs?$AA?9?$AAC?$AAZ?$AA?$AA@ 0000000180038f18     libucrt:lcidtoname_downlevel.obj
 0002:0000df28       ??_C@_1M@CLPEOBGI@?$AAd?$AAa?$AA?9?$AAD?$AAK?$AA?$AA@ 0000000180038f28     libucrt:lcidtoname_downlevel.obj
 0002:0000df38       ??_C@_1M@MCMADGCB@?$AAd?$AAe?$AA?9?$AAD?$AAE?$AA?$AA@ 0000000180038f38     libucrt:lcidtoname_downlevel.obj
 0002:0000df48       ??_C@_1M@OOCKEMAM@?$AAe?$AAl?$AA?9?$AAG?$AAR?$AA?$AA@ 0000000180038f48     libucrt:lcidtoname_downlevel.obj
 0002:0000df58       ??_C@_1M@DDNJFGID@?$AAf?$AAi?$AA?9?$AAF?$AAI?$AA?$AA@ 0000000180038f58     libucrt:lcidtoname_downlevel.obj
 0002:0000df68       ??_C@_1M@GLIPPMAC@?$AAf?$AAr?$AA?9?$AAF?$AAR?$AA?$AA@ 0000000180038f68     libucrt:lcidtoname_downlevel.obj
 0002:0000df78       ??_C@_1M@GFMCHPE@?$AAh?$AAe?$AA?9?$AAI?$AAL?$AA?$AA@ 0000000180038f78     libucrt:lcidtoname_downlevel.obj
 0002:0000df88       ??_C@_1M@MHLPGNKM@?$AAh?$AAu?$AA?9?$AAH?$AAU?$AA?$AA@ 0000000180038f88     libucrt:lcidtoname_downlevel.obj
 0002:0000df98       ??_C@_1M@LPDDNNPN@?$AAi?$AAs?$AA?9?$AAI?$AAS?$AA?$AA@ 0000000180038f98     libucrt:lcidtoname_downlevel.obj
 0002:0000dfa8       ??_C@_1M@MADIPODN@?$AAi?$AAt?$AA?9?$AAI?$AAT?$AA?$AA@ 0000000180038fa8     libucrt:lcidtoname_downlevel.obj
 0002:0000dfb8       ??_C@_1M@IHBJJGG@?$AAn?$AAl?$AA?9?$AAN?$AAL?$AA?$AA@ 0000000180038fb8     libucrt:lcidtoname_downlevel.obj
 0002:0000dfc8       ??_C@_1M@EANAGDL@?$AAn?$AAb?$AA?9?$AAN?$AAO?$AA?$AA@ 0000000180038fc8     libucrt:lcidtoname_downlevel.obj
 0002:0000dfd8       ??_C@_1M@NEIEMEGP@?$AAp?$AAl?$AA?9?$AAP?$AAL?$AA?$AA@ 0000000180038fd8     libucrt:lcidtoname_downlevel.obj
 0002:0000dfe8       ??_C@_1M@BOCFIGEP@?$AAp?$AAt?$AA?9?$AAB?$AAR?$AA?$AA@ 0000000180038fe8     libucrt:lcidtoname_downlevel.obj
 0002:0000dff8       ??_C@_1M@IMPFOPBG@?$AAr?$AAo?$AA?9?$AAR?$AAO?$AA?$AA@ 0000000180038ff8     libucrt:lcidtoname_downlevel.obj
 0002:0000e008       ??_C@_1M@IDNNEJMM@?$AAr?$AAu?$AA?9?$AAR?$AAU?$AA?$AA@ 0000000180039008     libucrt:lcidtoname_downlevel.obj
 0002:0000e018       ??_C@_1M@LILEEOGM@?$AAh?$AAr?$AA?9?$AAH?$AAR?$AA?$AA@ 0000000180039018     libucrt:lcidtoname_downlevel.obj
 0002:0000e028       ??_C@_1M@FKIFEHPB@?$AAs?$AAk?$AA?9?$AAS?$AAK?$AA?$AA@ 0000000180039028     libucrt:lcidtoname_downlevel.obj
 0002:0000e038       ??_C@_1M@LJMAMNPJ@?$AAs?$AAq?$AA?9?$AAA?$AAL?$AA?$AA@ 0000000180039038     libucrt:lcidtoname_downlevel.obj
 0002:0000e048       ??_C@_1M@GIAKDKJK@?$AAs?$AAv?$AA?9?$AAS?$AAE?$AA?$AA@ 0000000180039048     libucrt:lcidtoname_downlevel.obj
 0002:0000e058       ??_C@_1M@MKJKIKCL@?$AAt?$AAh?$AA?9?$AAT?$AAH?$AA?$AA@ 0000000180039058     libucrt:lcidtoname_downlevel.obj
 0002:0000e068       ??_C@_1M@MFLCCMPB@?$AAt?$AAr?$AA?9?$AAT?$AAR?$AA?$AA@ 0000000180039068     libucrt:lcidtoname_downlevel.obj
 0002:0000e078       ??_C@_1M@OIJHDKJN@?$AAu?$AAr?$AA?9?$AAP?$AAK?$AA?$AA@ 0000000180039078     libucrt:lcidtoname_downlevel.obj
 0002:0000e088       ??_C@_1M@LHIPCIEK@?$AAi?$AAd?$AA?9?$AAI?$AAD?$AA?$AA@ 0000000180039088     libucrt:lcidtoname_downlevel.obj
 0002:0000e098       ??_C@_1M@MFMOBGI@?$AAu?$AAk?$AA?9?$AAU?$AAA?$AA?$AA@ 0000000180039098     libucrt:lcidtoname_downlevel.obj
 0002:0000e0a8       ??_C@_1M@OBGLJIPL@?$AAb?$AAe?$AA?9?$AAB?$AAY?$AA?$AA@ 00000001800390a8     libucrt:lcidtoname_downlevel.obj
 0002:0000e0b8       ??_C@_1M@BCFAJEAD@?$AAs?$AAl?$AA?9?$AAS?$AAI?$AA?$AA@ 00000001800390b8     libucrt:lcidtoname_downlevel.obj
 0002:0000e0c8       ??_C@_1M@FKFFEDDN@?$AAe?$AAt?$AA?9?$AAE?$AAE?$AA?$AA@ 00000001800390c8     libucrt:lcidtoname_downlevel.obj
 0002:0000e0d8       ??_C@_1M@KGKKAACI@?$AAl?$AAv?$AA?9?$AAL?$AAV?$AA?$AA@ 00000001800390d8     libucrt:lcidtoname_downlevel.obj
 0002:0000e0e8       ??_C@_1M@IFGBIJO@?$AAl?$AAt?$AA?9?$AAL?$AAT?$AA?$AA@ 00000001800390e8     libucrt:lcidtoname_downlevel.obj
 0002:0000e0f8       ??_C@_1M@FGEAHEDM@?$AAf?$AAa?$AA?9?$AAI?$AAR?$AA?$AA@ 00000001800390f8     libucrt:lcidtoname_downlevel.obj
 0002:0000e108       ??_C@_1M@KBMAIBFN@?$AAv?$AAi?$AA?9?$AAV?$AAN?$AA?$AA@ 0000000180039108     libucrt:lcidtoname_downlevel.obj
 0002:0000e118       ??_C@_1M@GPCBKDJK@?$AAh?$AAy?$AA?9?$AAA?$AAM?$AA?$AA@ 0000000180039118     libucrt:lcidtoname_downlevel.obj
 0002:0000e128       ??_C@_1BG@BECMDDJB@?$AAa?$AAz?$AA?9?$AAA?$AAZ?$AA?9?$AAL?$AAa?$AAt?$AAn?$AA?$AA@ 0000000180039128     libucrt:lcidtoname_downlevel.obj
 0002:0000e140       ??_C@_1M@MAOFCAEA@?$AAe?$AAu?$AA?9?$AAE?$AAS?$AA?$AA@ 0000000180039140     libucrt:lcidtoname_downlevel.obj
 0002:0000e150       ??_C@_1M@IGHABKPI@?$AAm?$AAk?$AA?9?$AAM?$AAK?$AA?$AA@ 0000000180039150     libucrt:lcidtoname_downlevel.obj
 0002:0000e160       ??_C@_1M@IAIGNEJG@?$AAt?$AAn?$AA?9?$AAZ?$AAA?$AA?$AA@ 0000000180039160     libucrt:lcidtoname_downlevel.obj
 0002:0000e170       ??_C@_1M@IIJCOJFA@?$AAx?$AAh?$AA?9?$AAZ?$AAA?$AA?$AA@ 0000000180039170     libucrt:lcidtoname_downlevel.obj
 0002:0000e180       ??_C@_1M@LGPJHNJH@?$AAz?$AAu?$AA?9?$AAZ?$AAA?$AA?$AA@ 0000000180039180     libucrt:lcidtoname_downlevel.obj
 0002:0000e190       ??_C@_1M@HOKAOIO@?$AAa?$AAf?$AA?9?$AAZ?$AAA?$AA?$AA@ 0000000180039190     libucrt:lcidtoname_downlevel.obj
 0002:0000e1a0       ??_C@_1M@DPCLHLIE@?$AAk?$AAa?$AA?9?$AAG?$AAE?$AA?$AA@ 00000001800391a0     libucrt:lcidtoname_downlevel.obj
 0002:0000e1b0       ??_C@_1M@BLKMHJBI@?$AAf?$AAo?$AA?9?$AAF?$AAO?$AA?$AA@ 00000001800391b0     libucrt:lcidtoname_downlevel.obj
 0002:0000e1c0       ??_C@_1M@LGGJAPPB@?$AAh?$AAi?$AA?9?$AAI?$AAN?$AA?$AA@ 00000001800391c0     libucrt:lcidtoname_downlevel.obj
 0002:0000e1d0       ??_C@_1M@FIKPIHFE@?$AAm?$AAt?$AA?9?$AAM?$AAT?$AA?$AA@ 00000001800391d0     libucrt:lcidtoname_downlevel.obj
 0002:0000e1e0       ??_C@_1M@HEGGPBFA@?$AAs?$AAe?$AA?9?$AAN?$AAO?$AA?$AA@ 00000001800391e0     libucrt:lcidtoname_downlevel.obj
 0002:0000e1f0       ??_C@_1M@EIBJEEPA@?$AAm?$AAs?$AA?9?$AAM?$AAY?$AA?$AA@ 00000001800391f0     libucrt:lcidtoname_downlevel.obj
 0002:0000e200       ??_C@_1M@FHLBGMPP@?$AAk?$AAk?$AA?9?$AAK?$AAZ?$AA?$AA@ 0000000180039200     libucrt:lcidtoname_downlevel.obj
 0002:0000e210       ??_C@_1M@NGJJLCGI@?$AAk?$AAy?$AA?9?$AAK?$AAG?$AA?$AA@ 0000000180039210     libucrt:lcidtoname_downlevel.obj
 0002:0000e220       ??_C@_1M@GIENNBFC@?$AAs?$AAw?$AA?9?$AAK?$AAE?$AA?$AA@ 0000000180039220     libucrt:lcidtoname_downlevel.obj
 0002:0000e230       ??_C@_1BG@NDGMJIMJ@?$AAu?$AAz?$AA?9?$AAU?$AAZ?$AA?9?$AAL?$AAa?$AAt?$AAn?$AA?$AA@ 0000000180039230     libucrt:lcidtoname_downlevel.obj
 0002:0000e248       ??_C@_1M@IDCCIHBC@?$AAt?$AAt?$AA?9?$AAR?$AAU?$AA?$AA@ 0000000180039248     libucrt:lcidtoname_downlevel.obj
 0002:0000e258       ??_C@_1M@LOICPMOJ@?$AAb?$AAn?$AA?9?$AAI?$AAN?$AA?$AA@ 0000000180039258     libucrt:lcidtoname_downlevel.obj
 0002:0000e268       ??_C@_1M@KPKKNEAH@?$AAp?$AAa?$AA?9?$AAI?$AAN?$AA?$AA@ 0000000180039268     libucrt:lcidtoname_downlevel.obj
 0002:0000e278       ??_C@_1M@PJGPPBOG@?$AAg?$AAu?$AA?9?$AAI?$AAN?$AA?$AA@ 0000000180039278     libucrt:lcidtoname_downlevel.obj
 0002:0000e288       ??_C@_1M@KMKMOPHI@?$AAt?$AAa?$AA?9?$AAI?$AAN?$AA?$AA@ 0000000180039288     libucrt:lcidtoname_downlevel.obj
 0002:0000e298       ??_C@_1M@KFEHEPAC@?$AAt?$AAe?$AA?9?$AAI?$AAN?$AA?$AA@ 0000000180039298     libucrt:lcidtoname_downlevel.obj
 0002:0000e2a8       ??_C@_1M@CDCLMGHI@?$AAk?$AAn?$AA?9?$AAI?$AAN?$AA?$AA@ 00000001800392a8     libucrt:lcidtoname_downlevel.obj
 0002:0000e2b8       ??_C@_1M@MIODLDKF@?$AAm?$AAl?$AA?9?$AAI?$AAN?$AA?$AA@ 00000001800392b8     libucrt:lcidtoname_downlevel.obj
 0002:0000e2c8       ??_C@_1M@PBIEACPO@?$AAm?$AAr?$AA?9?$AAI?$AAN?$AA?$AA@ 00000001800392c8     libucrt:lcidtoname_downlevel.obj
 0002:0000e2d8       ??_C@_1M@NIDEAGPH@?$AAs?$AAa?$AA?9?$AAI?$AAN?$AA?$AA@ 00000001800392d8     libucrt:lcidtoname_downlevel.obj
 0002:0000e2e8       ??_C@_1M@FHIHCBIO@?$AAm?$AAn?$AA?9?$AAM?$AAN?$AA?$AA@ 00000001800392e8     libucrt:lcidtoname_downlevel.obj
 0002:0000e2f8       ??_C@_1M@JAIJPENP@?$AAc?$AAy?$AA?9?$AAG?$AAB?$AA?$AA@ 00000001800392f8     libucrt:lcidtoname_downlevel.obj
 0002:0000e308       ??_C@_1M@PHGFBEPN@?$AAg?$AAl?$AA?9?$AAE?$AAS?$AA?$AA@ 0000000180039308     libucrt:lcidtoname_downlevel.obj
 0002:0000e318       ??_C@_1O@KPIPDNCP@?$AAk?$AAo?$AAk?$AA?9?$AAI?$AAN?$AA?$AA@ 0000000180039318     libucrt:lcidtoname_downlevel.obj
 0002:0000e328       ??_C@_1O@KNHJLDJA@?$AAs?$AAy?$AAr?$AA?9?$AAS?$AAY?$AA?$AA@ 0000000180039328     libucrt:lcidtoname_downlevel.obj
 0002:0000e338       ??_C@_1O@MKEKBLAH@?$AAd?$AAi?$AAv?$AA?9?$AAM?$AAV?$AA?$AA@ 0000000180039338     libucrt:lcidtoname_downlevel.obj
 0002:0000e348       ??_C@_1O@OHDCKDDF@?$AAq?$AAu?$AAz?$AA?9?$AAB?$AAO?$AA?$AA@ 0000000180039348     libucrt:lcidtoname_downlevel.obj
 0002:0000e358       ??_C@_1M@LEPJNLFD@?$AAn?$AAs?$AA?9?$AAZ?$AAA?$AA?$AA@ 0000000180039358     libucrt:lcidtoname_downlevel.obj
 0002:0000e368       ??_C@_1M@OMLEIIJB@?$AAm?$AAi?$AA?9?$AAN?$AAZ?$AA?$AA@ 0000000180039368     libucrt:lcidtoname_downlevel.obj
 0002:0000e378       ??_C@_1M@PMPEAILG@?$AAa?$AAr?$AA?9?$AAI?$AAQ?$AA?$AA@ 0000000180039378     libucrt:lcidtoname_downlevel.obj
 0002:0000e388       ??_C@_1M@CNKPNOEE@?$AAd?$AAe?$AA?9?$AAC?$AAH?$AA?$AA@ 0000000180039388     libucrt:lcidtoname_downlevel.obj
 0002:0000e398       ??_C@_1M@LKMGMLKO@?$AAe?$AAn?$AA?9?$AAG?$AAB?$AA?$AA@ 0000000180039398     libucrt:lcidtoname_downlevel.obj
 0002:0000e3a8       ??_C@_1M@PGKJFFGL@?$AAe?$AAs?$AA?9?$AAM?$AAX?$AA?$AA@ 00000001800393a8     libucrt:lcidtoname_downlevel.obj
 0002:0000e3b8       ??_C@_1M@DNNANBDC@?$AAf?$AAr?$AA?9?$AAB?$AAE?$AA?$AA@ 00000001800393b8     libucrt:lcidtoname_downlevel.obj
 0002:0000e3c8       ??_C@_1M@HLGMDFHM@?$AAi?$AAt?$AA?9?$AAC?$AAH?$AA?$AA@ 00000001800393c8     libucrt:lcidtoname_downlevel.obj
 0002:0000e3d8       ??_C@_1M@CLLBGJH@?$AAn?$AAl?$AA?9?$AAB?$AAE?$AA?$AA@ 00000001800393d8     libucrt:lcidtoname_downlevel.obj
 0002:0000e3e8       ??_C@_1M@BODBOGLF@?$AAn?$AAn?$AA?9?$AAN?$AAO?$AA?$AA@ 00000001800393e8     libucrt:lcidtoname_downlevel.obj
 0002:0000e3f8       ??_C@_1M@HFFAHKAD@?$AAp?$AAt?$AA?9?$AAP?$AAT?$AA?$AA@ 00000001800393f8     libucrt:lcidtoname_downlevel.obj
 0002:0000e408       ??_C@_1BG@LNOAKHIE@?$AAs?$AAr?$AA?9?$AAS?$AAP?$AA?9?$AAL?$AAa?$AAt?$AAn?$AA?$AA@ 0000000180039408     libucrt:lcidtoname_downlevel.obj
 0002:0000e420       ??_C@_1M@HBMHBGAK@?$AAs?$AAv?$AA?9?$AAF?$AAI?$AA?$AA@ 0000000180039420     libucrt:lcidtoname_downlevel.obj
 0002:0000e430       ??_C@_1BG@DGCJGJBE@?$AAa?$AAz?$AA?9?$AAA?$AAZ?$AA?9?$AAC?$AAy?$AAr?$AAl?$AA?$AA@ 0000000180039430     libucrt:lcidtoname_downlevel.obj
 0002:0000e448       ??_C@_1M@KEJDAAHB@?$AAs?$AAe?$AA?9?$AAS?$AAE?$AA?$AA@ 0000000180039448     libucrt:lcidtoname_downlevel.obj
 0002:0000e458       ??_C@_1M@HEIBJJAD@?$AAm?$AAs?$AA?9?$AAB?$AAN?$AA?$AA@ 0000000180039458     libucrt:lcidtoname_downlevel.obj
 0002:0000e468       ??_C@_1BG@PBGJMCEM@?$AAu?$AAz?$AA?9?$AAU?$AAZ?$AA?9?$AAC?$AAy?$AAr?$AAl?$AA?$AA@ 0000000180039468     libucrt:lcidtoname_downlevel.obj
 0002:0000e480       ??_C@_1O@LAOBCMDF@?$AAq?$AAu?$AAz?$AA?9?$AAE?$AAC?$AA?$AA@ 0000000180039480     libucrt:lcidtoname_downlevel.obj
 0002:0000e490       ??_C@_1M@POEEMAIO@?$AAa?$AAr?$AA?9?$AAE?$AAG?$AA?$AA@ 0000000180039490     libucrt:lcidtoname_downlevel.obj
 0002:0000e4a0       ??_C@_1M@EFAKDEDL@?$AAz?$AAh?$AA?9?$AAH?$AAK?$AA?$AA@ 00000001800394a0     libucrt:lcidtoname_downlevel.obj
 0002:0000e4b0       ??_C@_1M@HKKIJHGI@?$AAd?$AAe?$AA?9?$AAA?$AAT?$AA?$AA@ 00000001800394b0     libucrt:lcidtoname_downlevel.obj
 0002:0000e4c0       ??_C@_1M@KBFBEHJF@?$AAe?$AAn?$AA?9?$AAA?$AAU?$AA?$AA@ 00000001800394c0     libucrt:lcidtoname_downlevel.obj
 0002:0000e4d0       ??_C@_1M@MNPLFAAH@?$AAe?$AAs?$AA?9?$AAE?$AAS?$AA?$AA@ 00000001800394d0     libucrt:lcidtoname_downlevel.obj
 0002:0000e4e0       ??_C@_1M@HJOOJFMA@?$AAf?$AAr?$AA?9?$AAC?$AAA?$AA?$AA@ 00000001800394e0     libucrt:lcidtoname_downlevel.obj
 0002:0000e4f0       ??_C@_1BG@JPOFPNAB@?$AAs?$AAr?$AA?9?$AAS?$AAP?$AA?9?$AAC?$AAy?$AAr?$AAl?$AA?$AA@ 00000001800394f0     libucrt:lcidtoname_downlevel.obj
 0002:0000e508       ??_C@_1M@LNFOCMOB@?$AAs?$AAe?$AA?9?$AAF?$AAI?$AA?$AA@ 0000000180039508     libucrt:lcidtoname_downlevel.obj
 0002:0000e518       ??_C@_1O@MGJBOAMB@?$AAq?$AAu?$AAz?$AA?9?$AAP?$AAE?$AA?$AA@ 0000000180039518     libucrt:lcidtoname_downlevel.obj
 0002:0000e528       ??_C@_1M@GJINLBOK@?$AAa?$AAr?$AA?9?$AAL?$AAY?$AA?$AA@ 0000000180039528     libucrt:lcidtoname_downlevel.obj
 0002:0000e538       ??_C@_1M@GGMNHJNL@?$AAz?$AAh?$AA?9?$AAS?$AAG?$AA?$AA@ 0000000180039538     libucrt:lcidtoname_downlevel.obj
 0002:0000e548       ??_C@_1M@HOIKODND@?$AAd?$AAe?$AA?9?$AAL?$AAU?$AA?$AA@ 0000000180039548     libucrt:lcidtoname_downlevel.obj
 0002:0000e558       ??_C@_1M@DDOCCGFG@?$AAe?$AAn?$AA?9?$AAC?$AAA?$AA?$AA@ 0000000180039558     libucrt:lcidtoname_downlevel.obj
 0002:0000e568       ??_C@_1M@BNOEMJLF@?$AAe?$AAs?$AA?9?$AAG?$AAT?$AA?$AA@ 0000000180039568     libucrt:lcidtoname_downlevel.obj
 0002:0000e578       ??_C@_1M@EOGNKEK@?$AAf?$AAr?$AA?9?$AAC?$AAH?$AA?$AA@ 0000000180039578     libucrt:lcidtoname_downlevel.obj
 0002:0000e588       ??_C@_1M@FLIDJFHL@?$AAh?$AAr?$AA?9?$AAB?$AAA?$AA?$AA@ 0000000180039588     libucrt:lcidtoname_downlevel.obj
 0002:0000e598       ??_C@_1O@FMCELNAJ@?$AAs?$AAm?$AAj?$AA?9?$AAN?$AAO?$AA?$AA@ 0000000180039598     libucrt:lcidtoname_downlevel.obj
 0002:0000e5a8       ??_C@_1M@JHGLJMGJ@?$AAa?$AAr?$AA?9?$AAD?$AAZ?$AA?$AA@ 00000001800395a8     libucrt:lcidtoname_downlevel.obj
 0002:0000e5b8       ??_C@_1M@JKKFDCNP@?$AAz?$AAh?$AA?9?$AAM?$AAO?$AA?$AA@ 00000001800395b8     libucrt:lcidtoname_downlevel.obj
 0002:0000e5c8       ??_C@_1M@GEEFALPE@?$AAd?$AAe?$AA?9?$AAL?$AAI?$AA?$AA@ 00000001800395c8     libucrt:lcidtoname_downlevel.obj
 0002:0000e5d8       ??_C@_1M@IGEOFBG@?$AAe?$AAn?$AA?9?$AAN?$AAZ?$AA?$AA@ 00000001800395d8     libucrt:lcidtoname_downlevel.obj
 0002:0000e5e8       ??_C@_1M@KDBONEHP@?$AAe?$AAs?$AA?9?$AAC?$AAR?$AA?$AA@ 00000001800395e8     libucrt:lcidtoname_downlevel.obj
 0002:0000e5f8       ??_C@_1M@FHMDOHNN@?$AAf?$AAr?$AA?9?$AAL?$AAU?$AA?$AA@ 00000001800395f8     libucrt:lcidtoname_downlevel.obj
 0002:0000e608       ??_C@_1BG@NFKKMAFG@?$AAb?$AAs?$AA?9?$AAB?$AAA?$AA?9?$AAL?$AAa?$AAt?$AAn?$AA?$AA@ 0000000180039608     libucrt:lcidtoname_downlevel.obj
 0002:0000e620       ??_C@_1O@IMNBEMCI@?$AAs?$AAm?$AAj?$AA?9?$AAS?$AAE?$AA?$AA@ 0000000180039620     libucrt:lcidtoname_downlevel.obj
 0002:0000e630       ??_C@_1M@DHHMBNDP@?$AAa?$AAr?$AA?9?$AAM?$AAA?$AA?$AA@ 0000000180039630     libucrt:lcidtoname_downlevel.obj
 0002:0000e640       ??_C@_1M@BNBLJCGH@?$AAe?$AAn?$AA?9?$AAI?$AAE?$AA?$AA@ 0000000180039640     libucrt:lcidtoname_downlevel.obj
 0002:0000e650       ??_C@_1M@GEPAFMDL@?$AAe?$AAs?$AA?9?$AAP?$AAA?$AA?$AA@ 0000000180039650     libucrt:lcidtoname_downlevel.obj
 0002:0000e660       ??_C@_1M@OJONDMDL@?$AAf?$AAr?$AA?9?$AAM?$AAC?$AA?$AA@ 0000000180039660     libucrt:lcidtoname_downlevel.obj
 0002:0000e670       ??_C@_1BG@OBCNFJB@?$AAs?$AAr?$AA?9?$AAB?$AAA?$AA?9?$AAL?$AAa?$AAt?$AAn?$AA?$AA@ 0000000180039670     libucrt:lcidtoname_downlevel.obj
 0002:0000e688       ??_C@_1O@KEMEEGPO@?$AAs?$AAm?$AAa?$AA?9?$AAN?$AAO?$AA?$AA@ 0000000180039688     libucrt:lcidtoname_downlevel.obj
 0002:0000e698       ??_C@_1M@ELMGFODK@?$AAa?$AAr?$AA?9?$AAT?$AAN?$AA?$AA@ 0000000180039698     libucrt:lcidtoname_downlevel.obj
 0002:0000e6a8       ??_C@_1M@BHDLHFAF@?$AAe?$AAn?$AA?9?$AAZ?$AAA?$AA?$AA@ 00000001800396a8     libucrt:lcidtoname_downlevel.obj
 0002:0000e6b8       ??_C@_1M@BMGIGLIF@?$AAe?$AAs?$AA?9?$AAD?$AAO?$AA?$AA@ 00000001800396b8     libucrt:lcidtoname_downlevel.obj
 0002:0000e6c8       ??_C@_1BG@CMBHIPBE@?$AAs?$AAr?$AA?9?$AAB?$AAA?$AA?9?$AAC?$AAy?$AAr?$AAl?$AA?$AA@ 00000001800396c8     libucrt:lcidtoname_downlevel.obj
 0002:0000e6e0       ??_C@_1O@HEDBLHNP@?$AAs?$AAm?$AAa?$AA?9?$AAS?$AAE?$AA?$AA@ 00000001800396e0     libucrt:lcidtoname_downlevel.obj
 0002:0000e6f0       ??_C@_1M@DAGCADIM@?$AAa?$AAr?$AA?9?$AAO?$AAM?$AA?$AA@ 00000001800396f0     libucrt:lcidtoname_downlevel.obj
 0002:0000e700       ??_C@_1M@FODLMICG@?$AAe?$AAn?$AA?9?$AAJ?$AAM?$AA?$AA@ 0000000180039700     libucrt:lcidtoname_downlevel.obj
 0002:0000e710       ??_C@_1M@DNMLCIHB@?$AAe?$AAs?$AA?9?$AAV?$AAE?$AA?$AA@ 0000000180039710     libucrt:lcidtoname_downlevel.obj
 0002:0000e720       ??_C@_1O@EOKHMKJK@?$AAs?$AAm?$AAs?$AA?9?$AAF?$AAI?$AA?$AA@ 0000000180039720     libucrt:lcidtoname_downlevel.obj
 0002:0000e730       ??_C@_1M@CAFJMKOF@?$AAa?$AAr?$AA?9?$AAY?$AAE?$AA?$AA@ 0000000180039730     libucrt:lcidtoname_downlevel.obj
 0002:0000e740       ??_C@_1M@CBFHIJLI@?$AAe?$AAn?$AA?9?$AAC?$AAB?$AA?$AA@ 0000000180039740     libucrt:lcidtoname_downlevel.obj
 0002:0000e750       ??_C@_1M@BGNFLDN@?$AAe?$AAs?$AA?9?$AAC?$AAO?$AA?$AA@ 0000000180039750     libucrt:lcidtoname_downlevel.obj
 0002:0000e760       ??_C@_1O@JMPHMAMC@?$AAs?$AAm?$AAn?$AA?9?$AAF?$AAI?$AA?$AA@ 0000000180039760     libucrt:lcidtoname_downlevel.obj
 0002:0000e770       ??_C@_1M@JLANABKE@?$AAa?$AAr?$AA?9?$AAS?$AAY?$AA?$AA@ 0000000180039770     libucrt:lcidtoname_downlevel.obj
 0002:0000e780       ??_C@_1M@HPKGCFGN@?$AAe?$AAn?$AA?9?$AAB?$AAZ?$AA?$AA@ 0000000180039780     libucrt:lcidtoname_downlevel.obj
 0002:0000e790       ??_C@_1M@OLJCMLGM@?$AAe?$AAs?$AA?9?$AAP?$AAE?$AA?$AA@ 0000000180039790     libucrt:lcidtoname_downlevel.obj
 0002:0000e7a0       ??_C@_1M@MKKGFKLE@?$AAa?$AAr?$AA?9?$AAJ?$AAO?$AA?$AA@ 00000001800397a0     libucrt:lcidtoname_downlevel.obj
 0002:0000e7b0       ??_C@_1M@EKPGLDNI@?$AAe?$AAn?$AA?9?$AAT?$AAT?$AA?$AA@ 00000001800397b0     libucrt:lcidtoname_downlevel.obj
 0002:0000e7c0       ??_C@_1M@OONGHFHE@?$AAe?$AAs?$AA?9?$AAA?$AAR?$AA?$AA@ 00000001800397c0     libucrt:lcidtoname_downlevel.obj
 0002:0000e7d0       ??_C@_1M@OOJFGBHE@?$AAa?$AAr?$AA?9?$AAL?$AAB?$AA?$AA@ 00000001800397d0     libucrt:lcidtoname_downlevel.obj
 0002:0000e7e0       ??_C@_1M@GCEJHNEG@?$AAe?$AAn?$AA?9?$AAZ?$AAW?$AA?$AA@ 00000001800397e0     libucrt:lcidtoname_downlevel.obj
 0002:0000e7f0       ??_C@_1M@JNOCAHJI@?$AAe?$AAs?$AA?9?$AAE?$AAC?$AA?$AA@ 00000001800397f0     libucrt:lcidtoname_downlevel.obj
 0002:0000e800       ??_C@_1M@JEFHPGGB@?$AAa?$AAr?$AA?9?$AAK?$AAW?$AA?$AA@ 0000000180039800     libucrt:lcidtoname_downlevel.obj
 0002:0000e810       ??_C@_1M@MLKIBJOJ@?$AAe?$AAn?$AA?9?$AAP?$AAH?$AA?$AA@ 0000000180039810     libucrt:lcidtoname_downlevel.obj
 0002:0000e820       ??_C@_1M@BDNIPEND@?$AAe?$AAs?$AA?9?$AAC?$AAL?$AA?$AA@ 0000000180039820     libucrt:lcidtoname_downlevel.obj
 0002:0000e830       ??_C@_1M@MPNMEKBD@?$AAa?$AAr?$AA?9?$AAA?$AAE?$AA?$AA@ 0000000180039830     libucrt:lcidtoname_downlevel.obj
 0002:0000e840       ??_C@_1M@KBJALCPI@?$AAe?$AAs?$AA?9?$AAU?$AAY?$AA?$AA@ 0000000180039840     libucrt:lcidtoname_downlevel.obj
 0002:0000e850       ??_C@_1M@LLCCOAGA@?$AAa?$AAr?$AA?9?$AAB?$AAH?$AA?$AA@ 0000000180039850     libucrt:lcidtoname_downlevel.obj
 0002:0000e860       ??_C@_1M@PBFNCDEL@?$AAe?$AAs?$AA?9?$AAP?$AAY?$AA?$AA@ 0000000180039860     libucrt:lcidtoname_downlevel.obj
 0002:0000e870       ??_C@_1M@EDGINPNP@?$AAa?$AAr?$AA?9?$AAQ?$AAA?$AA?$AA@ 0000000180039870     libucrt:lcidtoname_downlevel.obj
 0002:0000e880       ??_C@_1M@MKDBIIJI@?$AAe?$AAs?$AA?9?$AAB?$AAO?$AA?$AA@ 0000000180039880     libucrt:lcidtoname_downlevel.obj
 0002:0000e890       ??_C@_1M@CPKKEBLD@?$AAe?$AAs?$AA?9?$AAS?$AAV?$AA?$AA@ 0000000180039890     libucrt:lcidtoname_downlevel.obj
 0002:0000e8a0       ??_C@_1M@NDBGMMJL@?$AAe?$AAs?$AA?9?$AAH?$AAN?$AA?$AA@ 00000001800398a0     libucrt:lcidtoname_downlevel.obj
 0002:0000e8b0       ??_C@_1M@JIJIBHDP@?$AAe?$AAs?$AA?9?$AAN?$AAI?$AA?$AA@ 00000001800398b0     libucrt:lcidtoname_downlevel.obj
 0002:0000e8c0       ??_C@_1M@CGFMKEEK@?$AAe?$AAs?$AA?9?$AAP?$AAR?$AA?$AA@ 00000001800398c0     libucrt:lcidtoname_downlevel.obj
 0002:0000e8d0       ??_C@_1O@ICJHKIIK@?$AAz?$AAh?$AA?9?$AAC?$AAH?$AAT?$AA?$AA@ 00000001800398d0     libucrt:lcidtoname_downlevel.obj
 0002:0000e8e0       ??_C@_15CLNEJCE@?$AAs?$AAr?$AA?$AA@ 00000001800398e0     libucrt:lcidtoname_downlevel.obj
 0002:0000f730       ??_C@_1M@KAHEKEIG@?$AAa?$AAf?$AA?9?$AAz?$AAa?$AA?$AA@ 000000018003a730     libucrt:lcidtoname_downlevel.obj
 0002:0000f740       ??_C@_1M@GIECOABL@?$AAa?$AAr?$AA?9?$AAa?$AAe?$AA?$AA@ 000000018003a740     libucrt:lcidtoname_downlevel.obj
 0002:0000f750       ??_C@_1M@BMLMEKGI@?$AAa?$AAr?$AA?9?$AAb?$AAh?$AA?$AA@ 000000018003a750     libucrt:lcidtoname_downlevel.obj
 0002:0000f760       ??_C@_1M@DAPFDGGB@?$AAa?$AAr?$AA?9?$AAd?$AAz?$AA?$AA@ 000000018003a760     libucrt:lcidtoname_downlevel.obj
 0002:0000f770       ??_C@_1M@FJNKGKIG@?$AAa?$AAr?$AA?9?$AAe?$AAg?$AA?$AA@ 000000018003a770     libucrt:lcidtoname_downlevel.obj
 0002:0000f780       ??_C@_1M@FLGKKCLO@?$AAa?$AAr?$AA?9?$AAi?$AAq?$AA?$AA@ 000000018003a780     libucrt:lcidtoname_downlevel.obj
 0002:0000f790       ??_C@_1M@GNDIPALM@?$AAa?$AAr?$AA?9?$AAj?$AAo?$AA?$AA@ 000000018003a790     libucrt:lcidtoname_downlevel.obj
 0002:0000f7a0       ??_C@_1M@DDMJFMGJ@?$AAa?$AAr?$AA?9?$AAk?$AAw?$AA?$AA@ 000000018003a7a0     libucrt:lcidtoname_downlevel.obj
 0002:0000f7b0       ??_C@_1M@EJALMLHM@?$AAa?$AAr?$AA?9?$AAl?$AAb?$AA?$AA@ 000000018003a7b0     libucrt:lcidtoname_downlevel.obj
 0002:0000f7c0       ??_C@_1M@MOBDBLOC@?$AAa?$AAr?$AA?9?$AAl?$AAy?$AA?$AA@ 000000018003a7c0     libucrt:lcidtoname_downlevel.obj
 0002:0000f7d0       ??_C@_1M@JAOCLHDH@?$AAa?$AAr?$AA?9?$AAm?$AAa?$AA?$AA@ 000000018003a7d0     libucrt:lcidtoname_downlevel.obj
 0002:0000f7e0       ??_C@_1M@JHPMKJIE@?$AAa?$AAr?$AA?9?$AAo?$AAm?$AA?$AA@ 000000018003a7e0     libucrt:lcidtoname_downlevel.obj
 0002:0000f7f0       ??_C@_1M@OEPGHFNH@?$AAa?$AAr?$AA?9?$AAq?$AAa?$AA?$AA@ 000000018003a7f0     libucrt:lcidtoname_downlevel.obj
 0002:0000f800       ??_C@_1M@KJDONENM@?$AAa?$AAr?$AA?9?$AAs?$AAa?$AA?$AA@ 000000018003a800     libucrt:lcidtoname_downlevel.obj
 0002:0000f810       ??_C@_1M@DMJDKLKM@?$AAa?$AAr?$AA?9?$AAs?$AAy?$AA?$AA@ 000000018003a810     libucrt:lcidtoname_downlevel.obj
 0002:0000f820       ??_C@_1M@OMFIPEDC@?$AAa?$AAr?$AA?9?$AAt?$AAn?$AA?$AA@ 000000018003a820     libucrt:lcidtoname_downlevel.obj
 0002:0000f830       ??_C@_1M@IHMHGAON@?$AAa?$AAr?$AA?9?$AAy?$AAe?$AA?$AA@ 000000018003a830     libucrt:lcidtoname_downlevel.obj
 0002:0000f840       ??_C@_1BG@KDCPGJGB@?$AAa?$AAz?$AA?9?$AAa?$AAz?$AA?9?$AAc?$AAy?$AAr?$AAl?$AA?$AA@ 000000018003a840     libucrt:lcidtoname_downlevel.obj
 0002:0000f858       ??_C@_1BG@IBCKDDOE@?$AAa?$AAz?$AA?9?$AAa?$AAz?$AA?9?$AAl?$AAa?$AAt?$AAn?$AA?$AA@ 000000018003a858     libucrt:lcidtoname_downlevel.obj
 0002:0000f870       ??_C@_1M@EGPFDCPD@?$AAb?$AAe?$AA?9?$AAb?$AAy?$AA?$AA@ 000000018003a870     libucrt:lcidtoname_downlevel.obj
 0002:0000f880       ??_C@_1M@PCMGMCGC@?$AAb?$AAg?$AA?9?$AAb?$AAg?$AA?$AA@ 000000018003a880     libucrt:lcidtoname_downlevel.obj
 0002:0000f890       ??_C@_1M@BJBMFGOB@?$AAb?$AAn?$AA?9?$AAi?$AAn?$AA?$AA@ 000000018003a890     libucrt:lcidtoname_downlevel.obj
 0002:0000f8a0       ??_C@_1BG@EAKMMACD@?$AAb?$AAs?$AA?9?$AAb?$AAa?$AA?9?$AAl?$AAa?$AAt?$AAn?$AA?$AA@ 000000018003a8a0     libucrt:lcidtoname_downlevel.obj
 0002:0000f8b8       ??_C@_1M@KGADAODK@?$AAc?$AAa?$AA?9?$AAe?$AAs?$AA?$AA@ 000000018003a8b8     libucrt:lcidtoname_downlevel.obj
 0002:0000f8c8       ??_C@_1M@COAJPDHI@?$AAc?$AAs?$AA?9?$AAc?$AAz?$AA?$AA@ 000000018003a8c8     libucrt:lcidtoname_downlevel.obj
 0002:0000f8d8       ??_C@_1M@DHBHFONH@?$AAc?$AAy?$AA?9?$AAg?$AAb?$AA?$AA@ 000000018003a8d8     libucrt:lcidtoname_downlevel.obj
 0002:0000f8e8       ??_C@_1M@IMGKELGA@?$AAd?$AAa?$AA?9?$AAd?$AAk?$AA?$AA@ 000000018003a8e8     libucrt:lcidtoname_downlevel.obj
 0002:0000f8f8       ??_C@_1M@NNDGDNGA@?$AAd?$AAe?$AA?9?$AAa?$AAt?$AA?$AA@ 000000018003a8f8     libucrt:lcidtoname_downlevel.obj
 0002:0000f908       ??_C@_1M@IKDBHEEM@?$AAd?$AAe?$AA?9?$AAc?$AAh?$AA?$AA@ 000000018003a908     libucrt:lcidtoname_downlevel.obj
 0002:0000f918       ??_C@_1M@GFFOJMCJ@?$AAd?$AAe?$AA?9?$AAd?$AAe?$AA?$AA@ 000000018003a918     libucrt:lcidtoname_downlevel.obj
 0002:0000f928       ??_C@_1M@MDNLKBPM@?$AAd?$AAe?$AA?9?$AAl?$AAi?$AA?$AA@ 000000018003a928     libucrt:lcidtoname_downlevel.obj
 0002:0000f938       ??_C@_1M@NJBEEJNL@?$AAd?$AAe?$AA?9?$AAl?$AAu?$AA?$AA@ 000000018003a938     libucrt:lcidtoname_downlevel.obj
 0002:0000f948       ??_C@_1O@GNNELBAP@?$AAd?$AAi?$AAv?$AA?9?$AAm?$AAv?$AA?$AA@ 000000018003a948     libucrt:lcidtoname_downlevel.obj
 0002:0000f958       ??_C@_1M@EJLEOGAE@?$AAe?$AAl?$AA?9?$AAg?$AAr?$AA?$AA@ 000000018003a958     libucrt:lcidtoname_downlevel.obj
 0002:0000f968       ??_C@_1M@GMPONJN@?$AAe?$AAn?$AA?9?$AAa?$AAu?$AA?$AA@ 000000018003a968     libucrt:lcidtoname_downlevel.obj
 0002:0000f978       ??_C@_1M@NIDIIPGF@?$AAe?$AAn?$AA?9?$AAb?$AAz?$AA?$AA@ 000000018003a978     libucrt:lcidtoname_downlevel.obj
 0002:0000f988       ??_C@_1M@JEHMIMFO@?$AAe?$AAn?$AA?9?$AAc?$AAa?$AA?$AA@ 000000018003a988     libucrt:lcidtoname_downlevel.obj
 0002:0000f998       ??_C@_1M@IGMJCDLA@?$AAe?$AAn?$AA?9?$AAc?$AAb?$AA?$AA@ 000000018003a998     libucrt:lcidtoname_downlevel.obj
 0002:0000f9a8       ??_C@_1M@BNFIGBKG@?$AAe?$AAn?$AA?9?$AAg?$AAb?$AA?$AA@ 000000018003a9a8     libucrt:lcidtoname_downlevel.obj
 0002:0000f9b8       ??_C@_1M@LKIFDIGP@?$AAe?$AAn?$AA?9?$AAi?$AAe?$AA?$AA@ 000000018003a9b8     libucrt:lcidtoname_downlevel.obj
 0002:0000f9c8       ??_C@_1M@PJKFGCCO@?$AAe?$AAn?$AA?9?$AAj?$AAm?$AA?$AA@ 000000018003a9c8     libucrt:lcidtoname_downlevel.obj
 0002:0000f9d8       ??_C@_1M@KPPKEPBO@?$AAe?$AAn?$AA?9?$AAn?$AAz?$AA?$AA@ 000000018003a9d8     libucrt:lcidtoname_downlevel.obj
 0002:0000f9e8       ??_C@_1M@GMDGLDOB@?$AAe?$AAn?$AA?9?$AAp?$AAh?$AA?$AA@ 000000018003a9e8     libucrt:lcidtoname_downlevel.obj
 0002:0000f9f8       ??_C@_1M@ONGIBJNA@?$AAe?$AAn?$AA?9?$AAt?$AAt?$AA?$AA@ 000000018003a9f8     libucrt:lcidtoname_downlevel.obj
 0002:0000fa08       ??_C@_1M@LLODPCMM@?$AAe?$AAn?$AA?9?$AAu?$AAs?$AA?$AA@ 000000018003aa08     libucrt:lcidtoname_downlevel.obj
 0002:0000fa18       ??_C@_1M@LAKFNPAN@?$AAe?$AAn?$AA?9?$AAz?$AAa?$AA?$AA@ 000000018003aa18     libucrt:lcidtoname_downlevel.obj
 0002:0000fa28       ??_C@_1M@MFNHNHEO@?$AAe?$AAn?$AA?9?$AAz?$AAw?$AA?$AA@ 000000018003aa28     libucrt:lcidtoname_downlevel.obj
 0002:0000fa38       ??_C@_1M@EJEINPHM@?$AAe?$AAs?$AA?9?$AAa?$AAr?$AA?$AA@ 000000018003aa38     libucrt:lcidtoname_downlevel.obj
 0002:0000fa48       ??_C@_1M@GNKPCCJA@?$AAe?$AAs?$AA?9?$AAb?$AAo?$AA?$AA@ 000000018003aa48     libucrt:lcidtoname_downlevel.obj
 0002:0000fa58       ??_C@_1M@LEEGFONL@?$AAe?$AAs?$AA?9?$AAc?$AAl?$AA?$AA@ 000000018003aa58     libucrt:lcidtoname_downlevel.obj
 0002:0000fa68       ??_C@_1M@KGPDPBDF@?$AAe?$AAs?$AA?9?$AAc?$AAo?$AA?$AA@ 000000018003aa68     libucrt:lcidtoname_downlevel.obj
 0002:0000fa78       ??_C@_1M@EIAHOHH@?$AAe?$AAs?$AA?9?$AAc?$AAr?$AA?$AA@ 000000018003aa78     libucrt:lcidtoname_downlevel.obj
 0002:0000fa88       ??_C@_1M@LLPGMBIN@?$AAe?$AAs?$AA?9?$AAd?$AAo?$AA?$AA@ 000000018003aa88     libucrt:lcidtoname_downlevel.obj
 0002:0000fa98       ??_C@_1M@DKHMKNJA@?$AAe?$AAs?$AA?9?$AAe?$AAc?$AA?$AA@ 000000018003aa98     libucrt:lcidtoname_downlevel.obj
 0002:0000faa8       ??_C@_1M@GKGFPKAP@?$AAe?$AAs?$AA?9?$AAe?$AAs?$AA?$AA@ 000000018003aaa8     libucrt:lcidtoname_downlevel.obj
 0002:0000fab8       ??_C@_1M@LKHKGDLN@?$AAe?$AAs?$AA?9?$AAg?$AAt?$AA?$AA@ 000000018003aab8     libucrt:lcidtoname_downlevel.obj
 0002:0000fac8       ??_C@_1M@HEIIGGJD@?$AAe?$AAs?$AA?9?$AAh?$AAn?$AA?$AA@ 000000018003aac8     libucrt:lcidtoname_downlevel.obj
 0002:0000fad8       ??_C@_1M@FBDHPPGD@?$AAe?$AAs?$AA?9?$AAm?$AAx?$AA?$AA@ 000000018003aad8     libucrt:lcidtoname_downlevel.obj
 0002:0000fae8       ??_C@_1M@DPAGLNDH@?$AAe?$AAs?$AA?9?$AAn?$AAi?$AA?$AA@ 000000018003aae8     libucrt:lcidtoname_downlevel.obj
 0002:0000faf8       ??_C@_1M@MDGOPGDD@?$AAe?$AAs?$AA?9?$AAp?$AAa?$AA?$AA@ 000000018003aaf8     libucrt:lcidtoname_downlevel.obj
 0002:0000fb08       ??_C@_1M@EMAMGBGE@?$AAe?$AAs?$AA?9?$AAp?$AAe?$AA?$AA@ 000000018003ab08     libucrt:lcidtoname_downlevel.obj
 0002:0000fb18       ??_C@_1M@IBMCAOEC@?$AAe?$AAs?$AA?9?$AAp?$AAr?$AA?$AA@ 000000018003ab18     libucrt:lcidtoname_downlevel.obj
 0002:0000fb28       ??_C@_1M@FGMDIJED@?$AAe?$AAs?$AA?9?$AAp?$AAy?$AA?$AA@ 000000018003ab28     libucrt:lcidtoname_downlevel.obj
 0002:0000fb38       ??_C@_1M@IIDEOLLL@?$AAe?$AAs?$AA?9?$AAs?$AAv?$AA?$AA@ 000000018003ab38     libucrt:lcidtoname_downlevel.obj
 0002:0000fb48       ??_C@_1M@GAOBIPA@?$AAe?$AAs?$AA?9?$AAu?$AAy?$AA?$AA@ 000000018003ab48     libucrt:lcidtoname_downlevel.obj
 0002:0000fb58       ??_C@_1M@JKFFICHJ@?$AAe?$AAs?$AA?9?$AAv?$AAe?$AA?$AA@ 000000018003ab58     libucrt:lcidtoname_downlevel.obj
 0002:0000fb68       ??_C@_1M@PNMLOJDF@?$AAe?$AAt?$AA?9?$AAe?$AAe?$AA?$AA@ 000000018003ab68     libucrt:lcidtoname_downlevel.obj
 0002:0000fb78       ??_C@_1M@GHHLIKEI@?$AAe?$AAu?$AA?9?$AAe?$AAs?$AA?$AA@ 000000018003ab78     libucrt:lcidtoname_downlevel.obj
 0002:0000fb88       ??_C@_1M@PBNONODE@?$AAf?$AAa?$AA?9?$AAi?$AAr?$AA?$AA@ 000000018003ab88     libucrt:lcidtoname_downlevel.obj
 0002:0000fb98       ??_C@_1M@JEEHPMIL@?$AAf?$AAi?$AA?9?$AAf?$AAi?$AA?$AA@ 000000018003ab98     libucrt:lcidtoname_downlevel.obj
 0002:0000fba8       ??_C@_1M@LMDCNDBA@?$AAf?$AAo?$AA?9?$AAf?$AAo?$AA?$AA@ 000000018003aba8     libucrt:lcidtoname_downlevel.obj
 0002:0000fbb8       ??_C@_1M@JKEOHLDK@?$AAf?$AAr?$AA?9?$AAb?$AAe?$AA?$AA@ 000000018003abb8     libucrt:lcidtoname_downlevel.obj
 0002:0000fbc8       ??_C@_1M@NOHADPMI@?$AAf?$AAr?$AA?9?$AAc?$AAa?$AA?$AA@ 000000018003abc8     libucrt:lcidtoname_downlevel.obj
 0002:0000fbd8       ??_C@_1M@KDHIHAEC@?$AAf?$AAr?$AA?9?$AAc?$AAh?$AA?$AA@ 000000018003abd8     libucrt:lcidtoname_downlevel.obj
 0002:0000fbe8       ??_C@_1M@MMBBFGAK@?$AAf?$AAr?$AA?9?$AAf?$AAr?$AA?$AA@ 000000018003abe8     libucrt:lcidtoname_downlevel.obj
 0002:0000fbf8       ??_C@_1M@PAFNENNF@?$AAf?$AAr?$AA?9?$AAl?$AAu?$AA?$AA@ 000000018003abf8     libucrt:lcidtoname_downlevel.obj
 0002:0000fc08       ??_C@_1M@EOHDJGDD@?$AAf?$AAr?$AA?9?$AAm?$AAc?$AA?$AA@ 000000018003ac08     libucrt:lcidtoname_downlevel.obj
 0002:0000fc18       ??_C@_1M@FAPLLOPF@?$AAg?$AAl?$AA?9?$AAe?$AAs?$AA?$AA@ 000000018003ac18     libucrt:lcidtoname_downlevel.obj
 0002:0000fc28       ??_C@_1M@FOPBFLOO@?$AAg?$AAu?$AA?9?$AAi?$AAn?$AA?$AA@ 000000018003ac28     libucrt:lcidtoname_downlevel.obj
 0002:0000fc38       ??_C@_1M@KBMCINPM@?$AAh?$AAe?$AA?9?$AAi?$AAl?$AA?$AA@ 000000018003ac38     libucrt:lcidtoname_downlevel.obj
 0002:0000fc48       ??_C@_1M@BBPHKFPJ@?$AAh?$AAi?$AA?9?$AAi?$AAn?$AA?$AA@ 000000018003ac48     libucrt:lcidtoname_downlevel.obj
 0002:0000fc58       ??_C@_1M@PMBNDPHD@?$AAh?$AAr?$AA?9?$AAb?$AAa?$AA?$AA@ 000000018003ac58     libucrt:lcidtoname_downlevel.obj
 0002:0000fc68       ??_C@_1M@BPCKOEGE@?$AAh?$AAr?$AA?9?$AAh?$AAr?$AA?$AA@ 000000018003ac68     libucrt:lcidtoname_downlevel.obj
 0002:0000fc78       ??_C@_1M@GACBMHKE@?$AAh?$AAu?$AA?9?$AAh?$AAu?$AA?$AA@ 000000018003ac78     libucrt:lcidtoname_downlevel.obj
 0002:0000fc88       ??_C@_1M@MILPAJJC@?$AAh?$AAy?$AA?9?$AAa?$AAm?$AA?$AA@ 000000018003ac88     libucrt:lcidtoname_downlevel.obj
 0002:0000fc98       ??_C@_1M@BABBICEC@?$AAi?$AAd?$AA?9?$AAi?$AAd?$AA?$AA@ 000000018003ac98     libucrt:lcidtoname_downlevel.obj
 0002:0000fca8       ??_C@_1M@BIKNHHPF@?$AAi?$AAs?$AA?9?$AAi?$AAs?$AA?$AA@ 000000018003aca8     libucrt:lcidtoname_downlevel.obj
 0002:0000fcb8       ??_C@_1M@NMPCJPHE@?$AAi?$AAt?$AA?9?$AAc?$AAh?$AA?$AA@ 000000018003acb8     libucrt:lcidtoname_downlevel.obj
 0002:0000fcc8       ??_C@_1M@GHKGFEDF@?$AAi?$AAt?$AA?9?$AAi?$AAt?$AA?$AA@ 000000018003acc8     libucrt:lcidtoname_downlevel.obj
 0002:0000fcd8       ??_C@_1M@NIEJCJJA@?$AAj?$AAa?$AA?9?$AAj?$AAp?$AA?$AA@ 000000018003acd8     libucrt:lcidtoname_downlevel.obj
 0002:0000fce8       ??_C@_1M@JILFNBIM@?$AAk?$AAa?$AA?9?$AAg?$AAe?$AA?$AA@ 000000018003ace8     libucrt:lcidtoname_downlevel.obj
 0002:0000fcf8       ??_C@_1M@PACPMGPH@?$AAk?$AAk?$AA?9?$AAk?$AAz?$AA?$AA@ 000000018003acf8     libucrt:lcidtoname_downlevel.obj
 0002:0000fd08       ??_C@_1M@IELFGMHA@?$AAk?$AAn?$AA?9?$AAi?$AAn?$AA?$AA@ 000000018003ad08     libucrt:lcidtoname_downlevel.obj
 0002:0000fd18       ??_C@_1O@IBBJHCH@?$AAk?$AAo?$AAk?$AA?9?$AAi?$AAn?$AA?$AA@ 000000018003ad18     libucrt:lcidtoname_downlevel.obj
 0002:0000fd28       ??_C@_1M@DMHAEOGC@?$AAk?$AAo?$AA?9?$AAk?$AAr?$AA?$AA@ 000000018003ad28     libucrt:lcidtoname_downlevel.obj
 0002:0000fd38       ??_C@_1M@HBAHBIGA@?$AAk?$AAy?$AA?9?$AAk?$AAg?$AA?$AA@ 000000018003ad38     libucrt:lcidtoname_downlevel.obj
 0002:0000fd48       ??_C@_1M@KPMILCJG@?$AAl?$AAt?$AA?9?$AAl?$AAt?$AA?$AA@ 000000018003ad48     libucrt:lcidtoname_downlevel.obj
 0002:0000fd58       ??_C@_1M@BDEKKCA@?$AAl?$AAv?$AA?9?$AAl?$AAv?$AA?$AA@ 000000018003ad58     libucrt:lcidtoname_downlevel.obj
 0002:0000fd68       ??_C@_1M@ELCKCCJJ@?$AAm?$AAi?$AA?9?$AAn?$AAz?$AA?$AA@ 000000018003ad68     libucrt:lcidtoname_downlevel.obj
 0002:0000fd78       ??_C@_1M@CBOOLAPA@?$AAm?$AAk?$AA?9?$AAm?$AAk?$AA?$AA@ 000000018003ad78     libucrt:lcidtoname_downlevel.obj
 0002:0000fd88       ??_C@_1M@GPHNBJKN@?$AAm?$AAl?$AA?9?$AAi?$AAn?$AA?$AA@ 000000018003ad88     libucrt:lcidtoname_downlevel.obj
 0002:0000fd98       ??_C@_1M@PABJILIG@?$AAm?$AAn?$AA?9?$AAm?$AAn?$AA?$AA@ 000000018003ad98     libucrt:lcidtoname_downlevel.obj
 0002:0000fda8       ??_C@_1M@FGBKKIPG@?$AAm?$AAr?$AA?9?$AAi?$AAn?$AA?$AA@ 000000018003ada8     libucrt:lcidtoname_downlevel.obj
 0002:0000fdb8       ??_C@_1M@NDBPDDAL@?$AAm?$AAs?$AA?9?$AAb?$AAn?$AA?$AA@ 000000018003adb8     libucrt:lcidtoname_downlevel.obj
 0002:0000fdc8       ??_C@_1M@OPIHOOPI@?$AAm?$AAs?$AA?9?$AAm?$AAy?$AA?$AA@ 000000018003adc8     libucrt:lcidtoname_downlevel.obj
 0002:0000fdd8       ??_C@_1M@PPDBCNFM@?$AAm?$AAt?$AA?9?$AAm?$AAt?$AA?$AA@ 000000018003add8     libucrt:lcidtoname_downlevel.obj
 0002:0000fde8       ??_C@_1M@KDJDKMDD@?$AAn?$AAb?$AA?9?$AAn?$AAo?$AA?$AA@ 000000018003ade8     libucrt:lcidtoname_downlevel.obj
 0002:0000fdf8       ??_C@_1M@KFCFLMJP@?$AAn?$AAl?$AA?9?$AAb?$AAe?$AA?$AA@ 000000018003adf8     libucrt:lcidtoname_downlevel.obj
 0002:0000fe08       ??_C@_1M@KPOPDDGO@?$AAn?$AAl?$AA?9?$AAn?$AAl?$AA?$AA@ 000000018003ae08     libucrt:lcidtoname_downlevel.obj
 0002:0000fe18       ??_C@_1M@LJKPEMLN@?$AAn?$AAn?$AA?9?$AAn?$AAo?$AA?$AA@ 000000018003ae18     libucrt:lcidtoname_downlevel.obj
 0002:0000fe28       ??_C@_1M@BDGHHBFL@?$AAn?$AAs?$AA?9?$AAz?$AAa?$AA?$AA@ 000000018003ae28     libucrt:lcidtoname_downlevel.obj
 0002:0000fe38       ??_C@_1M@IDEHOAP@?$AAp?$AAa?$AA?9?$AAi?$AAn?$AA?$AA@ 000000018003ae38     libucrt:lcidtoname_downlevel.obj
 0002:0000fe48       ??_C@_1M@HDBKGOGH@?$AAp?$AAl?$AA?9?$AAp?$AAl?$AA?$AA@ 000000018003ae48     libucrt:lcidtoname_downlevel.obj
 0002:0000fe58       ??_C@_1M@LJLLCMEH@?$AAp?$AAt?$AA?9?$AAb?$AAr?$AA?$AA@ 000000018003ae58     libucrt:lcidtoname_downlevel.obj
 0002:0000fe68       ??_C@_1M@NCMONAAL@?$AAp?$AAt?$AA?9?$AAp?$AAt?$AA?$AA@ 000000018003ae68     libucrt:lcidtoname_downlevel.obj
 0002:0000fe78       ??_C@_1O@EAKMAJDN@?$AAq?$AAu?$AAz?$AA?9?$AAb?$AAo?$AA?$AA@ 000000018003ae78     libucrt:lcidtoname_downlevel.obj
 0002:0000fe88       ??_C@_1O@BHHPIGDN@?$AAq?$AAu?$AAz?$AA?9?$AAe?$AAc?$AA?$AA@ 000000018003ae88     libucrt:lcidtoname_downlevel.obj
 0002:0000fe98       ??_C@_1O@GBAPEKMJ@?$AAq?$AAu?$AAz?$AA?9?$AAp?$AAe?$AA?$AA@ 000000018003ae98     libucrt:lcidtoname_downlevel.obj
 0002:0000fea8       ??_C@_1M@CLGLEFBO@?$AAr?$AAo?$AA?9?$AAr?$AAo?$AA?$AA@ 000000018003aea8     libucrt:lcidtoname_downlevel.obj
 0002:0000feb8       ??_C@_1M@CEEDODME@?$AAr?$AAu?$AA?9?$AAr?$AAu?$AA?$AA@ 000000018003aeb8     libucrt:lcidtoname_downlevel.obj
 0002:0000fec8       ??_C@_1M@HPKKKMPP@?$AAs?$AAa?$AA?9?$AAi?$AAn?$AA?$AA@ 000000018003aec8     libucrt:lcidtoname_downlevel.obj
 0002:0000fed8       ??_C@_1M@BKMAIGOJ@?$AAs?$AAe?$AA?9?$AAf?$AAi?$AA?$AA@ 000000018003aed8     libucrt:lcidtoname_downlevel.obj
 0002:0000fee8       ??_C@_1M@NDPIFLFI@?$AAs?$AAe?$AA?9?$AAn?$AAo?$AA?$AA@ 000000018003aee8     libucrt:lcidtoname_downlevel.obj
 0002:0000fef8       ??_C@_1M@DANKKHJ@?$AAs?$AAe?$AA?9?$AAs?$AAe?$AA?$AA@ 000000018003aef8     libucrt:lcidtoname_downlevel.obj
 0002:0000ff08       ??_C@_1M@PNBLONPJ@?$AAs?$AAk?$AA?9?$AAs?$AAk?$AA?$AA@ 000000018003af08     libucrt:lcidtoname_downlevel.obj
 0002:0000ff18       ??_C@_1M@LFMODOAL@?$AAs?$AAl?$AA?9?$AAs?$AAi?$AA?$AA@ 000000018003af18     libucrt:lcidtoname_downlevel.obj
 0002:0000ff28       ??_C@_1O@DFKOMPG@?$AAs?$AAm?$AAa?$AA?9?$AAn?$AAo?$AA?$AA@ 000000018003af28     libucrt:lcidtoname_downlevel.obj
 0002:0000ff38       ??_C@_1O@NDKPBNNH@?$AAs?$AAm?$AAa?$AA?9?$AAs?$AAe?$AA?$AA@ 000000018003af38     libucrt:lcidtoname_downlevel.obj
 0002:0000ff48       ??_C@_1O@PLLKBHAB@?$AAs?$AAm?$AAj?$AA?9?$AAn?$AAo?$AA?$AA@ 000000018003af48     libucrt:lcidtoname_downlevel.obj
 0002:0000ff58       ??_C@_1O@CLEPOGCA@?$AAs?$AAm?$AAj?$AA?9?$AAs?$AAe?$AA?$AA@ 000000018003af58     libucrt:lcidtoname_downlevel.obj
 0002:0000ff68       ??_C@_1O@DLGJGKMK@?$AAs?$AAm?$AAn?$AA?9?$AAf?$AAi?$AA?$AA@ 000000018003af68     libucrt:lcidtoname_downlevel.obj
 0002:0000ff78       ??_C@_1O@OJDJGAJC@?$AAs?$AAm?$AAs?$AA?9?$AAf?$AAi?$AA?$AA@ 000000018003af78     libucrt:lcidtoname_downlevel.obj
 0002:0000ff88       ??_C@_1M@BOFOGHPB@?$AAs?$AAq?$AA?9?$AAa?$AAl?$AA?$AA@ 000000018003af88     libucrt:lcidtoname_downlevel.obj
 0002:0000ff98       ??_C@_1BG@LJBBIPGB@?$AAs?$AAr?$AA?9?$AAb?$AAa?$AA?9?$AAc?$AAy?$AAr?$AAl?$AA?$AA@ 000000018003af98     libucrt:lcidtoname_downlevel.obj
 0002:0000ffb0       ??_C@_1BG@JLBENFOE@?$AAs?$AAr?$AA?9?$AAb?$AAa?$AA?9?$AAl?$AAa?$AAt?$AAn?$AA?$AA@ 000000018003afb0     libucrt:lcidtoname_downlevel.obj
 0002:0000ffc8       ??_C@_1BG@KODPNHE@?$AAs?$AAr?$AA?9?$AAs?$AAp?$AA?9?$AAc?$AAy?$AAr?$AAl?$AA?$AA@ 000000018003afc8     libucrt:lcidtoname_downlevel.obj
 0002:0000ffe0       ??_C@_1BG@CIOGKHPB@?$AAs?$AAr?$AA?9?$AAs?$AAp?$AA?9?$AAl?$AAa?$AAt?$AAn?$AA?$AA@ 000000018003afe0     libucrt:lcidtoname_downlevel.obj
 0002:0000fff8       ??_C@_1M@NGFJLMAC@?$AAs?$AAv?$AA?9?$AAf?$AAi?$AA?$AA@ 000000018003aff8     libucrt:lcidtoname_downlevel.obj
 0002:00010008       ??_C@_1M@MPJEJAJC@?$AAs?$AAv?$AA?9?$AAs?$AAe?$AA?$AA@ 000000018003b008     libucrt:lcidtoname_downlevel.obj
 0002:00010018       ??_C@_1M@MPNDHLFK@?$AAs?$AAw?$AA?9?$AAk?$AAe?$AA?$AA@ 000000018003b018     libucrt:lcidtoname_downlevel.obj
 0002:00010028       ??_C@_1O@KOHBJJI@?$AAs?$AAy?$AAr?$AA?9?$AAs?$AAy?$AA?$AA@ 000000018003b028     libucrt:lcidtoname_downlevel.obj
 0002:00010038       ??_C@_1M@LDCEFHA@?$AAt?$AAa?$AA?9?$AAi?$AAn?$AA?$AA@ 000000018003b038     libucrt:lcidtoname_downlevel.obj
 0002:00010048       ??_C@_1M@CNJOFAK@?$AAt?$AAe?$AA?9?$AAi?$AAn?$AA?$AA@ 000000018003b048     libucrt:lcidtoname_downlevel.obj
 0002:00010058       ??_C@_1M@GNAECACD@?$AAt?$AAh?$AA?9?$AAt?$AAh?$AA?$AA@ 000000018003b058     libucrt:lcidtoname_downlevel.obj
 0002:00010068       ??_C@_1M@CHBIHOJO@?$AAt?$AAn?$AA?9?$AAz?$AAa?$AA?$AA@ 000000018003b068     libucrt:lcidtoname_downlevel.obj
 0002:00010078       ??_C@_1M@GCCMIGPJ@?$AAt?$AAr?$AA?9?$AAt?$AAr?$AA?$AA@ 000000018003b078     libucrt:lcidtoname_downlevel.obj
 0002:00010088       ??_C@_1M@CELMCNBK@?$AAt?$AAt?$AA?9?$AAr?$AAu?$AA?$AA@ 000000018003b088     libucrt:lcidtoname_downlevel.obj
 0002:00010098       ??_C@_1M@KLMCELGA@?$AAu?$AAk?$AA?9?$AAu?$AAa?$AA?$AA@ 000000018003b098     libucrt:lcidtoname_downlevel.obj
 0002:000100a8       ??_C@_1M@EPAJJAJF@?$AAu?$AAr?$AA?9?$AAp?$AAk?$AA?$AA@ 000000018003b0a8     libucrt:lcidtoname_downlevel.obj
 0002:000100b8       ??_C@_1BG@GEGPMCDJ@?$AAu?$AAz?$AA?9?$AAu?$AAz?$AA?9?$AAc?$AAy?$AAr?$AAl?$AA?$AA@ 000000018003b0b8     libucrt:lcidtoname_downlevel.obj
 0002:000100d0       ??_C@_1BG@EGGKJILM@?$AAu?$AAz?$AA?9?$AAu?$AAz?$AA?9?$AAl?$AAa?$AAt?$AAn?$AA?$AA@ 000000018003b0d0     libucrt:lcidtoname_downlevel.obj
 0002:000100e8       ??_C@_1M@GFOCLFF@?$AAv?$AAi?$AA?9?$AAv?$AAn?$AA?$AA@ 000000018003b0e8     libucrt:lcidtoname_downlevel.obj
 0002:000100f8       ??_C@_1M@CPAMEDFI@?$AAx?$AAh?$AA?9?$AAz?$AAa?$AA?$AA@ 000000018003b0f8     libucrt:lcidtoname_downlevel.obj
 0002:00010108       ??_C@_1O@EBKIFIGN@?$AAz?$AAh?$AA?9?$AAc?$AAh?$AAs?$AA?$AA@ 000000018003b108     libucrt:lcidtoname_downlevel.obj
 0002:00010118       ??_C@_1O@NMHPGANE@?$AAz?$AAh?$AA?9?$AAc?$AAh?$AAt?$AA?$AA@ 000000018003b118     libucrt:lcidtoname_downlevel.obj
 0002:00010128       ??_C@_1M@LPINJOMC@?$AAz?$AAh?$AA?9?$AAc?$AAn?$AA?$AA@ 000000018003b128     libucrt:lcidtoname_downlevel.obj
 0002:00010138       ??_C@_1M@OCJEJODD@?$AAz?$AAh?$AA?9?$AAh?$AAk?$AA?$AA@ 000000018003b138     libucrt:lcidtoname_downlevel.obj
 0002:00010148       ??_C@_1M@DNDLJINH@?$AAz?$AAh?$AA?9?$AAm?$AAo?$AA?$AA@ 000000018003b148     libucrt:lcidtoname_downlevel.obj
 0002:00010158       ??_C@_1M@MBFDNDND@?$AAz?$AAh?$AA?9?$AAs?$AAg?$AA?$AA@ 000000018003b158     libucrt:lcidtoname_downlevel.obj
 0002:00010168       ??_C@_1M@IMEPLEPE@?$AAz?$AAh?$AA?9?$AAt?$AAw?$AA?$AA@ 000000018003b168     libucrt:lcidtoname_downlevel.obj
 0002:00010178       ??_C@_1M@BBGHNHJP@?$AAz?$AAu?$AA?9?$AAz?$AAa?$AA?$AA@ 000000018003b178     libucrt:lcidtoname_downlevel.obj
 0002:000103e0       __log10_256_lead           000000018003b3e0     libucrt:log10_256_lead_tail_table.obj
 0002:00010bf0       __log10_256_tail           000000018003bbf0     libucrt:log10_256_lead_tail_table.obj
 0002:000113f8       ??_C@_1BA@BALFACEM@?$AAC?$AAO?$AAN?$AAO?$AAU?$AAT?$AA$?$AA?$AA@ 000000018003c3f8     libucrt:initcon.obj
 0002:00011408       ??_C@_1BK@DBDEIDLH@?$AAK?$AAE?$AAR?$AAN?$AAE?$AAL?$AA3?$AA2?$AA?4?$AAD?$AAL?$AAL@ 000000018003c408     DelayImp:delayhlp.obj
 0002:00011428       __pfnDliFailureHook2       000000018003c428     DelayImp:delayhk1.obj
 0002:00011430       _load_config_used          000000018003c430     LIBCMT:loadcfg.obj
 0002:00011530       ??_C@_0M@OFPLMEDN@getPrinters@ 000000018003c530     node_printer.obj
 0002:00011540       ??_C@_0BG@LKCIGDOF@getDefaultPrinterName@ 000000018003c540     node_printer.obj
 0002:00011558       ??_C@_0L@OHHGBAEL@getPrinter@ 000000018003c558     node_printer.obj
 0002:00011568       ??_C@_0BI@GAOFGHOM@getPrinterDriverOptions@ 000000018003c568     node_printer.obj
 0002:00011580       ??_C@_06JIAALHGN@getJob@   000000018003c580     node_printer.obj
 0002:00011588       ??_C@_06LJBAPLA@setJob@    000000018003c588     node_printer.obj
 0002:00011590       ??_C@_0M@IGPAMLFN@printDirect@ 000000018003c590     node_printer.obj
 0002:000115a0       ??_C@_09HICNICHL@printFile@ 000000018003c5a0     node_printer.obj
 0002:000115b0       ??_C@_0BJ@KPMFEGP@getSupportedPrintFormats@ 000000018003c5b0     node_printer.obj
 0002:000115d0       ??_C@_0BI@OADJINNK@getSupportedJobCommands@ 000000018003c5d0     node_printer.obj
 0002:000115f0       ??_C@_0EI@MKIKKECD@e?3?2webdevolpment?2node?5projects?2@ 000000018003c5f0     node_printer.obj
 0002:00011638       ??_C@_0N@ENGGNKJL@node_printer@ 000000018003c638     node_printer.obj
 0002:00011648       ??_C@_0BA@JFNIOLAK@string?5too?5long@ 000000018003c648     node_printer.obj
 0002:00011658       ??_C@_0BC@BDKFLDHL@unknown?5exception@ 000000018003c658     node_printer_win.obj
 0002:00011670       ??_C@_0BA@ELKIONDK@bad?5locale?5name@ 000000018003c670     node_printer_win.obj
 0002:00011680       ??_C@_05LAPONLG@false@     000000018003c680     node_printer_win.obj
 0002:00011688       ??_C@_04LOAJBDKD@true@     000000018003c688     node_printer_win.obj
 0002:0001168d       ??_C@_00CNPNBAHC@@         000000018003c68d     node_printer_win.obj
 0002:00011690       ??_C@_02LMMGGCAJ@?3?5@     000000018003c690     node_printer_win.obj
 0002:00011698       ??_C@_08LLGCOLLL@iostream@ 000000018003c698     node_printer_win.obj
 0002:000116a8       ??_C@_0BG@PADBLCHM@iostream?5stream?5error@ 000000018003c6a8     node_printer_win.obj
 0002:000116c0       ??_C@_0BF@PHHKMMFD@ios_base?3?3badbit?5set@ 000000018003c6c0     node_printer_win.obj
 0002:000116d8       ??_C@_0BG@FMKFHCIL@ios_base?3?3failbit?5set@ 000000018003c6d8     node_printer_win.obj
 0002:000116f0       ??_C@_0BF@OOHOMBOF@ios_base?3?3eofbit?5set@ 000000018003c6f0     node_printer_win.obj
 0002:00011708       ??_C@_04OCLOIKKP@BUSY@     000000018003c708     node_printer_win.obj
 0002:00011710       ??_C@_09HMMPCPCI@DOOR?9OPEN@ 000000018003c710     node_printer_win.obj
 0002:0001171c       ??_C@_05MBDEGLCK@ERROR@    000000018003c71c     node_printer_win.obj
 0002:00011728       ??_C@_0N@GDECMNNL@INITIALIZING@ 000000018003c728     node_printer_win.obj
 0002:00011738       ??_C@_09LIICJBED@IO?9ACTIVE@ 000000018003c738     node_printer_win.obj
 0002:00011748       ??_C@_0M@MBAFHBNB@MANUAL?9FEED@ 000000018003c748     node_printer_win.obj
 0002:00011758       ??_C@_08JJNKGBFD@NO?9TONER@ 000000018003c758     node_printer_win.obj
 0002:00011768       ??_C@_0O@NAOAIBHD@NOT?9AVAILABLE@ 000000018003c768     node_printer_win.obj
 0002:00011778       ??_C@_07BIKPOAJA@OFFLINE@  000000018003c778     node_printer_win.obj
 0002:00011780       ??_C@_0O@OCOPPEOP@OUT?9OF?9MEMORY@ 000000018003c780     node_printer_win.obj
 0002:00011790       ??_C@_0BA@IIGDMLKB@OUTPUT?9BIN?9FULL@ 000000018003c790     node_printer_win.obj
 0002:000117a0       ??_C@_09ICMCIJIG@PAGE?9PUNT@ 000000018003c7a0     node_printer_win.obj
 0002:000117b0       ??_C@_09JHKMIDDC@PAPER?9JAM@ 000000018003c7b0     node_printer_win.obj
 0002:000117c0       ??_C@_09CAFNNBLE@PAPER?9OUT@ 000000018003c7c0     node_printer_win.obj
 0002:000117d0       ??_C@_0O@ODHKPIIF@PAPER?9PROBLEM@ 000000018003c7d0     node_printer_win.obj
 0002:000117e0       ??_C@_06EOENDFCC@PAUSED@   000000018003c7e0     node_printer_win.obj
 0002:000117e8       ??_C@_0BB@PBKJHFPO@PENDING?9DELETION@ 000000018003c7e8     node_printer_win.obj
 0002:00011800       ??_C@_0L@ECGFKCFL@POWER?9SAVE@ 000000018003c800     node_printer_win.obj
 0002:00011810       ??_C@_08HGNFACJO@PRINTING@ 000000018003c810     node_printer_win.obj
 0002:00011820       ??_C@_0L@DHKEDHLJ@PROCESSING@ 000000018003c820     node_printer_win.obj
 0002:00011830       ??_C@_0P@OONCONOB@SERVER?9UNKNOWN@ 000000018003c830     node_printer_win.obj
 0002:00011840       ??_C@_09KAGMFDMO@TONER?9LOW@ 000000018003c840     node_printer_win.obj
 0002:00011850       ??_C@_0BC@HIJKEFLK@USER?9INTERVENTION@ 000000018003c850     node_printer_win.obj
 0002:00011868       ??_C@_07OBKGPIJE@WAITING@  000000018003c868     node_printer_win.obj
 0002:00011870       ??_C@_0L@NGDPENOF@WARMING?9UP@ 000000018003c870     node_printer_win.obj
 0002:00011880       ??_C@_07BCAOMLJN@PRINTED@  000000018003c880     node_printer_win.obj
 0002:00011888       ??_C@_0N@NEOKEICG@BLOCKED?9DEVQ@ 000000018003c888     node_printer_win.obj
 0002:00011898       ??_C@_07GPJLPGKO@DELETED@  000000018003c898     node_printer_win.obj
 0002:000118a0       ??_C@_08MJHIPGLF@DELETING@ 000000018003c8a0     node_printer_win.obj
 0002:000118b0       ??_C@_08MHNHLKPH@PAPEROUT@ 000000018003c8b0     node_printer_win.obj
 0002:000118c0       ??_C@_07EOCDMAHH@RESTART@  000000018003c8c0     node_printer_win.obj
 0002:000118c8       ??_C@_08PFGBADPK@SPOOLING@ 000000018003c8c8     node_printer_win.obj
 0002:000118d8       ??_C@_08PAHEDIPH@COMPLETE@ 000000018003c8d8     node_printer_win.obj
 0002:000118e8       ??_C@_08PLNNIKFJ@RETAINED@ 000000018003c8e8     node_printer_win.obj
 0002:000118f4       ??_C@_06LIJCLFCC@DIRECT@   000000018003c8f4     node_printer_win.obj
 0002:00011900       ??_C@_0BC@LPKCNOLB@DO?9COMPLETE?9FIRST@ 000000018003c900     node_printer_win.obj
 0002:00011918       ??_C@_0M@DANDHPID@ENABLE?9DEVQ@ 000000018003c918     node_printer_win.obj
 0002:00011924       ??_C@_06JMIOFMHI@HIDDEN@   000000018003c924     node_printer_win.obj
 0002:00011930       ??_C@_0BA@FKHBHIMC@KEEPPRINTEDJOBS@ 000000018003c930     node_printer_win.obj
 0002:00011940       ??_C@_05EIDBELPO@LOCAL@    000000018003c940     node_printer_win.obj
 0002:00011948       ??_C@_07BCBHNHNG@NETWORK@  000000018003c948     node_printer_win.obj
 0002:00011950       ??_C@_09JOLHJECC@PUBLISHED@ 000000018003c950     node_printer_win.obj
 0002:0001195c       ??_C@_06DFPGLGEF@QUEUED@   000000018003c95c     node_printer_win.obj
 0002:00011968       ??_C@_08EOLEPDCM@RAW?9ONLY@ 000000018003c968     node_printer_win.obj
 0002:00011974       ??_C@_06HFHGCIFA@SHARED@   000000018003c974     node_printer_win.obj
 0002:0001197c       ??_C@_03GDPOBHKJ@FAX@      000000018003c97c     node_printer_win.obj
 0002:00011980       ??_C@_0O@LFFLPEBM@FRIENDLY?9NAME@ 000000018003c980     node_printer_win.obj
 0002:00011990       ??_C@_07DKGAOOBA@MACHINE@  000000018003c990     node_printer_win.obj
 0002:00011998       ??_C@_0M@DLENJFKP@PUSHED?9USER@ 000000018003c998     node_printer_win.obj
 0002:000119a8       ??_C@_0P@GEHPJOGO@PUSHED?9MACHINE@ 000000018003c9a8     node_printer_win.obj
 0002:000119b8       ??_C@_02PKJNKOBG@TS@       000000018003c9b8     node_printer_win.obj
 0002:000119bc       ??_C@_06JHILMIHF@CANCEL@   000000018003c9bc     node_printer_win.obj
 0002:000119c4       ??_C@_05DIAHPDGL@PAUSE@    000000018003c9c4     node_printer_win.obj
 0002:000119cc       ??_C@_06PPGAKMJI@RESUME@   000000018003c9cc     node_printer_win.obj
 0002:000119d4       ??_C@_06FKDAMKFP@DELETE@   000000018003c9d4     node_printer_win.obj
 0002:000119e0       ??_C@_0BA@IOAFOBOJ@SENT?9TO?9PRINTER@ 000000018003c9e0     node_printer_win.obj
 0002:000119f0       ??_C@_0BC@EKGDAJJO@LAST?9PAGE?9EJECTED@ 000000018003c9f0     node_printer_win.obj
 0002:00011a04       ??_C@_06HGMGMBFH@RETAIN@   000000018003ca04     node_printer_win.obj
 0002:00011a10       ??_C@_07LDDIIHCM@RELEASE@  000000018003ca10     node_printer_win.obj
 0002:00011a18       ??_C@_02EGCJHIOB@id@       000000018003ca18     node_printer_win.obj
 0002:00011a1c       ??_C@_04MEMAJGDJ@name@     000000018003ca1c     node_printer_win.obj
 0002:00011a28       ??_C@_0M@DENPMHOH@printerName@ 000000018003ca28     node_printer_win.obj
 0002:00011a34       ??_C@_04CCHAHKJA@user@     000000018003ca34     node_printer_win.obj
 0002:00011a3c       ??_C@_06DLEPGFEF@format@   000000018003ca3c     node_printer_win.obj
 0002:00011a48       ??_C@_08IIJFADMF@priority@ 000000018003ca48     node_printer_win.obj
 0002:00011a54       ??_C@_04IAGNFIBA@size@     000000018003ca54     node_printer_win.obj
 0002:00011a5c       ??_C@_06DJIHEMFI@status@   000000018003ca5c     node_printer_win.obj
 0002:00011a68       ??_C@_0M@OCOCCFP@machineName@ 000000018003ca68     node_printer_win.obj
 0002:00011a78       ??_C@_08JEEDKNPB@document@ 000000018003ca78     node_printer_win.obj
 0002:00011a88       ??_C@_0L@CMEKBBJA@notifyName@ 000000018003ca88     node_printer_win.obj
 0002:00011a98       ??_C@_0P@DGBIAKBE@printProcessor@ 000000018003ca98     node_printer_win.obj
 0002:00011aa8       ??_C@_0L@HHPOFMCB@parameters@ 000000018003caa8     node_printer_win.obj
 0002:00011ab8       ??_C@_0L@LPIOCPLD@driverName@ 000000018003cab8     node_printer_win.obj
 0002:00011ac8       ??_C@_08OAGMDKAF@position@ 000000018003cac8     node_printer_win.obj
 0002:00011ad8       ??_C@_09IIHJADCI@startTime@ 000000018003cad8     node_printer_win.obj
 0002:00011ae8       ??_C@_09CIOMMAN@untilTime@ 000000018003cae8     node_printer_win.obj
 0002:00011af8       ??_C@_0L@EDFEJOLM@totalPages@ 000000018003caf8     node_printer_win.obj
 0002:00011b04       ??_C@_04CLCEDBPF@time@     000000018003cb04     node_printer_win.obj
 0002:00011b10       ??_C@_0N@PCHPGDNI@pagesPrinted@ 000000018003cb10     node_printer_win.obj
 0002:00011b20       ??_C@_06PNFNFJCO@code?3?5@ 000000018003cb20     node_printer_win.obj
 0002:00011b28       ??_C@_0M@IKAFADKH@?0?5message?3?5@ 000000018003cb28     node_printer_win.obj
 0002:00011b38       ??_C@_0CG@DBNFCFND@Error?5on?5allocating?5memory?5for?5@ 000000018003cb38     node_printer_win.obj
 0002:00011b60       ??_C@_05KKCIMGE@error@     000000018003cb60     node_printer_win.obj
 0002:00011b68       ??_C@_0BF@FJKDNEGJ@Error?5on?5EnumJobsW?3?5@ 000000018003cb68     node_printer_win.obj
 0002:00011b80       ??_C@_0L@NDKELIMG@serverName@ 000000018003cb80     node_printer_win.obj
 0002:00011b90       ??_C@_09OFODMELP@shareName@ 000000018003cb90     node_printer_win.obj
 0002:00011ba0       ??_C@_08DHAGKFJJ@portName@ 000000018003cba0     node_printer_win.obj
 0002:00011bb0       ??_C@_07GJGNEJFD@comment@  000000018003cbb0     node_printer_win.obj
 0002:00011bb8       ??_C@_08CBBFJFMD@location@ 000000018003cbb8     node_printer_win.obj
 0002:00011bc8       ??_C@_07KCHEGAKA@sepFile@  000000018003cbc8     node_printer_win.obj
 0002:00011bd0       ??_C@_08IJKJONLA@datatype@ 000000018003cbd0     node_printer_win.obj
 0002:00011be0       ??_C@_0N@MKKJGDNC@statusNumber@ 000000018003cbe0     node_printer_win.obj
 0002:00011bf0       ??_C@_0L@HNMJPKNA@attributes@ 000000018003cbf0     node_printer_win.obj
 0002:00011c00       ??_C@_0BA@CCOAPEEI@defaultPriority@ 000000018003cc00     node_printer_win.obj
 0002:00011c10       ??_C@_0L@INHADAOG@averagePPM@ 000000018003cc10     node_printer_win.obj
 0002:00011c1c       ??_C@_04MGFLLFCA@jobs@     000000018003cc1c     node_printer_win.obj
 0002:00011c28       ??_C@_0CI@JKGAACMI@Error?5on?5allocating?5memory?5for?5@ 000000018003cc28     node_printer_win.obj
 0002:00011c50       ??_C@_0BI@JCMDGAJB@Error?5on?5EnumPrinters?3?5@ 000000018003cc50     node_printer_win.obj
 0002:00011c68       ??_C@_0BF@HGPEJPKP@Expected?51?5arguments@ 000000018003cc68     node_printer_win.obj
 0002:00011c80       ??_C@_0BM@MEFJKJPM@Argument?50?5must?5be?5a?5string@ 000000018003cc80     node_printer_win.obj
 0002:00011ca0       ??_C@_0BJ@PPLHBNKL@error?5on?5PrinterHandle?3?5@ 000000018003cca0     node_printer_win.obj
 0002:00011cc0       ??_C@_0BG@PBCNBFJE@Error?5on?5GetPrinter?3?5@ 000000018003ccc0     node_printer_win.obj
 0002:00011cd8       ??_C@_0BJ@IDGLMKA@not?5supported?5on?5windows@ 000000018003ccd8     node_printer_win.obj
 0002:00011cf8       ??_C@_0BF@BGKENFP@Expected?52?5arguments@ 000000018003ccf8     node_printer_win.obj
 0002:00011d10       ??_C@_0BO@JPDIFIDB@Argument?51?5must?5be?5an?5integer@ 000000018003cd10     node_printer_win.obj
 0002:00011d30       ??_C@_0BB@EJICMOH@Wrong?5job?5number@ 000000018003cd30     node_printer_win.obj
 0002:00011d48       ??_C@_0DC@KIMNJPPM@Error?5on?5GetJob?4?5Wrong?5job?5id?5o@ 000000018003cd48     node_printer_win.obj
 0002:00011d80       ??_C@_0BF@JKMPABDA@Expected?53?5arguments@ 000000018003cd80     node_printer_win.obj
 0002:00011d98       ??_C@_0BM@LAONKPAN@Argument?52?5must?5be?5a?5string@ 000000018003cd98     node_printer_win.obj
 0002:00011dc0       ??_C@_0EM@JPOFEIGN@wrong?5job?5command?4?5use?5getSuppo@ 000000018003cdc0     node_printer_win.obj
 0002:00011e10       ??_C@_0CA@LHKGIIJG@error?5on?5EnumPrintProcessorsW?3?5@ 000000018003ce10     node_printer_win.obj
 0002:00011e30       ??_C@_0CI@LFDNKGLA@error?5on?5EnumPrintProcessorData@ 000000018003ce30     node_printer_win.obj
 0002:00011e58       ??_C@_0BF@HFPCKENA@Expected?55?5arguments@ 000000018003ce58     node_printer_win.obj
 0002:00011e70       ??_C@_0CG@GCEOJCFF@Argument?50?5must?5be?5a?5string?5or?5@ 000000018003ce70     node_printer_win.obj
 0002:00011e98       ??_C@_0BM@BDLLCJKE@Argument?51?5must?5be?5a?5string@ 000000018003ce98     node_printer_win.obj
 0002:00011eb8       ??_C@_0BM@GHAPCPFF@Argument?53?5must?5be?5a?5string@ 000000018003ceb8     node_printer_win.obj
 0002:00011ed8       ??_C@_0BM@PKNDCEEG@Argument?55?5must?5be?5a?5string@ 000000018003ced8     node_printer_win.obj
 0002:00011ef8       ??_C@_0BO@PGNPNOGJ@Argument?56?5must?5be?5an?5integer@ 000000018003cef8     node_printer_win.obj
 0002:00011f18       ??_C@_0BO@GJAFFNPH@Argument?57?5must?5be?5an?5integer@ 000000018003cf18     node_printer_win.obj
 0002:00011f38       ??_C@_0BJ@IAMFJIGO@StartPagePrinter?5error?3?5@ 000000018003cf38     node_printer_win.obj
 0002:00011f58       ??_C@_0BJ@CEPPOLFF@StartDocPrinterW?5error?3?5@ 000000018003cf58     node_printer_win.obj
 0002:00011f78       ??_C@_0BD@FCINFPKM@not?5sent?5all?5bytes@ 000000018003cf78     node_printer_win.obj
 0002:00011f90       ??_C@_0BP@BFBMJHKP@Not?5yet?5implemented?5on?5Windows@ 000000018003cf90     node_printer_win.obj
 0002:00011fb0       ??_C@_02BBAHNLBA@?$CFp@    000000018003cfb0     node_printer_win.obj
 0002:00011fb4       ??_C@_02MDKMJEGG@eE@       000000018003cfb4     node_printer_win.obj
 0002:00011fb8       ??_C@_02OOPEBDOJ@pP@       000000018003cfb8     node_printer_win.obj
 0002:00011fc0       ??_C@_0BI@CFPLBAOH@invalid?5string?5position@ 000000018003cfc0     node_printer_win.obj
 0002:00011fd8       ??_C@_0BE@JONHPENG@map?1set?$DMT?$DO?5too?5long@ 000000018003cfd8     node_printer_win.obj
 0002:00011ff0       ??_7?$basic_streambuf@DU?$char_traits@D@std@@@std@@6B@ 000000018003cff0     node_printer_win.obj
 0002:00012068       ??_7?$basic_ostringstream@DU?$char_traits@D@std@@V?$allocator@D@2@@std@@6B@ 000000018003d068     node_printer_win.obj
 0002:00012070       ??_7_Iostream_error_category@std@@6B@ 000000018003d070     node_printer_win.obj
 0002:000120a0       ??_7ios_base@std@@6B@      000000018003d0a0     node_printer_win.obj
 0002:000120a8       ??_7?$basic_ios@DU?$char_traits@D@std@@@std@@6B@ 000000018003d0a8     node_printer_win.obj
 0002:000120b0       ??_7exception@stdext@@6B@  000000018003d0b0     node_printer_win.obj
 0002:000120c8       ??_7?$basic_stringbuf@DU?$char_traits@D@std@@V?$allocator@D@2@@std@@6B@ 000000018003d0c8     node_printer_win.obj
 0002:00012140       ??_8?$basic_ostringstream@DU?$char_traits@D@std@@V?$allocator@D@2@@std@@7B@ 000000018003d140     node_printer_win.obj
 0002:00012148       ??_7?$basic_ostream@DU?$char_traits@D@std@@@std@@6B@ 000000018003d148     node_printer_win.obj
 0002:00012150       ??_7failure@ios_base@std@@6B@ 000000018003d150     node_printer_win.obj
 0002:00012168       ??_C@_08JDDNMFDB@node?4exe@ 000000018003d168     win_delay_load_hook.obj
 0002:00012178       __pfnDliNotifyHook2        000000018003d178     win_delay_load_hook.obj
 0002:00012180       __real@4202a05f20000000    000000018003d180     node_printer_win.obj
 0002:00012190       __xmm@000000000000000f0000000000000000 000000018003d190     node_printer_win.obj
 0002:000121a0       __xmm@7fffffffffffffff7fffffffffffffff 000000018003d1a0     node_printer_win.obj
 0002:00012220       _tls_used                  000000018003d220     LIBCMT:tlssup.obj
 0002:00012248       ??_R4exception@std@@6B@    000000018003d248     libcpmt:xthrow.obj
 0002:00012270       ??_R3exception@std@@8      000000018003d270     libcpmt:xthrow.obj
 0002:00012288       ??_R2exception@std@@8      000000018003d288     libcpmt:xthrow.obj
 0002:00012298       ??_R1A@?0A@EA@exception@std@@8 000000018003d298     libcpmt:xthrow.obj
 0002:000122c0       ??_R4bad_alloc@std@@6B@    000000018003d2c0     libcpmt:xthrow.obj
 0002:000122e8       ??_R3bad_alloc@std@@8      000000018003d2e8     libcpmt:xthrow.obj
 0002:00012300       ??_R2bad_alloc@std@@8      000000018003d300     libcpmt:xthrow.obj
 0002:00012318       ??_R1A@?0A@EA@bad_alloc@std@@8 000000018003d318     libcpmt:xthrow.obj
 0002:00012340       ??_R4logic_error@std@@6B@  000000018003d340     libcpmt:xthrow.obj
 0002:00012368       ??_R3logic_error@std@@8    000000018003d368     libcpmt:xthrow.obj
 0002:00012380       ??_R2logic_error@std@@8    000000018003d380     libcpmt:xthrow.obj
 0002:00012398       ??_R1A@?0A@EA@logic_error@std@@8 000000018003d398     libcpmt:xthrow.obj
 0002:000123c0       ??_R4length_error@std@@6B@ 000000018003d3c0     libcpmt:xthrow.obj
 0002:000123e8       ??_R3length_error@std@@8   000000018003d3e8     libcpmt:xthrow.obj
 0002:00012400       ??_R2length_error@std@@8   000000018003d400     libcpmt:xthrow.obj
 0002:00012420       ??_R1A@?0A@EA@length_error@std@@8 000000018003d420     libcpmt:xthrow.obj
 0002:00012448       ??_R4out_of_range@std@@6B@ 000000018003d448     libcpmt:xthrow.obj
 0002:00012470       ??_R3out_of_range@std@@8   000000018003d470     libcpmt:xthrow.obj
 0002:00012488       ??_R2out_of_range@std@@8   000000018003d488     libcpmt:xthrow.obj
 0002:000124a8       ??_R1A@?0A@EA@out_of_range@std@@8 000000018003d4a8     libcpmt:xthrow.obj
 0002:000124d0       ??_R4runtime_error@std@@6B@ 000000018003d4d0     libcpmt:xthrow.obj
 0002:000124f8       ??_R3runtime_error@std@@8  000000018003d4f8     libcpmt:xthrow.obj
 0002:00012510       ??_R2runtime_error@std@@8  000000018003d510     libcpmt:xthrow.obj
 0002:00012528       ??_R1A@?0A@EA@runtime_error@std@@8 000000018003d528     libcpmt:xthrow.obj
 0002:00012550       ??_R4_System_error@std@@6B@ 000000018003d550     libcpmt:xonce.obj
 0002:00012578       ??_R3_System_error@std@@8  000000018003d578     libcpmt:xonce.obj
 0002:00012590       ??_R2_System_error@std@@8  000000018003d590     libcpmt:xonce.obj
 0002:000125b0       ??_R1A@?0A@EA@_System_error@std@@8 000000018003d5b0     libcpmt:xonce.obj
 0002:000125d8       ??_R4_Facet_base@std@@6B@  000000018003d5d8     libcpmt:locale0.obj
 0002:00012600       ??_R3_Facet_base@std@@8    000000018003d600     libcpmt:locale0.obj
 0002:00012618       ??_R2_Facet_base@std@@8    000000018003d618     libcpmt:locale0.obj
 0002:00012628       ??_R1A@?0A@EA@_Facet_base@std@@8 000000018003d628     libcpmt:locale0.obj
 0002:00012650       ??_R4_Locimp@locale@std@@6B@ 000000018003d650     libcpmt:locale0.obj
 0002:00012678       ??_R3_Locimp@locale@std@@8 000000018003d678     libcpmt:locale0.obj
 0002:00012690       ??_R2_Locimp@locale@std@@8 000000018003d690     libcpmt:locale0.obj
 0002:000126b8       ??_R1A@?0A@EA@_Locimp@locale@std@@8 000000018003d6b8     libcpmt:locale0.obj
 0002:000126e0       ??_R1A@?0A@EA@facet@locale@std@@8 000000018003d6e0     libcpmt:locale0.obj
 0002:00012708       ??_R3facet@locale@std@@8   000000018003d708     libcpmt:locale0.obj
 0002:00012720       ??_R2facet@locale@std@@8   000000018003d720     libcpmt:locale0.obj
 0002:00012740       ??_R17?0A@EA@_Crt_new_delete@std@@8 000000018003d740     libcpmt:locale0.obj
 0002:00012768       ??_R3_Crt_new_delete@std@@8 000000018003d768     libcpmt:locale0.obj
 0002:00012780       ??_R2_Crt_new_delete@std@@8 000000018003d780     libcpmt:locale0.obj
 0002:00012790       ??_R1A@?0A@EA@_Crt_new_delete@std@@8 000000018003d790     libcpmt:locale0.obj
 0002:000127b8       ??_R3ctype_base@std@@8     000000018003d7b8     libcpmt:locale.obj
 0002:000127d0       ??_R2ctype_base@std@@8     000000018003d7d0     libcpmt:locale.obj
 0002:000127f8       ??_R1A@?0A@EA@ctype_base@std@@8 000000018003d7f8     libcpmt:locale.obj
 0002:00012820       ??_R4?$ctype@D@std@@6B@    000000018003d820     libcpmt:locale.obj
 0002:00012848       ??_R3?$ctype@D@std@@8      000000018003d848     libcpmt:locale.obj
 0002:00012860       ??_R2?$ctype@D@std@@8      000000018003d860     libcpmt:locale.obj
 0002:00012890       ??_R1A@?0A@EA@?$ctype@D@std@@8 000000018003d890     libcpmt:locale.obj
 0002:000128b8       ??_R4?$num_put@DV?$ostreambuf_iterator@DU?$char_traits@D@std@@@std@@@std@@6B@ 000000018003d8b8     libcpmt:locale.obj
 0002:000128e0       ??_R3?$num_put@DV?$ostreambuf_iterator@DU?$char_traits@D@std@@@std@@@std@@8 000000018003d8e0     libcpmt:locale.obj
 0002:000128f8       ??_R2?$num_put@DV?$ostreambuf_iterator@DU?$char_traits@D@std@@@std@@@std@@8 000000018003d8f8     libcpmt:locale.obj
 0002:00012920       ??_R1A@?0A@EA@?$num_put@DV?$ostreambuf_iterator@DU?$char_traits@D@std@@@std@@@std@@8 000000018003d920     libcpmt:locale.obj
 0002:00012948       ??_R4?$numpunct@D@std@@6B@ 000000018003d948     libcpmt:locale.obj
 0002:00012970       ??_R3?$numpunct@D@std@@8   000000018003d970     libcpmt:locale.obj
 0002:00012988       ??_R2?$numpunct@D@std@@8   000000018003d988     libcpmt:locale.obj
 0002:000129b0       ??_R1A@?0A@EA@?$numpunct@D@std@@8 000000018003d9b0     libcpmt:locale.obj
 0002:000129d8       ??_R4type_info@@6B@        000000018003d9d8     LIBCMT:std_type_info_static.obj
 0002:00012a00       ??_R3type_info@@8          000000018003da00     LIBCMT:std_type_info_static.obj
 0002:00012a18       ??_R2type_info@@8          000000018003da18     LIBCMT:std_type_info_static.obj
 0002:00012a28       ??_R1A@?0A@EA@type_info@@8 000000018003da28     LIBCMT:std_type_info_static.obj
 0002:00012a50       ??_R4bad_array_new_length@std@@6B@ 000000018003da50     LIBCMT:throw_bad_alloc.obj
 0002:00012a78       ??_R3bad_array_new_length@std@@8 000000018003da78     LIBCMT:throw_bad_alloc.obj
 0002:00012a90       ??_R2bad_array_new_length@std@@8 000000018003da90     LIBCMT:throw_bad_alloc.obj
 0002:00012ab0       ??_R1A@?0A@EA@bad_array_new_length@std@@8 000000018003dab0     LIBCMT:throw_bad_alloc.obj
 0002:00012ad8       ??_R4bad_exception@std@@6B@ 000000018003dad8     libvcruntime:frame.obj
 0002:00012b00       ??_R3bad_exception@std@@8  000000018003db00     libvcruntime:frame.obj
 0002:00012b18       ??_R2bad_exception@std@@8  000000018003db18     libvcruntime:frame.obj
 0002:00012b30       ??_R1A@?0A@EA@bad_exception@std@@8 000000018003db30     libvcruntime:frame.obj
 0002:00012fd8       __rtc_iaa                  000000018003dfd8     LIBCMT:initsect.obj
 0002:00012fe0       __rtc_izz                  000000018003dfe0     LIBCMT:initsect.obj
 0002:00012fe8       __rtc_taa                  000000018003dfe8     LIBCMT:initsect.obj
 0002:00012ff0       __rtc_tzz                  000000018003dff0     LIBCMT:initsect.obj
 0002:00012ff8       _tls_start                 000000018003dff8     LIBCMT:tlssup.obj
 0002:00012ffc       _Init_thread_epoch         000000018003dffc     LIBCMT:thread_safe_statics.obj
 0002:00013000       _tls_end                   000000018003e000     LIBCMT:tlssup.obj
 0002:00014db8       _TI2?AVbad_alloc@std@@     000000018003fdb8     libcpmt:xthrow.obj
 0002:00014dd8       _CTA2?AVbad_alloc@std@@    000000018003fdd8     libcpmt:xthrow.obj
 0002:00014df0       _CT??_R0?AVbad_alloc@std@@@8??0bad_alloc@std@@QEAA@AEBV01@@Z24 000000018003fdf0     libcpmt:xthrow.obj
 0002:00014e18       _CT??_R0?AVexception@std@@@8??0exception@std@@QEAA@AEBV01@@Z24 000000018003fe18     libcpmt:xthrow.obj
 0002:00014e40       _CT??_R0?AVlogic_error@std@@@8??0logic_error@std@@QEAA@AEBV01@@Z24 000000018003fe40     libcpmt:xthrow.obj
 0002:00014e68       _TI3?AVlength_error@std@@  000000018003fe68     libcpmt:xthrow.obj
 0002:00014e88       _CTA3?AVlength_error@std@@ 000000018003fe88     libcpmt:xthrow.obj
 0002:00014ea8       _CT??_R0?AVlength_error@std@@@8??0length_error@std@@QEAA@AEBV01@@Z24 000000018003fea8     libcpmt:xthrow.obj
 0002:00014ed0       _TI3?AVout_of_range@std@@  000000018003fed0     libcpmt:xthrow.obj
 0002:00014ef0       _CTA3?AVout_of_range@std@@ 000000018003fef0     libcpmt:xthrow.obj
 0002:00014f10       _CT??_R0?AVout_of_range@std@@@8??0out_of_range@std@@QEAA@AEBV01@@Z24 000000018003ff10     libcpmt:xthrow.obj
 0002:00014f38       _TI3?AVbad_array_new_length@std@@ 000000018003ff38     LIBCMT:throw_bad_alloc.obj
 0002:00014f58       _CTA3?AVbad_array_new_length@std@@ 000000018003ff58     LIBCMT:throw_bad_alloc.obj
 0002:00014f78       _CT??_R0?AVbad_array_new_length@std@@@8??0bad_array_new_length@std@@QEAA@AEBV01@@Z24 000000018003ff78     LIBCMT:throw_bad_alloc.obj
 0002:00014fa0       _TI2?AVbad_exception@std@@ 000000018003ffa0     libvcruntime:frame.obj
 0002:00014fc0       _CTA2?AVbad_exception@std@@ 000000018003ffc0     libvcruntime:frame.obj
 0002:00014fd8       _CT??_R0?AVbad_exception@std@@@8??0bad_exception@std@@QEAA@AEBV01@@Z24 000000018003ffd8     libvcruntime:frame.obj
 0002:00014ffc       __DELAY_IMPORT_DESCRIPTOR_node_exe 000000018003fffc     node:node.exe
 0002:0001501c       __NULL_DELAY_IMPORT_DESCRIPTOR 000000018004001c     node:node.exe
 0002:00015130       \177node_NULL_THUNK_DATA_DLN 0000000180040130     node:node.exe
 0002:00015880       \177node_NULL_THUNK_DATA_DLB 0000000180040880     node:node.exe
 0002:000159cc       __IMPORT_DESCRIPTOR_KERNEL32 00000001800409cc     kernel32:KERNEL32.dll
 0002:000159e0       __IMPORT_DESCRIPTOR_USER32 00000001800409e0     user32:USER32.dll
 0002:000159f4       __IMPORT_DESCRIPTOR_WINSPOOL 00000001800409f4     winspool:WINSPOOL.DRV
 0002:00015a08       __NULL_IMPORT_DESCRIPTOR   0000000180040a08     kernel32:KERNEL32.dll
 0003:00000004       ?_Sync@ios_base@std@@0_NA  0000000180042004     libcpmt:ios.obj
 0003:00000010       ?_PJP_CPP_Copyright@@3PADA 0000000180042010     libcpmt:iosptrs.obj
 0003:00000070       _Init_global_epoch         0000000180042070     LIBCMT:thread_safe_statics.obj
 0003:00000074       __scrt_native_dllmain_reason 0000000180042074     LIBCMT:utility.obj
 0003:00000078       __security_cookie_complement 0000000180042078     LIBCMT:gs_cookie.obj
 0003:00000080       __security_cookie          0000000180042080     LIBCMT:gs_cookie.obj
 0003:00000088       _fltused                   0000000180042088     LIBCMT:fltused.obj
 0003:00000090       __isa_available            0000000180042090     LIBCMT:cpu_disp.obj
 0003:00000094       __isa_enabled              0000000180042094     LIBCMT:cpu_disp.obj
 0003:00000098       __memcpy_nt_iters          0000000180042098     LIBCMT:cpu_disp.obj
 0003:000000b0       __abort_behavior           00000001800420b0     libucrt:abort.obj
 0003:000000c0       __acrt_lconv_c             00000001800420c0     libucrt:localeconv.obj
 0003:00000158       __acrt_lconv               0000000180042158     libucrt:localeconv.obj
 0003:00000160       __acrt_lconv_static_decimal 0000000180042160     libucrt:localeconv.obj
 0003:00000164       __acrt_lconv_static_W_decimal 0000000180042164     libucrt:localeconv.obj
 0003:00000168       _pctype                    0000000180042168     libucrt:ctype.obj
 0003:00000170       _pwctype                   0000000180042170     libucrt:ctype.obj
 0003:00000190       _iob                       0000000180042190     libucrt:_file.obj
 0003:000002a0       __mb_cur_max               00000001800422a0     libucrt:nlsdata.obj
 0003:000002b0       __acrt_initial_locale_data 00000001800422b0     libucrt:nlsdata.obj
 0003:00000408       __acrt_initial_locale_pointers 0000000180042408     libucrt:nlsdata.obj
 0003:00000418       __acrt_wide_c_locale_string 0000000180042418     libucrt:nlsdata.obj
 0003:00000420       __globallocalestatus       0000000180042420     libucrt:glstatus.obj
 0003:000007d0       __acrt_initial_multibyte_data 00000001800427d0     libucrt:mbctype.obj
 0003:00000a00       _lookuptrailbytes          0000000180042a00     libucrt:read.obj
 0003:00000b50       ??_R0?AVbad_alloc@std@@@8  0000000180042b50     libcpmt:xthrow.obj
 0003:00000b78       ??_R0?AVexception@std@@@8  0000000180042b78     libcpmt:xthrow.obj
 0003:00000ba0       ??_R0?AVlogic_error@std@@@8 0000000180042ba0     libcpmt:xthrow.obj
 0003:00000bc8       ??_R0?AVlength_error@std@@@8 0000000180042bc8     libcpmt:xthrow.obj
 0003:00000bf0       ??_R0?AVout_of_range@std@@@8 0000000180042bf0     libcpmt:xthrow.obj
 0003:00000c18       ??_R0?AVruntime_error@std@@@8 0000000180042c18     libcpmt:xthrow.obj
 0003:00000c40       ??_R0?AV_System_error@std@@@8 0000000180042c40     libcpmt:xonce.obj
 0003:00000c68       ??_R0?AV_Facet_base@std@@@8 0000000180042c68     libcpmt:locale0.obj
 0003:00000c90       ??_R0?AV_Locimp@locale@std@@@8 0000000180042c90     libcpmt:locale0.obj
 0003:00000cc0       ??_R0?AVfacet@locale@std@@@8 0000000180042cc0     libcpmt:locale0.obj
 0003:00000ce8       ??_R0?AU_Crt_new_delete@std@@@8 0000000180042ce8     libcpmt:locale0.obj
 0003:00000d18       ??_R0?AUctype_base@std@@@8 0000000180042d18     libcpmt:locale.obj
 0003:00000d40       ??_R0?AV?$ctype@D@std@@@8  0000000180042d40     libcpmt:locale.obj
 0003:00000d70       ??_R0?AV?$num_put@DV?$ostreambuf_iterator@DU?$char_traits@D@std@@@std@@@std@@@8 0000000180042d70     libcpmt:locale.obj
 0003:00000dd0       ??_R0?AV?$numpunct@D@std@@@8 0000000180042dd0     libcpmt:locale.obj
 0003:00000df8       ??_R0?AVtype_info@@@8      0000000180042df8     LIBCMT:std_type_info_static.obj
 0003:00000e18       ??_R0?AVbad_array_new_length@std@@@8 0000000180042e18     LIBCMT:throw_bad_alloc.obj
 0003:00000e48       ??_R0?AVbad_exception@std@@@8 0000000180042e48     libvcruntime:frame.obj
 0003:00000e70       __imp_?GetCurrentContext@Isolate@v8@@QEAA?AV?$Local@VContext@v8@@@2@XZ 0000000180042e70     node:node.exe
 0003:00000e78       __imp_?GetCurrent@Isolate@v8@@SAPEAV12@XZ 0000000180042e78     node:node.exe
 0003:00000e80       __imp_??1HandleScope@v8@@QEAA@XZ 0000000180042e80     node:node.exe
 0003:00000e88       __imp_??0HandleScope@v8@@QEAA@PEAVIsolate@1@@Z 0000000180042e88     node:node.exe
 0003:00000e90       __imp_?GetFunction@FunctionTemplate@v8@@QEAA?AV?$MaybeLocal@VFunction@v8@@@2@V?$Local@VContext@v8@@@2@@Z 0000000180042e90     node:node.exe
 0003:00000e98       __imp_?New@FunctionTemplate@v8@@SA?AV?$Local@VFunctionTemplate@v8@@@2@PEAVIsolate@2@P6AXAEBV?$FunctionCallbackInfo@VValue@v8@@@2@@ZV?$Local@VValue@v8@@@2@V?$Local@VSignature@v8@@@2@HW4ConstructorBehavior@2@W4SideEffectType@2@@Z 0000000180042e98     node:node.exe
 0003:00000ea0       __imp_?ToLocalEmpty@V8@v8@@CAXXZ 0000000180042ea0     node:node.exe
 0003:00000ea8       __imp_?IsObject@Value@v8@@QEBA_NXZ 0000000180042ea8     node:node.exe
 0003:00000eb0       __imp_??1Utf8Value@String@v8@@QEAA@XZ 0000000180042eb0     node:node.exe
 0003:00000eb8       __imp_??0Utf8Value@String@v8@@QEAA@V?$Local@VValue@v8@@@2@@Z 0000000180042eb8     node:node.exe
 0003:00000ec0       __imp_?NewFromUtf8@String@v8@@SA?AV?$MaybeLocal@VString@v8@@@2@PEAVIsolate@2@PEBDW4NewStringType@2@H@Z 0000000180042ec0     node:node.exe
 0003:00000ec8       __imp_?Set@Object@v8@@QEAA_NV?$Local@VValue@v8@@@2@0@Z 0000000180042ec8     node:node.exe
 0003:00000ed0       __imp_?SetName@Function@v8@@QEAAXV?$Local@VString@v8@@@2@@Z 0000000180042ed0     node:node.exe
 0003:00000ed8       __imp_node_module_register 0000000180042ed8     node:node.exe
 0003:00000ee0       __imp_?HasInstance@Buffer@node@@YA_NV?$Local@VValue@v8@@@v8@@@Z 0000000180042ee0     node:node.exe
 0003:00000ee8       __imp_?Data@Buffer@node@@YAPEADV?$Local@VValue@v8@@@v8@@@Z 0000000180042ee8     node:node.exe
 0003:00000ef0       __imp_?Length@Buffer@node@@YA_KV?$Local@VValue@v8@@@v8@@@Z 0000000180042ef0     node:node.exe
 0003:00000ef8       __imp_?ToString@Value@v8@@QEBA?AV?$Local@VString@v8@@@2@XZ 0000000180042ef8     node:node.exe
 0003:00000f00       __imp_?ThrowException@Isolate@v8@@QEAA?AV?$Local@VValue@v8@@@2@V32@@Z 0000000180042f00     node:node.exe
 0003:00000f08       __imp_?TypeError@Exception@v8@@SA?AV?$Local@VValue@v8@@@2@V?$Local@VString@v8@@@2@@Z 0000000180042f08     node:node.exe
 0003:00000f10       __imp_?New@Array@v8@@SA?AV?$Local@VArray@v8@@@2@PEAVIsolate@2@H@Z 0000000180042f10     node:node.exe
 0003:00000f18       __imp_?Int32Value@Value@v8@@QEBAHXZ 0000000180042f18     node:node.exe
 0003:00000f20       __imp_?IsInt32@Value@v8@@QEBA_NXZ 0000000180042f20     node:node.exe
 0003:00000f28       __imp_??1Value@String@v8@@QEAA@XZ 0000000180042f28     node:node.exe
 0003:00000f30       __imp_??0Value@String@v8@@QEAA@V?$Local@VValue@v8@@@2@@Z 0000000180042f30     node:node.exe
 0003:00000f38       __imp_?NewFromTwoByte@String@v8@@SA?AV?$Local@VString@v8@@@2@PEAVIsolate@2@PEBGW4NewStringType@12@H@Z 0000000180042f38     node:node.exe
 0003:00000f40       __imp_?NewFromUtf8@String@v8@@SA?AV?$Local@VString@v8@@@2@PEAVIsolate@2@PEBDW4NewStringType@12@H@Z 0000000180042f40     node:node.exe
 0003:00000f48       __imp_?New@Number@v8@@SA?AV?$Local@VNumber@v8@@@2@PEAVIsolate@2@N@Z 0000000180042f48     node:node.exe
 0003:00000f50       __imp_?New@Object@v8@@SA?AV?$Local@VObject@v8@@@2@PEAVIsolate@2@@Z 0000000180042f50     node:node.exe
 0003:00000f58       __imp_?Set@Object@v8@@QEAA_NIV?$Local@VValue@v8@@@2@@Z 0000000180042f58     node:node.exe
 0003:00000f60       \177node_NULL_THUNK_DATA_DLA 0000000180042f60     node:node.exe
 0003:00000f70       __hmod__node_exe           0000000180042f70     node:node.exe
 0003:000010d0       ?_Id_cnt@id@locale@std@@0HA 00000001800430d0     libcpmt:locale0.obj
 0003:000010d8       ?_Clocptr@_Locimp@locale@std@@0PEAV123@EA 00000001800430d8     libcpmt:locale0.obj
 0003:000010e0       ?id@?$ctype@_W@std@@2V0locale@2@A 00000001800430e0     libcpmt:locale0.obj
 0003:000010e8       ?id@?$ctype@D@std@@2V0locale@2@A 00000001800430e8     libcpmt:locale0.obj
 0003:000010f0       ?id@?$codecvt@GDU_Mbstatet@@@std@@2V0locale@2@A 00000001800430f0     libcpmt:locale0.obj
 0003:000010f8       ?id@?$ctype@G@std@@2V0locale@2@A 00000001800430f8     libcpmt:locale0.obj
 0003:00001110       ?id@?$codecvt@_WDU_Mbstatet@@@std@@2V0locale@2@A 0000000180043110     libcpmt:locale0.obj
 0003:00001140       ?_Index@ios_base@std@@0HA  0000000180043140     libcpmt:ios.obj
 0003:000011b0       ?_Raise_handler@std@@3P6AXAEBVexception@stdext@@@ZEA 00000001800431b0     libcpmt:raisehan.obj
 0003:000011c0       __encodedKERNEL32Functions 00000001800431c0     libcpmt:winapisupp.obj
 0003:00001300       ?id@?$num_get@DV?$istreambuf_iterator@DU?$char_traits@D@std@@@std@@@std@@2V0locale@2@A 0000000180043300     libcpmt:locale.obj
 0003:00001308       ?id@?$codecvt@DDU_Mbstatet@@@std@@2V0locale@2@A 0000000180043308     libcpmt:locale.obj
 0003:00001310       ?_Ptr_cin@std@@3PEAV?$basic_istream@DU?$char_traits@D@std@@@1@EA 0000000180043310     libcpmt:iosptrs.obj
 0003:00001318       ?_Ptr_cout@std@@3PEAV?$basic_ostream@DU?$char_traits@D@std@@@1@EA 0000000180043318     libcpmt:iosptrs.obj
 0003:00001320       ?_Ptr_cerr@std@@3PEAV?$basic_ostream@DU?$char_traits@D@std@@@1@EA 0000000180043320     libcpmt:iosptrs.obj
 0003:00001328       ?_Ptr_clog@std@@3PEAV?$basic_ostream@DU?$char_traits@D@std@@@1@EA 0000000180043328     libcpmt:iosptrs.obj
 0003:00001330       ?_Ptr_wcin@std@@3PEAV?$basic_istream@_WU?$char_traits@_W@std@@@1@EA 0000000180043330     libcpmt:iosptrs.obj
 0003:00001338       ?_Ptr_wcout@std@@3PEAV?$basic_ostream@_WU?$char_traits@_W@std@@@1@EA 0000000180043338     libcpmt:iosptrs.obj
 0003:00001340       ?_Ptr_wcerr@std@@3PEAV?$basic_ostream@_WU?$char_traits@_W@std@@@1@EA 0000000180043340     libcpmt:iosptrs.obj
 0003:00001348       ?_Ptr_wclog@std@@3PEAV?$basic_ostream@_WU?$char_traits@_W@std@@@1@EA 0000000180043348     libcpmt:iosptrs.obj
 0003:000013b0       ?id@?$time_put@_WV?$ostreambuf_iterator@_WU?$char_traits@_W@std@@@std@@@std@@2V0locale@2@A 00000001800433b0     libcpmt:wlocale.obj
 0003:000013b8       ?id@?$num_get@_WV?$istreambuf_iterator@_WU?$char_traits@_W@std@@@std@@@std@@2V0locale@2@A 00000001800433b8     libcpmt:wlocale.obj
 0003:000013c0       ?id@?$num_put@_WV?$ostreambuf_iterator@_WU?$char_traits@_W@std@@@std@@@std@@2V0locale@2@A 00000001800433c0     libcpmt:wlocale.obj
 0003:000013c8       ?id@?$numpunct@_W@std@@2V0locale@2@A 00000001800433c8     libcpmt:wlocale.obj
 0003:000013d0       ?id@?$collate@_W@std@@2V0locale@2@A 00000001800433d0     libcpmt:wlocale.obj
 0003:000013d8       ?id@?$messages@_W@std@@2V0locale@2@A 00000001800433d8     libcpmt:wlocale.obj
 0003:000013e0       ?id@?$money_get@_WV?$istreambuf_iterator@_WU?$char_traits@_W@std@@@std@@@std@@2V0locale@2@A 00000001800433e0     libcpmt:wlocale.obj
 0003:000013e8       ?id@?$money_put@_WV?$ostreambuf_iterator@_WU?$char_traits@_W@std@@@std@@@std@@2V0locale@2@A 00000001800433e8     libcpmt:wlocale.obj
 0003:000013f0       ?id@?$moneypunct@_W$0A@@std@@2V0locale@2@A 00000001800433f0     libcpmt:wlocale.obj
 0003:000013f8       ?id@?$moneypunct@_W$00@std@@2V0locale@2@A 00000001800433f8     libcpmt:wlocale.obj
 0003:00001400       ?id@?$time_get@_WV?$istreambuf_iterator@_WU?$char_traits@_W@std@@@std@@@std@@2V0locale@2@A 0000000180043400     libcpmt:wlocale.obj
 0003:00001408       ?id@?$num_get@GV?$istreambuf_iterator@GU?$char_traits@G@std@@@std@@@std@@2V0locale@2@A 0000000180043408     libcpmt:wlocale.obj
 0003:00001410       ?id@?$num_put@GV?$ostreambuf_iterator@GU?$char_traits@G@std@@@std@@@std@@2V0locale@2@A 0000000180043410     libcpmt:wlocale.obj
 0003:00001418       ?id@?$numpunct@G@std@@2V0locale@2@A 0000000180043418     libcpmt:wlocale.obj
 0003:00001420       ?id@?$collate@G@std@@2V0locale@2@A 0000000180043420     libcpmt:wlocale.obj
 0003:00001428       ?id@?$messages@G@std@@2V0locale@2@A 0000000180043428     libcpmt:wlocale.obj
 0003:00001430       ?id@?$money_get@GV?$istreambuf_iterator@GU?$char_traits@G@std@@@std@@@std@@2V0locale@2@A 0000000180043430     libcpmt:wlocale.obj
 0003:00001438       ?id@?$money_put@GV?$ostreambuf_iterator@GU?$char_traits@G@std@@@std@@@std@@2V0locale@2@A 0000000180043438     libcpmt:wlocale.obj
 0003:00001440       ?id@?$moneypunct@G$0A@@std@@2V0locale@2@A 0000000180043440     libcpmt:wlocale.obj
 0003:00001448       ?id@?$moneypunct@G$00@std@@2V0locale@2@A 0000000180043448     libcpmt:wlocale.obj
 0003:00001450       ?id@?$time_get@GV?$istreambuf_iterator@GU?$char_traits@G@std@@@std@@@std@@2V0locale@2@A 0000000180043450     libcpmt:wlocale.obj
 0003:00001458       ?id@?$time_put@GV?$ostreambuf_iterator@GU?$char_traits@G@std@@@std@@@std@@2V0locale@2@A 0000000180043458     libcpmt:wlocale.obj
 0003:00001460       ?id@?$collate@D@std@@2V0locale@2@A 0000000180043460     libcpmt:xlocale.obj
 0003:00001468       ?id@?$messages@D@std@@2V0locale@2@A 0000000180043468     libcpmt:xlocale.obj
 0003:00001470       ?id@?$money_get@DV?$istreambuf_iterator@DU?$char_traits@D@std@@@std@@@std@@2V0locale@2@A 0000000180043470     libcpmt:xlocale.obj
 0003:00001478       ?id@?$money_put@DV?$ostreambuf_iterator@DU?$char_traits@D@std@@@std@@@std@@2V0locale@2@A 0000000180043478     libcpmt:xlocale.obj
 0003:00001480       ?id@?$moneypunct@D$0A@@std@@2V0locale@2@A 0000000180043480     libcpmt:xlocale.obj
 0003:00001488       ?id@?$moneypunct@D$00@std@@2V0locale@2@A 0000000180043488     libcpmt:xlocale.obj
 0003:00001490       ?id@?$time_get@DV?$istreambuf_iterator@DU?$char_traits@D@std@@@std@@@std@@2V0locale@2@A 0000000180043490     libcpmt:xlocale.obj
 0003:00001498       ?id@?$time_put@DV?$ostreambuf_iterator@DU?$char_traits@D@std@@@std@@@std@@2V0locale@2@A 0000000180043498     libcpmt:xlocale.obj
 0003:000014e8       __scrt_current_native_startup_state 00000001800434e8     LIBCMT:utility.obj
 0003:000014f0       __scrt_native_startup_lock 00000001800434f0     LIBCMT:utility.obj
 0003:00001ab0       __scrt_debugger_hook_flag  0000000180043ab0     LIBCMT:utility_desktop.obj
 0003:00001ab4       _tls_index                 0000000180043ab4     LIBCMT:tlssup.obj
 0003:00001ab8       __favor                    0000000180043ab8     LIBCMT:cpu_disp.obj
 0003:00001ac0       ?__type_info_root_node@@3U__type_info_node@@A 0000000180043ac0     LIBCMT:tncleanup.obj
 0003:00001ad0       ?_OptionsStorage@?1??__local_stdio_scanf_options@@9@4_KA 0000000180043ad0     LIBCMT:default_local_stdio_options.obj
 0003:00001ad8       ?__WinRTOutOfMemoryExceptionCallback@@3P6APEAXXZEA 0000000180043ad8     libvcruntime:ehhelpers.obj
 0003:00001ae0       __pPurecall                0000000180043ae0     libvcruntime:purevirt_data.obj
 0003:00001bf0       ?pArgList@UnDecorator@@0PEAVReplicator@@EA 0000000180043bf0     libvcruntime:undname.obj
 0003:00001bf8       ?pZNameList@UnDecorator@@0PEAVReplicator@@EA 0000000180043bf8     libvcruntime:undname.obj
 0003:00001c00       ?pTemplateArgList@UnDecorator@@0PEAVReplicator@@EA 0000000180043c00     libvcruntime:undname.obj
 0003:00001c08       ?gName@UnDecorator@@0PEBDEB 0000000180043c08     libvcruntime:undname.obj
 0003:00001c10       ?name@UnDecorator@@0PEBDEB 0000000180043c10     libvcruntime:undname.obj
 0003:00001c18       ?disableFlags@UnDecorator@@0KA 0000000180043c18     libvcruntime:undname.obj
 0003:00001c1c       ?fExplicitTemplateParams@UnDecorator@@0_NA 0000000180043c1c     libvcruntime:undname.obj
 0003:00001c1d       ?fGetTemplateArgumentList@UnDecorator@@0_NA 0000000180043c1d     libvcruntime:undname.obj
 0003:00001c20       ?m_pGetParameter@UnDecorator@@0P6APEADJ@ZEA 0000000180043c20     libvcruntime:undname.obj
 0003:00001c28       ?m_CHPENameOffset@UnDecorator@@0KA 0000000180043c28     libvcruntime:undname.obj
 0003:00001c2c       ?m_recursionLevel@UnDecorator@@0KA 0000000180043c2c     libvcruntime:undname.obj
 0003:00001c60       __acrt_lconv_static_null   0000000180043c60     libucrt:localeconv.obj
 0003:00001c64       __acrt_lconv_static_W_null 0000000180043c64     libucrt:localeconv.obj
 0003:00001ec0       ?c_exit_complete@?1???R<lambda_6e4b09c48022b2350581041d5f6b0c4c>@@QEBA@XZ@4_NA 0000000180043ec0     libucrt:exit.obj
 0003:00001fd8       _environ_table             0000000180043fd8     libucrt:environment_initialization.obj
 0003:00001fe0       _wenviron_table            0000000180043fe0     libucrt:environment_initialization.obj
 0003:00001fe8       __dcrt_initial_wide_environment 0000000180043fe8     libucrt:environment_initialization.obj
 0003:00001ff0       __dcrt_initial_narrow_environment 0000000180043ff0     libucrt:environment_initialization.obj
 0003:00001ff8       __acrt_atexit_table        0000000180043ff8     libucrt:onexit.obj
 0003:00002010       __acrt_at_quick_exit_table 0000000180044010     libucrt:onexit.obj
 0003:00002050       _nstream                   0000000180044050     libucrt:_file.obj
 0003:00002058       __piob                     0000000180044058     libucrt:_file.obj
 0003:00002068       __acrt_stdout_buffer       0000000180044068     libucrt:_sftbuf.obj
 0003:00002070       __acrt_stderr_buffer       0000000180044070     libucrt:_sftbuf.obj
 0003:00002078       __acrt_locale_changed_data 0000000180044078     libucrt:wsetlocale.obj
 0003:00002080       __acrt_current_locale_data 0000000180044080     libucrt:nlsdata.obj
 0003:00002090       __pioinfo                  0000000180044090     libucrt:ioinit.obj
 0003:00002490       _nhandle                   0000000180044490     libucrt:ioinit.obj
 0003:00002658       __fma3_is_available        0000000180044658     libucrt:fma3_available.obj
 0003:0000265c       __use_fma3_lib             000000018004465c     libucrt:fma3_available.obj
 0003:00002660       ?_timezone@@3V?$dual_state_global@J@__crt_state_management@@A 0000000180044660     libucrt:timeset.obj
 0003:00002664       ?_daylight@@3V?$dual_state_global@H@__crt_state_management@@A 0000000180044664     libucrt:timeset.obj
 0003:00002668       ?_dstbias@@3V?$dual_state_global@J@__crt_state_management@@A 0000000180044668     libucrt:timeset.obj
 0003:00002740       _mbctype                   0000000180044740     libucrt:mbctype.obj
 0003:00002748       _mbcasemap                 0000000180044748     libucrt:mbctype.obj
 0003:00002750       __acrt_current_multibyte_data 0000000180044750     libucrt:mbctype.obj
 0003:00002760       _pgmptr                    0000000180044760     libucrt:argv_data.obj
 0003:00002768       __argc                     0000000180044768     libucrt:argv_data.obj
 0003:00002770       __argv                     0000000180044770     libucrt:argv_data.obj
 0003:00002778       __wargv                    0000000180044778     libucrt:argv_data.obj
 0003:00002780       _acmdln                    0000000180044780     libucrt:argv_data.obj
 0003:00002788       _wcmdln                    0000000180044788     libucrt:argv_data.obj
 0003:00002790       __acrt_heap                0000000180044790     libucrt:heap_handle.obj
 0003:000027c0       ?DloadKernel32@@3PEAUHINSTANCE__@@EA 00000001800447c0     DelayImp:delayhlp.obj
 0003:000027c8       ?DloadAcquireSRWLockExclusive@@3P6AXPEA_K@ZEA 00000001800447c8     DelayImp:delayhlp.obj
 0003:000027d0       ?DloadReleaseSRWLockExclusive@@3P6AXPEA_K@ZEA 00000001800447d0     DelayImp:delayhlp.obj
 0003:000027d8       ?DloadSrwLock@@3_KA        00000001800447d8     DelayImp:delayhlp.obj
 0003:000027e0       ?DloadSectionLockCount@@3KA 00000001800447e0     DelayImp:delayhlp.obj
 0003:000027e4       ?DloadSectionOldProtection@@3KA 00000001800447e4     DelayImp:delayhlp.obj
 0003:000027e8       ?DloadSectionCommitPermanent@@3KA 00000001800447e8     DelayImp:delayhlp.obj
 0003:000027f0       ?_OptionsStorage@?1??__local_stdio_printf_options@@9@4_KA 00000001800447f0     node_printer_win.obj
 0003:000027f8       ?_Storage@?1???$_Immortalize@V_Iostream_error_category@std@@@std@@YAAEAV_Iostream_error_category@1@XZ@4T?$_Align_type@N$0BA@@1@A 00000001800447f8     node_printer_win.obj
 0003:00002808       ?_Psave@?$_Facetptr@V?$numpunct@D@std@@@std@@2PEBVfacet@locale@2@EB 0000000180044808     node_printer_win.obj
 0003:00002810       ?_Psave@?$_Facetptr@V?$num_put@DV?$ostreambuf_iterator@DU?$char_traits@D@std@@@std@@@std@@@std@@2PEBVfacet@locale@2@EB 0000000180044810     node_printer_win.obj
 0003:00002818       ?_Psave@?$_Facetptr@V?$ctype@D@std@@@std@@2PEBVfacet@locale@2@EB 0000000180044818     node_printer_win.obj
 0003:00002820       ?_Flag@?1???$_Immortalize@V_Iostream_error_category@std@@@std@@YAAEAV_Iostream_error_category@1@XZ@4PEAXEA 0000000180044820     node_printer_win.obj
 0003:00002850       ?id@?$num_put@DV?$ostreambuf_iterator@DU?$char_traits@D@std@@@std@@@std@@2V0locale@2@A 0000000180044850     node_printer_win.obj
 0003:00002878       ?id@?$numpunct@D@std@@2V0locale@2@A 0000000180044878     node_printer_win.obj
 0003:00002890       __dyn_tls_init_callback    0000000180044890     <common>
 0003:00002898       __scrt_ucrt_dll_is_in_use  0000000180044898     <common>

 entry point at        0001:0000db84

 Static symbols

 0000:fffb6000       .debug$S                   0000000180000000     kernel32:KERNEL32.dll
 0000:fffb6000       .debug$S                   0000000180000000     kernel32:KERNEL32.dll
 0000:fffb6000       .debug$S                   0000000180000000     kernel32:KERNEL32.dll
 0000:fffb6000       .debug$S                   0000000180000000     kernel32:KERNEL32.dll
 0000:fffb6000       .debug$S                   0000000180000000     kernel32:KERNEL32.dll
 0000:fffb6000       .debug$S                   0000000180000000     kernel32:KERNEL32.dll
 0000:fffb6000       .debug$S                   0000000180000000     kernel32:KERNEL32.dll
 0000:fffb6000       .debug$S                   0000000180000000     kernel32:KERNEL32.dll
 0000:fffb6000       .debug$S                   0000000180000000     kernel32:KERNEL32.dll
 0000:fffb6000       .debug$S                   0000000180000000     kernel32:KERNEL32.dll
 0000:fffb6000       .debug$S                   0000000180000000     kernel32:KERNEL32.dll
 0000:fffb6000       .debug$S                   0000000180000000     kernel32:KERNEL32.dll
 0000:fffb6000       .debug$S                   0000000180000000     kernel32:KERNEL32.dll
 0000:fffb6000       .debug$S                   0000000180000000     kernel32:KERNEL32.dll
 0000:fffb6000       .debug$S                   0000000180000000     kernel32:KERNEL32.dll
 0000:fffb6000       .debug$S                   0000000180000000     winspool:WINSPOOL.DRV
 0000:fffb6000       .debug$S                   0000000180000000     kernel32:KERNEL32.dll
 0000:fffb6000       .debug$S                   0000000180000000     winspool:WINSPOOL.DRV
 0000:fffb6000       .debug$S                   0000000180000000     kernel32:KERNEL32.dll
 0000:fffb6000       .debug$S                   0000000180000000     winspool:WINSPOOL.DRV
 0000:fffb6000       .debug$S                   0000000180000000     kernel32:KERNEL32.dll
 0000:fffb6000       .debug$S                   0000000180000000     winspool:WINSPOOL.DRV
 0000:fffb6000       .debug$S                   0000000180000000     kernel32:KERNEL32.dll
 0000:fffb6000       .debug$S                   0000000180000000     winspool:WINSPOOL.DRV
 0000:fffb6000       .debug$S                   0000000180000000     kernel32:KERNEL32.dll
 0000:fffb6000       .debug$S                   0000000180000000     winspool:WINSPOOL.DRV
 0000:fffb6000       .debug$S                   0000000180000000     kernel32:KERNEL32.dll
 0000:fffb6000       .debug$S                   0000000180000000     kernel32:KERNEL32.dll
 0000:fffb6000       .debug$S                   0000000180000000     kernel32:KERNEL32.dll
 0000:fffb6000       .debug$S                   0000000180000000     user32:USER32.dll
 0000:fffb6000       .debug$S                   0000000180000000     kernel32:KERNEL32.dll
 0000:fffb6000       .debug$S                   0000000180000000     kernel32:KERNEL32.dll
 0000:fffb6000       .debug$S                   0000000180000000     kernel32:KERNEL32.dll
 0000:fffb6000       .debug$S                   0000000180000000     kernel32:KERNEL32.dll
 0000:fffb6000       .debug$S                   0000000180000000     kernel32:KERNEL32.dll
 0000:fffb6000       .debug$S                   0000000180000000     kernel32:KERNEL32.dll
 0000:fffb6000       .debug$S                   0000000180000000     kernel32:KERNEL32.dll
 0000:fffb6000       .debug$S                   0000000180000000     kernel32:KERNEL32.dll
 0000:fffb6000       .debug$S                   0000000180000000     kernel32:KERNEL32.dll
 0000:fffb6000       .debug$S                   0000000180000000     kernel32:KERNEL32.dll
 0000:fffb6000       .debug$S                   0000000180000000     kernel32:KERNEL32.dll
 0000:fffb6000       .debug$S                   0000000180000000     kernel32:KERNEL32.dll
 0000:fffb6000       .debug$S                   0000000180000000     node_printer.exp
 0000:fffb6000       .debug$S                   0000000180000000     kernel32:KERNEL32.dll
 0000:fffb6000       .debug$S                   0000000180000000     kernel32:KERNEL32.dll
 0000:fffb6000       .debug$S                   0000000180000000     kernel32:KERNEL32.dll
 0000:fffb6000       .debug$S                   0000000180000000     kernel32:KERNEL32.dll
 0000:fffb6000       .debug$S                   0000000180000000     kernel32:KERNEL32.dll
 0000:fffb6000       .debug$S                   0000000180000000     kernel32:KERNEL32.dll
 0000:fffb6000       .debug$S                   0000000180000000     kernel32:KERNEL32.dll
 0000:fffb6000       .debug$S                   0000000180000000     kernel32:KERNEL32.dll
 0000:fffb6000       .debug$S                   0000000180000000     kernel32:KERNEL32.dll
 0000:fffb6000       .debug$S                   0000000180000000     kernel32:KERNEL32.dll
 0000:fffb6000       .debug$S                   0000000180000000     kernel32:KERNEL32.dll
 0000:fffb6000       .debug$S                   0000000180000000     kernel32:KERNEL32.dll
 0000:fffb6000       .debug$S                   0000000180000000     kernel32:KERNEL32.dll
 0000:fffb6000       .debug$S                   0000000180000000     kernel32:KERNEL32.dll
 0000:fffb6000       .debug$S                   0000000180000000     kernel32:KERNEL32.dll
 0000:fffb6000       .debug$S                   0000000180000000     kernel32:KERNEL32.dll
 0000:fffb6000       .debug$S                   0000000180000000     kernel32:KERNEL32.dll
 0000:fffb6000       .debug$S                   0000000180000000     kernel32:KERNEL32.dll
 0000:fffb6000       .debug$S                   0000000180000000     kernel32:KERNEL32.dll
 0000:fffb6000       .debug$S                   0000000180000000     kernel32:KERNEL32.dll
 0000:fffb6000       .debug$S                   0000000180000000     kernel32:KERNEL32.dll
 0000:fffb6000       .debug$S                   0000000180000000     kernel32:KERNEL32.dll
 0000:fffb6000       .debug$S                   0000000180000000     kernel32:KERNEL32.dll
 0000:fffb6000       .debug$S                   0000000180000000     kernel32:KERNEL32.dll
 0000:fffb6000       .debug$S                   0000000180000000     kernel32:KERNEL32.dll
 0000:fffb6000       .debug$S                   0000000180000000     kernel32:KERNEL32.dll
 0000:fffb6000       .debug$S                   0000000180000000     kernel32:KERNEL32.dll
 0000:fffb6000       .debug$S                   0000000180000000     kernel32:KERNEL32.dll
 0000:fffb6000       .debug$S                   0000000180000000     kernel32:KERNEL32.dll
 0000:fffb6000       .debug$S                   0000000180000000     kernel32:KERNEL32.dll
 0000:fffb6000       .debug$S                   0000000180000000     kernel32:KERNEL32.dll
 0000:fffb6000       .debug$S                   0000000180000000     kernel32:KERNEL32.dll
 0000:fffb6000       .debug$S                   0000000180000000     kernel32:KERNEL32.dll
 0000:fffb6000       .debug$S                   0000000180000000     kernel32:KERNEL32.dll
 0000:fffb6000       .debug$S                   0000000180000000     kernel32:KERNEL32.dll
 0000:fffb6000       .debug$S                   0000000180000000     kernel32:KERNEL32.dll
 0000:fffb6000       .debug$S                   0000000180000000     kernel32:KERNEL32.dll
 0000:fffb6000       .debug$S                   0000000180000000     kernel32:KERNEL32.dll
 0000:fffb6000       .debug$S                   0000000180000000     kernel32:KERNEL32.dll
 0000:fffb6000       .debug$S                   0000000180000000     kernel32:KERNEL32.dll
 0000:fffb6000       .debug$S                   0000000180000000     kernel32:KERNEL32.dll
 0000:fffb6000       .debug$S                   0000000180000000     kernel32:KERNEL32.dll
 0000:fffb6000       .debug$S                   0000000180000000     kernel32:KERNEL32.dll
 0000:fffb6000       .debug$S                   0000000180000000     kernel32:KERNEL32.dll
 0000:fffb6000       .debug$S                   0000000180000000     kernel32:KERNEL32.dll
 0000:fffb6000       .debug$S                   0000000180000000     kernel32:KERNEL32.dll
 0000:fffb6000       .debug$S                   0000000180000000     kernel32:KERNEL32.dll
 0000:fffb6000       .debug$S                   0000000180000000     kernel32:KERNEL32.dll
 0000:fffb6000       .debug$S                   0000000180000000     kernel32:KERNEL32.dll
 0000:fffb6000       .debug$S                   0000000180000000     kernel32:KERNEL32.dll
 0000:fffb6000       .debug$S                   0000000180000000     kernel32:KERNEL32.dll
 0000:fffb6000       .debug$S                   0000000180000000     kernel32:KERNEL32.dll
 0000:fffb6000       .debug$S                   0000000180000000     kernel32:KERNEL32.dll
 0000:fffb6000       .debug$S                   0000000180000000     kernel32:KERNEL32.dll
 0000:fffb6000       .debug$S                   0000000180000000     kernel32:KERNEL32.dll
 0000:fffb6000       .debug$S                   0000000180000000     kernel32:KERNEL32.dll
 0000:fffb6000       .debug$S                   0000000180000000     kernel32:KERNEL32.dll
 0000:fffb6000       .debug$S                   0000000180000000     kernel32:KERNEL32.dll
 0000:fffb6000       .debug$S                   0000000180000000     kernel32:KERNEL32.dll
 0000:fffb6000       .debug$S                   0000000180000000     kernel32:KERNEL32.dll
 0000:fffb6000       .debug$S                   0000000180000000     kernel32:KERNEL32.dll
 0000:fffb6000       .debug$S                   0000000180000000     kernel32:KERNEL32.dll
 0000:fffb6000       .debug$S                   0000000180000000     kernel32:KERNEL32.dll
 0000:fffb6000       .debug$S                   0000000180000000     kernel32:KERNEL32.dll
 0000:fffb6000       .debug$S                   0000000180000000     winspool:WINSPOOL.DRV
 0000:fffb6000       .debug$S                   0000000180000000     winspool:WINSPOOL.DRV
 0000:fffb6000       .debug$S                   0000000180000000     winspool:WINSPOOL.DRV
 0000:fffb6000       .debug$S                   0000000180000000     kernel32:KERNEL32.dll
 0000:fffb6000       .debug$S                   0000000180000000     winspool:WINSPOOL.DRV
 0000:fffb6000       .debug$S                   0000000180000000     winspool:WINSPOOL.DRV
 0000:fffb6000       .debug$S                   0000000180000000     winspool:WINSPOOL.DRV
 0000:fffb6000       .debug$S                   0000000180000000     winspool:WINSPOOL.DRV
 0000:fffb6000       .debug$S                   0000000180000000     winspool:WINSPOOL.DRV
 0000:fffb6000       .debug$S                   0000000180000000     winspool:WINSPOOL.DRV
 0000:fffb6000       .debug$S                   0000000180000000     winspool:WINSPOOL.DRV
 0000:fffb6000       .debug$S                   0000000180000000     kernel32:KERNEL32.dll
 0000:fffb6000       .debug$S                   0000000180000000     winspool:WINSPOOL.DRV
 0000:fffb6000       .debug$S                   0000000180000000     winspool:WINSPOOL.DRV
 0000:fffb6000       .debug$S                   0000000180000000     winspool:WINSPOOL.DRV
 0000:fffb6000       .debug$S                   0000000180000000     node:node.exe
 0000:fffb6000       .debug$S                   0000000180000000     node:node.exe
 0000:fffb6000       .debug$S                   0000000180000000     node:node.exe
 0000:fffb6000       .debug$S                   0000000180000000     node:node.exe
 0000:fffb6000       .debug$S                   0000000180000000     node:node.exe
 0000:fffb6000       .debug$S                   0000000180000000     node:node.exe
 0000:fffb6000       .debug$S                   0000000180000000     node:node.exe
 0000:fffb6000       .debug$S                   0000000180000000     node:node.exe
 0000:fffb6000       .debug$S                   0000000180000000     node:node.exe
 0000:fffb6000       .debug$S                   0000000180000000     node:node.exe
 0000:fffb6000       .debug$S                   0000000180000000     node:node.exe
 0000:fffb6000       .debug$S                   0000000180000000     node:node.exe
 0000:fffb6000       .debug$S                   0000000180000000     node:node.exe
 0000:fffb6000       .debug$S                   0000000180000000     node:node.exe
 0000:fffb6000       .debug$S                   0000000180000000     node:node.exe
 0000:fffb6000       .debug$S                   0000000180000000     node:node.exe
 0000:fffb6000       .debug$S                   0000000180000000     node:node.exe
 0000:fffb6000       .debug$S                   0000000180000000     node:node.exe
 0000:fffb6000       .debug$S                   0000000180000000     node:node.exe
 0000:fffb6000       .debug$S                   0000000180000000     node:node.exe
 0000:fffb6000       .debug$S                   0000000180000000     node:node.exe
 0000:fffb6000       .debug$S                   0000000180000000     node:node.exe
 0000:fffb6000       .debug$S                   0000000180000000     node:node.exe
 0000:fffb6000       .debug$S                   0000000180000000     node:node.exe
 0000:fffb6000       .debug$S                   0000000180000000     node:node.exe
 0000:fffb6000       .debug$S                   0000000180000000     node:node.exe
 0000:fffb6000       .debug$S                   0000000180000000     node:node.exe
 0000:fffb6000       .debug$S                   0000000180000000     node:node.exe
 0000:fffb6000       .debug$S                   0000000180000000     node:node.exe
 0000:fffb6000       .debug$S                   0000000180000000     node:node.exe
 0000:fffb6000       .debug$S                   0000000180000000     node:node.exe
 0000:fffb6000       .debug$S                   0000000180000000     node:node.exe
 0000:fffb6000       .debug$S                   0000000180000000     node:node.exe
 0000:fffb6000       .debug$S                   0000000180000000     node:node.exe
 0000:fffb6000       .debug$S                   0000000180000000     node:node.exe
 0000:fffb6000       .debug$S                   0000000180000000     node:node.exe
 0000:fffb6000       .debug$S                   0000000180000000     kernel32:KERNEL32.dll
 0001:00000000       ??__Einitlocks@std@@YAXXZ  0000000180001000 f   libcpmt:xlock.obj
 0001:00000020       ??__E_Fac_tidy_reg@std@@YAXXZ 0000000180001020 f   libcpmt:locale0.obj
 0001:0000002c       ??__Eclassic_locale@std@@YAXXZ 000000018000102c f   libcpmt:locale0.obj
 0001:00000038       ??__Einit_atexit@@YAXXZ    0000000180001038 f   libcpmt:iosptrs.obj
 0001:00000044       ??__Einitlocks@std@@YAXXZ  0000000180001044 f   libcpmt:iosptrs.obj
 0001:00000270       _register_node_printer     0000000180001270 f   node_printer.obj
 0001:00000cc0       ?getStatusMap@?A0x5d6687e9@@YAAEBV?$map@V?$basic_string@DU?$char_traits@D@std@@V?$allocator@D@2@@std@@KU?$less@V?$basic_string@DU?$char_traits@D@std@@V?$allocator@D@2@@std@@@2@V?$allocator@U?$pair@$$CBV?$basic_string@DU?$char_traits@D@std@@V?$allocator@D@2@@std@@K@std@@@2@@std@@XZ 0000000180001cc0 f   node_printer_win.obj
 0001:00001600       ?getJobStatusMap@?A0x5d6687e9@@YAAEBV?$map@V?$basic_string@DU?$char_traits@D@std@@V?$allocator@D@2@@std@@KU?$less@V?$basic_string@DU?$char_traits@D@std@@V?$allocator@D@2@@std@@@2@V?$allocator@U?$pair@$$CBV?$basic_string@DU?$char_traits@D@std@@V?$allocator@D@2@@std@@K@std@@@2@@std@@XZ 0000000180002600 f   node_printer_win.obj
 0001:00001d50       ?getAttributeMap@?A0x5d6687e9@@YAAEBV?$map@V?$basic_string@DU?$char_traits@D@std@@V?$allocator@D@2@@std@@KU?$less@V?$basic_string@DU?$char_traits@D@std@@V?$allocator@D@2@@std@@@2@V?$allocator@U?$pair@$$CBV?$basic_string@DU?$char_traits@D@std@@V?$allocator@D@2@@std@@K@std@@@2@@std@@XZ 0000000180002d50 f   node_printer_win.obj
 0001:00002580       ?getJobCommandMap@?A0x5d6687e9@@YAAEBV?$map@V?$basic_string@DU?$char_traits@D@std@@V?$allocator@D@2@@std@@KU?$less@V?$basic_string@DU?$char_traits@D@std@@V?$allocator@D@2@@std@@@2@V?$allocator@U?$pair@$$CBV?$basic_string@DU?$char_traits@D@std@@V?$allocator@D@2@@std@@K@std@@@2@@std@@XZ 0000000180003580 f   node_printer_win.obj
 0001:00002a70       ?parseJobObject@?A0x5d6687e9@@YAXPEAU_JOB_INFO_2W@@V?$Local@VObject@v8@@@v8@@@Z 0000000180003a70 f   node_printer_win.obj
 0001:00003200       ?getLastErrorCodeAndMessage@?A0x5d6687e9@@YA?AV?$basic_string@DU?$char_traits@D@std@@V?$allocator@D@2@@std@@XZ 0000000180004200 f   node_printer_win.obj
 0001:000034d0       ?retrieveAndParseJobs@?A0x5d6687e9@@YA?AV?$basic_string@DU?$char_traits@D@std@@V?$allocator@D@2@@std@@QEA_WAEBKV?$Local@VObject@v8@@@v8@@AEAUPrinterHandle@1@@Z 00000001800044d0 f   node_printer_win.obj
 0001:00003920       ?parsePrinterInfo@?A0x5d6687e9@@YA?AV?$basic_string@DU?$char_traits@D@std@@V?$allocator@D@2@@std@@PEBU_PRINTER_INFO_2W@@V?$Local@VObject@v8@@@v8@@AEAUPrinterHandle@1@@Z 0000000180004920 f   node_printer_win.obj
 0001:000073c0       no_op_initialize           00000001800083c0 f i libucrt:wsetlocale.obj
 0001:0000b700       ?load_exe_hook@@YAP6A_JXZIPEAUDelayLoadInfo@@@Z 000000018000c700 f   win_delay_load_hook.obj
 0001:0000c10c       tidy_global                000000018000d10c f   libcpmt:locale0.obj
 0001:0000c658       ?initialize_pointers@@YAHXZ 000000018000d658 f   libcpmt:winapisupp.obj
 0001:0000d0e0       $$000000                   000000018000e0e0     LIBCMT:amdsecgs.obj
 0001:0000d158       ?__scrt_initialize_thread_safe_statics@@YAHXZ 000000018000e158 f   LIBCMT:thread_safe_statics.obj
 0001:0000d2b8       ?__scrt_uninitialize_thread_safe_statics@@YAXXZ 000000018000e2b8 f   LIBCMT:thread_safe_statics.obj
 0001:0000d854       ?dllmain_crt_dispatch@@YAHQEAUHINSTANCE__@@KQEAX@Z 000000018000e854 f   LIBCMT:dll_dllmain.obj
 0001:0000d8a4       ?dllmain_crt_process_attach@@YAHQEAUHINSTANCE__@@QEAX@Z 000000018000e8a4 f   LIBCMT:dll_dllmain.obj
 0001:0000d9c0       ?dllmain_crt_process_detach@@YAH_N@Z 000000018000e9c0 f   LIBCMT:dll_dllmain.obj
 0001:0000da50       ?dllmain_dispatch@@YAHQEAUHINSTANCE__@@KQEAX@Z 000000018000ea50 f   LIBCMT:dll_dllmain.obj
 0001:0000dcf0       $$000000                   000000018000ecf0     LIBCMT:chkstk.obj
 0001:0000df0c       capture_current_context    000000018000ef0c f   LIBCMT:gs_report.obj
 0001:0000df7c       capture_previous_context   000000018000ef7c f   LIBCMT:gs_report.obj
 0001:0000ec70       $$000000                   000000018000fc70     libvcruntime:memcpy.obj
 0001:0000ed27       MoveSmall                  000000018000fd27     libvcruntime:memcpy.obj
 0001:0000f0d0       $$000000                   00000001800100d0     libvcruntime:memset.obj
 0001:0000f1cc       MsetTab                    00000001800101cc     libvcruntime:memset.obj
 0001:0000f3c0       $$000000                   00000001800103c0     libvcruntime:memchr.obj
 0001:0000f440       $$000000                   0000000180010440     libvcruntime:memcmp.obj
 0001:0000faf0       ??$BuildCatchObjectHelperInternal@V__FrameHandler3@@@@YAHPEAUEHExceptionRecord@@PEAXPEBU_s_HandlerType@@PEBU_s_CatchableType@@@Z 0000000180010af0 f   libvcruntime:frame.obj
 0001:0000fcf0       ??$BuildCatchObjectInternal@V__FrameHandler3@@@@YAXPEAUEHExceptionRecord@@PEAXPEBU_s_HandlerType@@PEBU_s_CatchableType@@@Z 0000000180010cf0 f   libvcruntime:frame.obj
 0001:0000fdb0       ??$CatchIt@V__FrameHandler3@@@@YAXPEAUEHExceptionRecord@@PEA_KPEAU_CONTEXT@@PEAU_xDISPATCHER_CONTEXT@@PEBU_s_FuncInfo@@PEBU_s_HandlerType@@PEBU_s_CatchableType@@PEBU_s_TryBlockMapEntry@@H1EE@Z 0000000180010db0 f   libvcruntime:frame.obj
 0001:0000fe80       ??$FindHandler@V__FrameHandler3@@@@YAXPEAUEHExceptionRecord@@PEA_KPEAU_CONTEXT@@PEAU_xDISPATCHER_CONTEXT@@PEBU_s_FuncInfo@@EH1@Z 0000000180010e80 f   libvcruntime:frame.obj
 0001:000102e4       ??$FindHandlerForForeignException@V__FrameHandler3@@@@YAXPEAUEHExceptionRecord@@PEA_KPEAU_CONTEXT@@PEAU_xDISPATCHER_CONTEXT@@PEBU_s_FuncInfo@@HH1@Z 00000001800112e4 f   libvcruntime:frame.obj
 0001:00010aec       ?ExFilterRethrow@@YAHPEAU_EXCEPTION_POINTERS@@PEAUEHExceptionRecord@@PEAH@Z 0000000180011aec f   libvcruntime:frame.obj
 0001:00010da0       ?IsInExceptionSpec@@YAEPEAUEHExceptionRecord@@PEBU_s_ESTypeList@@@Z 0000000180011da0 f   libvcruntime:frame.obj
 0001:00010e78       ?Is_bad_exception_allowed@@YAEPEBU_s_ESTypeList@@@Z 0000000180011e78 f   libvcruntime:frame.obj
 0001:00010fa8       ?try_get_function@@YAPEAXW4function_id@?A0x14c33c87@@QEBDQEBW4module_id@2@2@Z 0000000180011fa8 f   libvcruntime:winapi_downlevel.obj
 0001:00011380       $$000000                   0000000180012380     libvcruntime:notify.obj
 0001:00011400       $$000000                   0000000180012400     libvcruntime:handlers.obj
 0001:000117b4       fallbackMethod             00000001800127b4 f   libucrt:strcspn.obj
 0001:00011b68       $LN78                      0000000180012b68     libucrt:strcspn.obj
 0001:00011ba4       $LN77                      0000000180012ba4     libucrt:strcspn.obj
 0001:00011be4       $LN76                      0000000180012be4     libucrt:strcspn.obj
 0001:00011c24       ??$common_vsprintf@Vformat_validation_base@__crt_stdio_output@@D@@YAH_KQEAD0QEBDQEAU__crt_locale_pointers@@1@Z 0000000180012c24 f   libucrt:output.obj
 0001:00013508       ??$?RV<lambda_9bd929c17696992ce54f1d748594fc62>@@AEAV<lambda_082c17da81b0962e08c0587ee0fac50c>@@V<lambda_9c08ac857f4975304d44e9f601d9b878>@@@?$__crt_seh_guarded_call@PEAD@@QEAAPEAD$$QEAV<lambda_9bd929c17696992ce54f1d748594fc62>@@AEAV<lambda_082c17da81b0962e08c0587ee0fac50c>@@$$QEAV<lambda_9c08ac857f4975304d44e9f601d9b878>@@@Z 0000000180014508 f   libucrt:setlocale.obj
 0001:00013548       ??R<lambda_082c17da81b0962e08c0587ee0fac50c>@@QEBAPEADXZ 0000000180014548 f   libucrt:setlocale.obj
 0001:0001468c       memcpy_s                   000000018001568c f   libucrt:cfout.obj
 0001:0001468c       memcpy_s                   000000018001568c f   libucrt:strtod.obj
 0001:00014720       $$000000                   0000000180015720     libucrt:pow.obj
 0001:00015dc0       $$000000                   0000000180016dc0     libucrt:powf.obj
 0001:00016f2c       ?internal_isupper_l@@YA_NHQEAU__crt_locale_pointers@@@Z 0000000180017f2c f   libucrt:tolower_toupper.obj
 0001:0001768c       ??$?RV<lambda_d80eeec6fff315bfe5c115232f3240e3>@@AEAV<lambda_6e4b09c48022b2350581041d5f6b0c4c>@@V<lambda_2358e3775559c9db80273638284d5e45>@@@?$__crt_seh_guarded_call@X@@QEAAX$$QEAV<lambda_d80eeec6fff315bfe5c115232f3240e3>@@AEAV<lambda_6e4b09c48022b2350581041d5f6b0c4c>@@$$QEAV<lambda_2358e3775559c9db80273638284d5e45>@@@Z 000000018001868c f   libucrt:exit.obj
 0001:000176c4       ??R<lambda_6e4b09c48022b2350581041d5f6b0c4c>@@QEBA@XZ 00000001800186c4 f   libucrt:exit.obj
 0001:00017788       ?atexit_exception_filter@@YAHK@Z 0000000180018788 f   libucrt:exit.obj
 0001:00017794       ?common_exit@@YAXHW4_crt_exit_cleanup_mode@@W4_crt_exit_return_mode@@@Z 0000000180018794 f   libucrt:exit.obj
 0001:00017850       ?exit_or_terminate_process@@YAXI@Z 0000000180018850 f   libucrt:exit.obj
 0001:0001789c       ?try_cor_exit_process@@YAXI@Z 000000018001889c f   libucrt:exit.obj
 0001:00017924       ??$parse_command_line@D@@YAXPEADPEAPEAD0PEA_K2@Z 0000000180018924 f   libucrt:argv_parsing.obj
 0001:00017cd0       ??$common_initialize_environment_nolock@D@@YAHXZ 0000000180018cd0 f   libucrt:environment_initialization.obj
 0001:00017d3c       ??$create_environment@D@@YAQEAPEADQEAD@Z 0000000180018d3c f   libucrt:environment_initialization.obj
 0001:00017e44       ??$free_environment@D@@YAXQEAPEAD@Z 0000000180018e44 f   libucrt:environment_initialization.obj
 0001:00017e44       ??$free_environment@_W@@YAXQEAPEA_W@Z 0000000180018e44 f   libucrt:environment_initialization.obj
 0001:00017e88       ??$uninitialize_environment_internal@D@@YAXAEAPEAPEAD@Z 0000000180018e88 f   libucrt:environment_initialization.obj
 0001:00017ea4       ??$uninitialize_environment_internal@_W@@YAXAEAPEAPEA_W@Z 0000000180018ea4 f   libucrt:environment_initialization.obj
 0001:00017f00       ??$?RV<lambda_638799b9deba96c50f710eeac98168cd>@@AEAV<lambda_22ebabd17bc4fa466a2aca6d8deb888d>@@V<lambda_a6f7d7db0129f75315ebf26d50c089f1>@@@?$__crt_seh_guarded_call@H@@QEAAH$$QEAV<lambda_638799b9deba96c50f710eeac98168cd>@@AEAV<lambda_22ebabd17bc4fa466a2aca6d8deb888d>@@$$QEAV<lambda_a6f7d7db0129f75315ebf26d50c089f1>@@@Z 0000000180018f00 f   libucrt:onexit.obj
 0001:00017f3c       ??$?RV<lambda_7777bce6b2f8c936911f934f8298dc43>@@AEAV<lambda_f03950bc5685219e0bcd2087efbe011e>@@V<lambda_3883c3dff614d5e0c5f61bb1ac94921c>@@@?$__crt_seh_guarded_call@H@@QEAAH$$QEAV<lambda_7777bce6b2f8c936911f934f8298dc43>@@AEAV<lambda_f03950bc5685219e0bcd2087efbe011e>@@$$QEAV<lambda_3883c3dff614d5e0c5f61bb1ac94921c>@@@Z 0000000180018f3c f   libucrt:onexit.obj
 0001:00017f78       ??R<lambda_22ebabd17bc4fa466a2aca6d8deb888d>@@QEBAHXZ 0000000180018f78 f   libucrt:onexit.obj
 0001:00018128       ??R<lambda_f03950bc5685219e0bcd2087efbe011e>@@QEBAHXZ 0000000180019128 f   libucrt:onexit.obj
 0001:000182fc       initialize_global_variables 00000001800192fc f   libucrt:initialization.obj
 0001:00018310       initialize_c               0000000180019310 f   libucrt:initialization.obj
 0001:00018334       uninitialize_c             0000000180019334 f   libucrt:initialization.obj
 0001:00018334       initialize_environment     0000000180019334 f   libucrt:initialization.obj
 0001:00018334       uninitialize_global_state_isolation 0000000180019334 f   libucrt:initialization.obj
 0001:00018334       report_memory_leaks        0000000180019334 f   libucrt:initialization.obj
 0001:00018334       initialize_global_state_isolation 0000000180019334 f   libucrt:initialization.obj
 0001:00018338       uninitialize_environment   0000000180019338 f   libucrt:initialization.obj
 0001:00018348       initialize_pointers        0000000180019348 f   libucrt:initialization.obj
 0001:00018388       uninitialize_vcruntime     0000000180019388 f   libucrt:initialization.obj
 0001:00018390       uninitialize_allocated_memory 0000000180019390 f   libucrt:initialization.obj
 0001:000183d0       uninitialize_allocated_io_buffers 00000001800193d0 f   libucrt:initialization.obj
 0001:00019000       $$000000                   000000018001a000     libucrt:strncmp.obj
 0001:00019090       ??$?RV<lambda_0ae27a3a962d80f24befdcbee591983d>@@AEAV<lambda_8d0ee55de4b1038c4002e0adecdf1839>@@V<lambda_dc504788e8f1664fe9b84e20bfb512f2>@@@?$__crt_seh_guarded_call@X@@QEAAX$$QEAV<lambda_0ae27a3a962d80f24befdcbee591983d>@@AEAV<lambda_8d0ee55de4b1038c4002e0adecdf1839>@@$$QEAV<lambda_dc504788e8f1664fe9b84e20bfb512f2>@@@Z 000000018001a090 f   libucrt:per_thread_data.obj
 0001:000190d0       ??$?RV<lambda_2d41944a1d46af3157314b8a01080d33>@@AEAV<lambda_8f455de75cd7d7f24b4096f044d8b9e6>@@V<lambda_aa500f224e6afead328df44964fe2772>@@@?$__crt_seh_guarded_call@X@@QEAAX$$QEAV<lambda_2d41944a1d46af3157314b8a01080d33>@@AEAV<lambda_8f455de75cd7d7f24b4096f044d8b9e6>@@$$QEAV<lambda_aa500f224e6afead328df44964fe2772>@@@Z 000000018001a0d0 f   libucrt:per_thread_data.obj
 0001:00019110       ??$?RV<lambda_aa87e3671a710a21b5dc78c0bdf72e11>@@AEAV<lambda_92619d2358a28f41a33ba319515a20b9>@@V<lambda_6992ecaafeb10aed2b74cb1fae11a551>@@@?$__crt_seh_guarded_call@X@@QEAAX$$QEAV<lambda_aa87e3671a710a21b5dc78c0bdf72e11>@@AEAV<lambda_92619d2358a28f41a33ba319515a20b9>@@$$QEAV<lambda_6992ecaafeb10aed2b74cb1fae11a551>@@@Z 000000018001a110 f   libucrt:per_thread_data.obj
 0001:00019158       ??$?RV<lambda_f2e299630e499de9f9a165e60fcd3db5>@@AEAV<lambda_2ae9d31cdba2644fcbeaf08da7c24588>@@V<lambda_40d01ff24d0e7b3814fdbdcee8eab3c7>@@@?$__crt_seh_guarded_call@X@@QEAAX$$QEAV<lambda_f2e299630e499de9f9a165e60fcd3db5>@@AEAV<lambda_2ae9d31cdba2644fcbeaf08da7c24588>@@$$QEAV<lambda_40d01ff24d0e7b3814fdbdcee8eab3c7>@@@Z 000000018001a158 f   libucrt:per_thread_data.obj
 0001:000191b8       ?construct_ptd_array@@YAXQEAU__acrt_ptd@@@Z 000000018001a1b8 f   libucrt:per_thread_data.obj
 0001:00019288       ?destroy_fls@@YAXPEAX@Z    000000018001a288 f   libucrt:per_thread_data.obj
 0001:000192a8       ?destroy_ptd_array@@YAXQEAU__acrt_ptd@@@Z 000000018001a2a8 f   libucrt:per_thread_data.obj
 0001:000193a0       ?replace_current_thread_locale_nolock@@YAXQEAU__acrt_ptd@@QEAU__crt_locale_data@@@Z 000000018001a3a0 f   libucrt:per_thread_data.obj
 0001:000196f4       ??$?RV<lambda_450d765d439847d4c735a33c368b5fc0>@@AEAV<lambda_44731a7d0e6d81c3e6aa82d741081786>@@V<lambda_601a2a7da3b7a96e9554ac7215c4b07c>@@@?$__crt_seh_guarded_call@P6AXH@Z@@QEAAP6AXH@Z$$QEAV<lambda_450d765d439847d4c735a33c368b5fc0>@@AEAV<lambda_44731a7d0e6d81c3e6aa82d741081786>@@$$QEAV<lambda_601a2a7da3b7a96e9554ac7215c4b07c>@@@Z 000000018001a6f4 f   libucrt:signal.obj
 0001:00019edc       ?fp_format_a@@YAHQEBNPEAD_KQEAD2H_NIQEAU__crt_locale_pointers@@@Z 000000018001aedc f   libucrt:cvt.obj
 0001:0001a24c       ?fp_format_e@@YAHQEBNQEAD_K12H_NIQEAU__crt_locale_pointers@@@Z 000000018001b24c f   libucrt:cvt.obj
 0001:0001a328       ?fp_format_e_internal@@YAHQEAD_KH_NIQEAU_strflt@@2QEAU__crt_locale_pointers@@@Z 000000018001b328 f   libucrt:cvt.obj
 0001:0001a4fc       ?fp_format_f_internal@@YAHQEAD_KHQEAU_strflt@@_NQEAU__crt_locale_pointers@@@Z 000000018001b4fc f   libucrt:cvt.obj
 0001:0001a640       ?fp_format_g@@YAHQEBNQEAD_K12H_NIQEAU__crt_locale_pointers@@@Z 000000018001b640 f   libucrt:cvt.obj
 0001:0001a774       ?fp_format_nan_or_infinity@@YAHW4__acrt_fp_class@@_NPEAD_K1@Z 000000018001b774 f   libucrt:cvt.obj
 0001:0001ad0c       ??$?RV<lambda_1d892b297fdedeee07ed8124eeb2f2fa>@@AEAV<lambda_ffc046909424fd52df0ac47e64813305>@@V<lambda_01a7098693036236037e7cdb9bca3d73>@@@?$__crt_seh_guarded_call@X@@QEAAX$$QEAV<lambda_1d892b297fdedeee07ed8124eeb2f2fa>@@AEAV<lambda_ffc046909424fd52df0ac47e64813305>@@$$QEAV<lambda_01a7098693036236037e7cdb9bca3d73>@@@Z 000000018001bd0c f   libucrt:wsetlocale.obj
 0001:0001ae48       ??$?RV<lambda_410d79af7f07d98d83a3f525b3859a53>@@AEAV<lambda_3e16ef9562a7dcce91392c22ab16ea36>@@V<lambda_38119f0e861e05405d8a144b9b982f0a>@@@?$__crt_seh_guarded_call@X@@QEAAX$$QEAV<lambda_410d79af7f07d98d83a3f525b3859a53>@@AEAV<lambda_3e16ef9562a7dcce91392c22ab16ea36>@@$$QEAV<lambda_38119f0e861e05405d8a144b9b982f0a>@@@Z 000000018001be48 f   libucrt:wsetlocale.obj
 0001:0001aeb8       ??$?RV<lambda_7f2adfce497ff2baa965cd4f576ecfd1>@@AEAV<lambda_2a444430fde8c29194d880d93eed5e8f>@@AEAV<lambda_8dff2cf36a5417162780cd64fa2883ef>@@@?$__crt_seh_guarded_call@X@@QEAAX$$QEAV<lambda_7f2adfce497ff2baa965cd4f576ecfd1>@@AEAV<lambda_2a444430fde8c29194d880d93eed5e8f>@@AEAV<lambda_8dff2cf36a5417162780cd64fa2883ef>@@@Z 000000018001beb8 f   libucrt:wsetlocale.obj
 0001:0001aee4       ??R<lambda_2a444430fde8c29194d880d93eed5e8f>@@QEBA@XZ 000000018001bee4 f   libucrt:wsetlocale.obj
 0001:0001b254       _copytlocinfo_nolock       000000018001c254 f   libucrt:wsetlocale.obj
 0001:0001b804       _wsetlocale_get_all        000000018001c804 f   libucrt:wsetlocale.obj
 0001:0001b9f0       _wsetlocale_nolock         000000018001c9f0 f   libucrt:wsetlocale.obj
 0001:0001bc84       _wsetlocale_set_cat        000000018001cc84 f   libucrt:wsetlocale.obj
 0001:0001bfd8       ?initialize_inherited_file_handles_nolock@@YAXXZ 000000018001cfd8 f   libucrt:ioinit.obj
 0001:0001c0c8       ?initialize_stdio_handles_nolock@@YAXXZ 000000018001d0c8 f   libucrt:ioinit.obj
 0001:0001ccec       ?<lambda_invoker_cdecl>@<lambda_795c6bd18aed400428efeb9a5f0e1479>@@CAHPEA_W@Z 000000018001dcec f   libucrt:winapi_thunks.obj
 0001:0001cd14       ??$?RV<lambda_bd00b5aa228bd7e7e5b2b5db5fd2933b>@@AEAV<lambda_777d11615145f89ee95b9466d285deeb>@@V<lambda_6e5e48fbd24f9f8f81b203eb3d877683>@@@?$__crt_seh_guarded_call@H@@QEAAH$$QEAV<lambda_bd00b5aa228bd7e7e5b2b5db5fd2933b>@@AEAV<lambda_777d11615145f89ee95b9466d285deeb>@@$$QEAV<lambda_6e5e48fbd24f9f8f81b203eb3d877683>@@@Z 000000018001dd14 f   libucrt:winapi_thunks.obj
 0001:0001cd90       ?try_get_function@@YAPEAXW4function_id@?A0x391cf84c@@QEBDQEBW4module_id@2@2@Z 000000018001dd90 f   libucrt:winapi_thunks.obj
 0001:0001d6fc       ?_mbstowcs_l_helper@@YA_KPEA_WPEBD_KPEAU__crt_locale_pointers@@@Z 000000018001e6fc f   libucrt:mbstowcs.obj
 0001:0001da54       ?_wcstombs_l_helper@@YA_KPEADPEB_W_KPEAU__crt_locale_pointers@@@Z 000000018001ea54 f   libucrt:wcstombs.obj
 0001:0001dfb8       ?InternalGetLocaleInfoA@@YAHQEAU__crt_locale_pointers@@QEB_WKQEADH@Z 000000018001efb8 f   libucrt:getlocaleinfoa.obj
 0001:0001e48c       ?__acrt_LCMapStringA_stat@@YAHPEAU__crt_locale_pointers@@PEB_WKPEBDHPEADHHH@Z 000000018001f48c f   libucrt:lcmapstringa.obj
 0001:0001efa8       ?<lambda_invoker_cdecl>@<lambda_c2303d2482d7c3675ea2e24c4cfb6115>@@CAHPEBX0@Z 000000018001ffa8 f   libucrt:argv_wildcards.obj
 0001:0001f148       ??$common_expand_argv_wildcards@D@@YAHQEAPEADQEAPEAPEAD@Z 0000000180020148 f   libucrt:argv_wildcards.obj
 0001:0001f354       ??$copy_and_add_argument_to_buffer@D@@YAHQEBD0_KAEAV?$argument_list@D@?A0x5f5c8891@@@Z 0000000180020354 f   libucrt:argv_wildcards.obj
 0001:0001f4dc       ??$expand_argument_wildcards@D@@YAHQEAD0AEAV?$argument_list@D@?A0x5f5c8891@@@Z 00000001800204dc f   libucrt:argv_wildcards.obj
 0001:0001f914       ??$?RV<lambda_efdfa57d1f175319df784efa44bb7b81>@@AEAV<lambda_5f0a4c1567f8adc6734073e5d1e1b35c>@@V<lambda_2e8a7d3640ea6ccb4c2413664c2db6fd>@@@?$__crt_seh_guarded_call@X@@QEAAX$$QEAV<lambda_efdfa57d1f175319df784efa44bb7b81>@@AEAV<lambda_5f0a4c1567f8adc6734073e5d1e1b35c>@@$$QEAV<lambda_2e8a7d3640ea6ccb4c2413664c2db6fd>@@@Z 0000000180020914 f   libucrt:mbctype.obj
 0001:0001fad0       ?getSystemCP@@YAHH@Z       0000000180020ad0 f   libucrt:mbctype.obj
 0001:0001fb50       ?setSBCS@@YAXPEAU__crt_multibyte_data@@@Z 0000000180020b50 f   libucrt:mbctype.obj
 0001:0001fbe0       ?setSBUpLow@@YAXPEAU__crt_multibyte_data@@@Z 0000000180020be0 f   libucrt:mbctype.obj
 0001:0001fdc4       ?setmbcp_internal@@YAHH_NQEAU__acrt_ptd@@QEAPEAU__crt_multibyte_data@@@Z 0000000180020dc4 f   libucrt:mbctype.obj
 0001:0001ff88       ?update_thread_multibyte_data_internal@@YAPEAU__crt_multibyte_data@@QEAU__acrt_ptd@@QEAPEAU1@@Z 0000000180020f88 f   libucrt:mbctype.obj
 0001:00020378       ?x_ismbbtype_l@@YAHPEAU__crt_locale_pointers@@IHH@Z 0000000180021378 f   libucrt:ismbbyte.obj
 0001:00020704       ??$?RV<lambda_842d9ff0dc9ef11c61343bbaebe7f885>@@AEAV<lambda_c5860995281e5c4ce005b3de8f5874ee>@@V<lambda_d90129c13df834fdcbf8d2b88dafcf2d>@@@?$__crt_seh_guarded_call@X@@QEAAX$$QEAV<lambda_842d9ff0dc9ef11c61343bbaebe7f885>@@AEAV<lambda_c5860995281e5c4ce005b3de8f5874ee>@@$$QEAV<lambda_d90129c13df834fdcbf8d2b88dafcf2d>@@@Z 0000000180021704 f   libucrt:fflush.obj
 0001:000207a0       ??$?RV<lambda_886d6c58226a84441f68b9f2b8217b83>@@AEAV<lambda_ab61a845afdef5b7c387490eaf3616ee>@@V<lambda_f7f22ab5edc0698d5f6905b0d3f44752>@@@?$__crt_seh_guarded_call@X@@QEAAX$$QEAV<lambda_886d6c58226a84441f68b9f2b8217b83>@@AEAV<lambda_ab61a845afdef5b7c387490eaf3616ee>@@$$QEAV<lambda_f7f22ab5edc0698d5f6905b0d3f44752>@@@Z 00000001800217a0 f   libucrt:fflush.obj
 0001:00020880       ?common_flush_all@@YAH_N@Z 0000000180021880 f   libucrt:fflush.obj
 0001:00022e38       ?free_crt_array_internal@@YAXQEAPEBX_K@Z 0000000180023e38 f   libucrt:inittime.obj
 0001:00022e90       ?initialize_lc_time@@YA_NQEAU__crt_lc_time_data@@QEAU__crt_locale_data@@@Z 0000000180023e90 f   libucrt:inittime.obj
 0001:0002354c       GetLocaleNameFromDefault   000000018002454c f   libucrt:get_qualified_locale.obj
 0001:000235f4       GetLocaleNameFromLangCountry 00000001800245f4 f   libucrt:get_qualified_locale.obj
 0001:000236c4       GetLocaleNameFromLanguage  00000001800246c4 f   libucrt:get_qualified_locale.obj
 0001:0002375c       LangCountryEnumProcEx      000000018002475c f   libucrt:get_qualified_locale.obj
 0001:00023a48       LanguageEnumProcEx         0000000180024a48 f   libucrt:get_qualified_locale.obj
 0001:00023b34       ProcessCodePage            0000000180024b34 f   libucrt:get_qualified_locale.obj
 0001:00023c00       TestDefaultCountry         0000000180024c00 f   libucrt:get_qualified_locale.obj
 0001:00023c64       TranslateName              0000000180024c64 f   libucrt:get_qualified_locale.obj
 0001:00023f64       CountryEnumProc            0000000180024f64 f   libucrt:getqloc_downlevel.obj
 0001:0002404c       GetLcidFromLangCountry     000000018002504c f   libucrt:getqloc_downlevel.obj
 0001:0002411c       GetLcidFromLanguage        000000018002511c f   libucrt:getqloc_downlevel.obj
 0001:000241b4       LangCountryEnumProc        00000001800251b4 f   libucrt:getqloc_downlevel.obj
 0001:00024400       LanguageEnumProc           0000000180025400 f   libucrt:getqloc_downlevel.obj
 0001:00024508       LcidFromHexString          0000000180025508 f   libucrt:getqloc_downlevel.obj
 0001:00024558       ProcessCodePage            0000000180025558 f   libucrt:getqloc_downlevel.obj
 0001:00024608       TestDefaultLanguage        0000000180025608 f   libucrt:getqloc_downlevel.obj
 0001:000246b4       TranslateName              00000001800256b4 f   libucrt:getqloc_downlevel.obj
 0001:00024ce0       $$000000                   0000000180025ce0     libucrt:fpsr.obj
 0001:00024d40       ?GetTableIndexFromLocaleName@@YAHPEB_W@Z 0000000180025d40 f   libucrt:lcidtoname_downlevel.obj
 0001:0002545c       _call_matherr              000000018002645c f   libucrt:libm_error.obj
 0001:000254c4       _exception_enabled         00000001800264c4 f   libucrt:libm_error.obj
 0001:00025c90       fallbackMethod             0000000180026c90 f   libucrt:strpbrk.obj
 0001:00026054       $LN78                      0000000180027054     libucrt:strpbrk.obj
 0001:00026090       $LN77                      0000000180027090     libucrt:strpbrk.obj
 0001:000260d0       $LN76                      00000001800270d0     libucrt:strpbrk.obj
 0001:000261ac       ?initialize_multibyte@@YAHXZ 00000001800271ac f   libucrt:multibyte_initializer.obj
 0001:00026200       ??$?RV<lambda_a37b2b86f63e897a80ea819b0eb08c01>@@AEAV<lambda_38ce7e780aa69e748d6df282ebc68efe>@@V<lambda_99fb1378e971ab6e7edea83e3a7a83a2>@@@?$__crt_seh_guarded_call@H@@QEAAH$$QEAV<lambda_a37b2b86f63e897a80ea819b0eb08c01>@@AEAV<lambda_38ce7e780aa69e748d6df282ebc68efe>@@$$QEAV<lambda_99fb1378e971ab6e7edea83e3a7a83a2>@@@Z 0000000180027200 f   libucrt:commit.obj
 0001:00026320       ?write_double_translated_ansi_nolock@@YA?AUwrite_result@?A0x17268360@@HQEBDI@Z 0000000180027320 f   libucrt:write.obj
 0001:000267fc       ?write_text_ansi_nolock@@YA?AUwrite_result@?A0x17268360@@HQEBDI@Z 00000001800277fc f   libucrt:write.obj
 0001:00026900       ?write_text_utf16le_nolock@@YA?AUwrite_result@?A0x17268360@@HQEBDI@Z 0000000180027900 f   libucrt:write.obj
 0001:00026a1c       ?write_text_utf8_nolock@@YA?AUwrite_result@?A0x17268360@@HQEBDI@Z 0000000180027a1c f   libucrt:write.obj
 0001:000272c0       $$000000                   00000001800282c0     libucrt:log10.obj
 0001:0002786c       ??$common_lseek_nolock@_J@@YA_JH_JH@Z 000000018002886c f   libucrt:lseek.obj
 0001:000279f8       ??$common_xtox@K_W@@YAHKQEA_W_KI_N@Z 00000001800289f8 f   libucrt:xtoa.obj
 0001:00027acc       ??$common_xtox_s@K_W@@YAHKQEA_W_KI_N@Z 0000000180028acc f   libucrt:xtoa.obj
 0001:00027f70       _log_special_common        0000000180028f70 f   libucrt:log_special.obj
 0001:00028008       ??$?RV<lambda_751a882b2c74d4b022dec766aa51a29a>@@AEAV<lambda_628dfdc04ba53c8bfc02c9951375f3f5>@@V<lambda_f6c7be5f7998530c34de24c7437d6b54>@@@?$__crt_seh_guarded_call@H@@QEAAH$$QEAV<lambda_751a882b2c74d4b022dec766aa51a29a>@@AEAV<lambda_628dfdc04ba53c8bfc02c9951375f3f5>@@$$QEAV<lambda_f6c7be5f7998530c34de24c7437d6b54>@@@Z 0000000180029008 f   libucrt:close.obj
 0001:00028c40       $$000000                   0000000180029c40     LIBCMT:guard_dispatch.obj
 0001:00028c60       ?dtor$0@?0??_Locimp_dtor@_Locimp@locale@std@@CAXPEAV123@@Z@4HA 0000000180029c60 f   libcpmt:locale0.obj
 0001:00028c60       ?dtor$0@?0??_Init@locale@std@@CAPEAV_Locimp@12@_N@Z@4HA 0000000180029c60 f   libcpmt:locale0.obj
 0001:00028c6c       __scrt_is_nonwritable_in_current_image$filt$0 0000000180029c6c f   LIBCMT:utility.obj
 0001:00028c84       ?fin$0@?0??dllmain_crt_process_attach@@YAHQEAUHINSTANCE__@@QEAX@Z@4HA 0000000180029c84 f   LIBCMT:dll_dllmain.obj
 0001:00028c9b       ?fin$0@?0??dllmain_crt_process_detach@@YAH_N@Z@4HA 0000000180029c9b f   LIBCMT:dll_dllmain.obj
 0001:00028cb7       ?filt$0@?0??dllmain_dispatch@@YAHQEAUHINSTANCE__@@KQEAX@Z@4HA 0000000180029cb7 f   LIBCMT:dll_dllmain.obj
 0001:00028ced       ?filt$0@?0???$_CallSETranslator@V__FrameHandler3@@@@YAHPEAUEHExceptionRecord@@PEA_KPEAU_CONTEXT@@PEAU_xDISPATCHER_CONTEXT@@PEBU_s_FuncInfo@@K1@Z@4HA 0000000180029ced f   libvcruntime:risctrnsctrl.obj
 0001:00028d7e       __DestructExceptionObject$filt$0 0000000180029d7e f   libvcruntime:ehhelpers.obj
 0001:00028d96       ?filt$0@?0??CxxCallCatchBlock@__FrameHandler3@@SAPEAXPEAU_EXCEPTION_RECORD@@@Z@4HA 0000000180029d96 f   libvcruntime:frame.obj
 0001:00028dbb       ?fin$1@?0??CxxCallCatchBlock@__FrameHandler3@@SAPEAXPEAU_EXCEPTION_RECORD@@@Z@4HA 0000000180029dbb f   libvcruntime:frame.obj
 0001:00028e33       ?filt$0@?0??FrameUnwindToState@__FrameHandler3@@SAXPEA_KPEAU_xDISPATCHER_CONTEXT@@PEBU_s_FuncInfo@@H@Z@4HA 0000000180029e33 f   libvcruntime:frame.obj
 0001:00028e49       ?fin$1@?0??FrameUnwindToState@__FrameHandler3@@SAXPEA_KPEAU_xDISPATCHER_CONTEXT@@PEBU_s_FuncInfo@@H@Z@4HA 0000000180029e49 f   libvcruntime:frame.obj
 0001:00028e6c       ?fin$0@?0???$?RV<lambda_f2e299630e499de9f9a165e60fcd3db5>@@AEAV<lambda_2ae9d31cdba2644fcbeaf08da7c24588>@@V<lambda_40d01ff24d0e7b3814fdbdcee8eab3c7>@@@?$__crt_seh_guarded_call@X@@QEAAX$$QEAV<lambda_f2e299630e499de9f9a165e60fcd3db5>@@AEAV<lambda_2ae9d31cdba2644fcbeaf08da7c24588>@@$$QEAV<lambda_40d01ff24d0e7b3814fdbdcee8eab3c7>@@@Z@4HA 0000000180029e6c f   libucrt:per_thread_data.obj
 0001:00028e6c       ?fin$0@?0???$?RV<lambda_638799b9deba96c50f710eeac98168cd>@@AEAV<lambda_22ebabd17bc4fa466a2aca6d8deb888d>@@V<lambda_a6f7d7db0129f75315ebf26d50c089f1>@@@?$__crt_seh_guarded_call@H@@QEAAH$$QEAV<lambda_638799b9deba96c50f710eeac98168cd>@@AEAV<lambda_22ebabd17bc4fa466a2aca6d8deb888d>@@$$QEAV<lambda_a6f7d7db0129f75315ebf26d50c089f1>@@@Z@4HA 0000000180029e6c f   libucrt:onexit.obj
 0001:00028e6c       ?fin$0@?0???$?RV<lambda_9bd929c17696992ce54f1d748594fc62>@@AEAV<lambda_082c17da81b0962e08c0587ee0fac50c>@@V<lambda_9c08ac857f4975304d44e9f601d9b878>@@@?$__crt_seh_guarded_call@PEAD@@QEAAPEAD$$QEAV<lambda_9bd929c17696992ce54f1d748594fc62>@@AEAV<lambda_082c17da81b0962e08c0587ee0fac50c>@@$$QEAV<lambda_9c08ac857f4975304d44e9f601d9b878>@@@Z@4HA 0000000180029e6c f   libucrt:setlocale.obj
 0001:00028e6c       ?fin$0@?0???$?RV<lambda_7777bce6b2f8c936911f934f8298dc43>@@AEAV<lambda_f03950bc5685219e0bcd2087efbe011e>@@V<lambda_3883c3dff614d5e0c5f61bb1ac94921c>@@@?$__crt_seh_guarded_call@H@@QEAAH$$QEAV<lambda_7777bce6b2f8c936911f934f8298dc43>@@AEAV<lambda_f03950bc5685219e0bcd2087efbe011e>@@$$QEAV<lambda_3883c3dff614d5e0c5f61bb1ac94921c>@@@Z@4HA 0000000180029e6c f   libucrt:onexit.obj
 0001:00028e6c       ?fin$0@?0???$?RV<lambda_0ae27a3a962d80f24befdcbee591983d>@@AEAV<lambda_8d0ee55de4b1038c4002e0adecdf1839>@@V<lambda_dc504788e8f1664fe9b84e20bfb512f2>@@@?$__crt_seh_guarded_call@X@@QEAAX$$QEAV<lambda_0ae27a3a962d80f24befdcbee591983d>@@AEAV<lambda_8d0ee55de4b1038c4002e0adecdf1839>@@$$QEAV<lambda_dc504788e8f1664fe9b84e20bfb512f2>@@@Z@4HA 0000000180029e6c f   libucrt:per_thread_data.obj
 0001:00028e6c       ?fin$0@?0???$?RV<lambda_450d765d439847d4c735a33c368b5fc0>@@AEAV<lambda_44731a7d0e6d81c3e6aa82d741081786>@@V<lambda_601a2a7da3b7a96e9554ac7215c4b07c>@@@?$__crt_seh_guarded_call@P6AXH@Z@@QEAAP6AXH@Z$$QEAV<lambda_450d765d439847d4c735a33c368b5fc0>@@AEAV<lambda_44731a7d0e6d81c3e6aa82d741081786>@@$$QEAV<lambda_601a2a7da3b7a96e9554ac7215c4b07c>@@@Z@4HA 0000000180029e6c f   libucrt:signal.obj
 0001:00028e6c       ?fin$0@?0???$?RV<lambda_aa87e3671a710a21b5dc78c0bdf72e11>@@AEAV<lambda_92619d2358a28f41a33ba319515a20b9>@@V<lambda_6992ecaafeb10aed2b74cb1fae11a551>@@@?$__crt_seh_guarded_call@X@@QEAAX$$QEAV<lambda_aa87e3671a710a21b5dc78c0bdf72e11>@@AEAV<lambda_92619d2358a28f41a33ba319515a20b9>@@$$QEAV<lambda_6992ecaafeb10aed2b74cb1fae11a551>@@@Z@4HA 0000000180029e6c f   libucrt:per_thread_data.obj
 0001:00028e6c       ?fin$0@?0???$?RV<lambda_efdfa57d1f175319df784efa44bb7b81>@@AEAV<lambda_5f0a4c1567f8adc6734073e5d1e1b35c>@@V<lambda_2e8a7d3640ea6ccb4c2413664c2db6fd>@@@?$__crt_seh_guarded_call@X@@QEAAX$$QEAV<lambda_efdfa57d1f175319df784efa44bb7b81>@@AEAV<lambda_5f0a4c1567f8adc6734073e5d1e1b35c>@@$$QEAV<lambda_2e8a7d3640ea6ccb4c2413664c2db6fd>@@@Z@4HA 0000000180029e6c f   libucrt:mbctype.obj
 0001:00028e6c       ?fin$0@?0???$?RV<lambda_1d892b297fdedeee07ed8124eeb2f2fa>@@AEAV<lambda_ffc046909424fd52df0ac47e64813305>@@V<lambda_01a7098693036236037e7cdb9bca3d73>@@@?$__crt_seh_guarded_call@X@@QEAAX$$QEAV<lambda_1d892b297fdedeee07ed8124eeb2f2fa>@@AEAV<lambda_ffc046909424fd52df0ac47e64813305>@@$$QEAV<lambda_01a7098693036236037e7cdb9bca3d73>@@@Z@4HA 0000000180029e6c f   libucrt:wsetlocale.obj
 0001:00028e6c       ?fin$0@?0???$?RV<lambda_d80eeec6fff315bfe5c115232f3240e3>@@AEAV<lambda_6e4b09c48022b2350581041d5f6b0c4c>@@V<lambda_2358e3775559c9db80273638284d5e45>@@@?$__crt_seh_guarded_call@X@@QEAAX$$QEAV<lambda_d80eeec6fff315bfe5c115232f3240e3>@@AEAV<lambda_6e4b09c48022b2350581041d5f6b0c4c>@@$$QEAV<lambda_2358e3775559c9db80273638284d5e45>@@@Z@4HA 0000000180029e6c f   libucrt:exit.obj
 0001:00028e6c       ?fin$0@?0???$?RV<lambda_2d41944a1d46af3157314b8a01080d33>@@AEAV<lambda_8f455de75cd7d7f24b4096f044d8b9e6>@@V<lambda_aa500f224e6afead328df44964fe2772>@@@?$__crt_seh_guarded_call@X@@QEAAX$$QEAV<lambda_2d41944a1d46af3157314b8a01080d33>@@AEAV<lambda_8f455de75cd7d7f24b4096f044d8b9e6>@@$$QEAV<lambda_aa500f224e6afead328df44964fe2772>@@@Z@4HA 0000000180029e6c f   libucrt:per_thread_data.obj
 0001:00028e6c       ?fin$0@?0???$?RV<lambda_bd00b5aa228bd7e7e5b2b5db5fd2933b>@@AEAV<lambda_777d11615145f89ee95b9466d285deeb>@@V<lambda_6e5e48fbd24f9f8f81b203eb3d877683>@@@?$__crt_seh_guarded_call@H@@QEAAH$$QEAV<lambda_bd00b5aa228bd7e7e5b2b5db5fd2933b>@@AEAV<lambda_777d11615145f89ee95b9466d285deeb>@@$$QEAV<lambda_6e5e48fbd24f9f8f81b203eb3d877683>@@@Z@4HA 0000000180029e6c f   libucrt:winapi_thunks.obj
 0001:00028e86       _query_new_handler$fin$0   0000000180029e86 f   libucrt:new_handler.obj
 0001:00028e9c       ?filt$0@?0???R<lambda_6e4b09c48022b2350581041d5f6b0c4c>@@QEBA@XZ@4HA 0000000180029e9c f   libucrt:exit.obj
 0001:00028eb7       raise$fin$0                0000000180029eb7 f   libucrt:signal.obj
 0001:00028ed8       ?fin$0@?0???$?RV<lambda_410d79af7f07d98d83a3f525b3859a53>@@AEAV<lambda_3e16ef9562a7dcce91392c22ab16ea36>@@V<lambda_38119f0e861e05405d8a144b9b982f0a>@@@?$__crt_seh_guarded_call@X@@QEAAX$$QEAV<lambda_410d79af7f07d98d83a3f525b3859a53>@@AEAV<lambda_3e16ef9562a7dcce91392c22ab16ea36>@@$$QEAV<lambda_38119f0e861e05405d8a144b9b982f0a>@@@Z@4HA 0000000180029ed8 f   libucrt:wsetlocale.obj
 0001:00028ef2       ?fin$0@?0???$?RV<lambda_7f2adfce497ff2baa965cd4f576ecfd1>@@AEAV<lambda_2a444430fde8c29194d880d93eed5e8f>@@AEAV<lambda_8dff2cf36a5417162780cd64fa2883ef>@@@?$__crt_seh_guarded_call@X@@QEAAX$$QEAV<lambda_7f2adfce497ff2baa965cd4f576ecfd1>@@AEAV<lambda_2a444430fde8c29194d880d93eed5e8f>@@AEAV<lambda_8dff2cf36a5417162780cd64fa2883ef>@@@Z@4HA 0000000180029ef2 f   libucrt:wsetlocale.obj
 0001:00028f13       __acrt_initialize_lowio$fin$0 0000000180029f13 f   libucrt:ioinit.obj
 0001:00028f13       __acrt_lowio_ensure_fh_exists$fin$0 0000000180029f13 f   libucrt:osfinfo.obj
 0001:00028f2c       _ctrlfp$filt$0             0000000180029f2c f   libucrt:fpctrl.obj
 0001:00028f58       ?dtor$0@?0??_wcstombs_l_helper@@YA_KPEADPEB_W_KPEAU__crt_locale_pointers@@@Z@4HA 0000000180029f58 f   libucrt:wcstombs.obj
 0001:00028f64       ?fin$0@?0??update_thread_multibyte_data_internal@@YAPEAU__crt_multibyte_data@@QEAU__acrt_ptd@@QEAPEAU1@@Z@4HA 0000000180029f64 f   libucrt:mbctype.obj
 0001:00028f7d       ?fin$0@?0???$?RV<lambda_842d9ff0dc9ef11c61343bbaebe7f885>@@AEAV<lambda_c5860995281e5c4ce005b3de8f5874ee>@@V<lambda_d90129c13df834fdcbf8d2b88dafcf2d>@@@?$__crt_seh_guarded_call@X@@QEAAX$$QEAV<lambda_842d9ff0dc9ef11c61343bbaebe7f885>@@AEAV<lambda_c5860995281e5c4ce005b3de8f5874ee>@@$$QEAV<lambda_d90129c13df834fdcbf8d2b88dafcf2d>@@@Z@4HA 0000000180029f7d f   libucrt:fflush.obj
 0001:00028f98       ?fin$0@?0???$?RV<lambda_886d6c58226a84441f68b9f2b8217b83>@@AEAV<lambda_ab61a845afdef5b7c387490eaf3616ee>@@V<lambda_f7f22ab5edc0698d5f6905b0d3f44752>@@@?$__crt_seh_guarded_call@X@@QEAAX$$QEAV<lambda_886d6c58226a84441f68b9f2b8217b83>@@AEAV<lambda_ab61a845afdef5b7c387490eaf3616ee>@@$$QEAV<lambda_f7f22ab5edc0698d5f6905b0d3f44752>@@@Z@4HA 0000000180029f98 f   libucrt:fflush.obj
 0001:00028fb5       __acrt_update_thread_locale_data$fin$0 0000000180029fb5 f   libucrt:locale_refcounting.obj
 0001:00028fce       _fcloseall$fin$0           0000000180029fce f   libucrt:closeall.obj
 0001:00028fe7       ?fin$0@?0???$?RV<lambda_a37b2b86f63e897a80ea819b0eb08c01>@@AEAV<lambda_38ce7e780aa69e748d6df282ebc68efe>@@V<lambda_99fb1378e971ab6e7edea83e3a7a83a2>@@@?$__crt_seh_guarded_call@H@@QEAAH$$QEAV<lambda_a37b2b86f63e897a80ea819b0eb08c01>@@AEAV<lambda_38ce7e780aa69e748d6df282ebc68efe>@@$$QEAV<lambda_99fb1378e971ab6e7edea83e3a7a83a2>@@@Z@4HA 0000000180029fe7 f   libucrt:commit.obj
 0001:00028fe7       ?fin$0@?0???$?RV<lambda_751a882b2c74d4b022dec766aa51a29a>@@AEAV<lambda_628dfdc04ba53c8bfc02c9951375f3f5>@@V<lambda_f6c7be5f7998530c34de24c7437d6b54>@@@?$__crt_seh_guarded_call@H@@QEAAH$$QEAV<lambda_751a882b2c74d4b022dec766aa51a29a>@@AEAV<lambda_628dfdc04ba53c8bfc02c9951375f3f5>@@$$QEAV<lambda_f6c7be5f7998530c34de24c7437d6b54>@@@Z@4HA 0000000180029fe7 f   libucrt:close.obj
 0001:00029001       _write$fin$0               000000018002a001 f   libucrt:write.obj
 0001:00029018       fclose$fin$0               000000018002a018 f   libucrt:fclose.obj
 0001:00029030       _IsNonwritableInCurrentImage$filt$0 000000018002a030 f   LIBCMT:pesect.obj
 0001:00029050       ??__Fresult@?1??getStatusMap@?A0x5d6687e9@@YAAEBV?$map@V?$basic_string@DU?$char_traits@D@std@@V?$allocator@D@2@@std@@KU?$less@V?$basic_string@DU?$char_traits@D@std@@V?$allocator@D@2@@std@@@2@V?$allocator@U?$pair@$$CBV?$basic_string@DU?$char_traits@D@std@@V?$allocator@D@2@@std@@K@std@@@2@@std@@XZ@YAXXZ 000000018002a050 f   node_printer_win.obj
 0001:00029090       ??__Fresult@?1??getJobStatusMap@?A0x5d6687e9@@YAAEBV?$map@V?$basic_string@DU?$char_traits@D@std@@V?$allocator@D@2@@std@@KU?$less@V?$basic_string@DU?$char_traits@D@std@@V?$allocator@D@2@@std@@@2@V?$allocator@U?$pair@$$CBV?$basic_string@DU?$char_traits@D@std@@V?$allocator@D@2@@std@@K@std@@@2@@std@@XZ@YAXXZ 000000018002a090 f   node_printer_win.obj
 0001:000290d0       ??__Fresult@?1??getAttributeMap@?A0x5d6687e9@@YAAEBV?$map@V?$basic_string@DU?$char_traits@D@std@@V?$allocator@D@2@@std@@KU?$less@V?$basic_string@DU?$char_traits@D@std@@V?$allocator@D@2@@std@@@2@V?$allocator@U?$pair@$$CBV?$basic_string@DU?$char_traits@D@std@@V?$allocator@D@2@@std@@K@std@@@2@@std@@XZ@YAXXZ 000000018002a0d0 f   node_printer_win.obj
 0001:00029110       ??__Fresult@?1??getJobCommandMap@?A0x5d6687e9@@YAAEBV?$map@V?$basic_string@DU?$char_traits@D@std@@V?$allocator@D@2@@std@@KU?$less@V?$basic_string@DU?$char_traits@D@std@@V?$allocator@D@2@@std@@@2@V?$allocator@U?$pair@$$CBV?$basic_string@DU?$char_traits@D@std@@V?$allocator@D@2@@std@@K@std@@@2@@std@@XZ@YAXXZ 000000018002a110 f   node_printer_win.obj
 0001:00029148       ??__Finitlocks@std@@YAXXZ  000000018002a148 f   libcpmt:xlock.obj
 0001:00029154       ??__F_Fac_tidy_reg@std@@YAXXZ 000000018002a154 f   libcpmt:locale0.obj
 0001:00029160       ??__Fclassic_locale@std@@YAXXZ 000000018002a160 f   libcpmt:locale0.obj
 0001:000291a8       ??__Finit_atexit@@YAXXZ    000000018002a1a8 f   libcpmt:iosptrs.obj
 0001:000291f0       ??__Finitlocks@std@@YAXXZ  000000018002a1f0 f   libcpmt:iosptrs.obj
 0002:00000388       ?initlocks$initializer$@std@@3P6AXXZEA 000000018002b388     libcpmt:xlock.obj
 0002:00000390       ?initlocks$initializer$@std@@3P6AXXZEA 000000018002b390     libcpmt:iosptrs.obj
 0002:00000398       ?init_atexit$initializer$@@3P6AXXZEA 000000018002b398     libcpmt:iosptrs.obj
 0002:000003a0       ?_Fac_tidy_reg$initializer$@std@@3P6AXXZEA 000000018002b3a0     libcpmt:locale0.obj
 0002:000003a8       ?classic_locale$initializer$@std@@3P6AXXZEA 000000018002b3a8     libcpmt:locale0.obj
 0002:000003c8       ?pinit@@3P6AHXZEA          000000018002b3c8     libcpmt:winapisupp.obj
 0002:000003d0       ?__scrt_initialize_tss_var@@3P6AHXZEA 000000018002b3d0     LIBCMT:thread_safe_statics.obj
 0002:00000540       $cppxdata$??1_Fac_tidy_reg_t@std@@QEAA@XZ 000000018002b540     libcpmt:locale0.obj
 0002:00000568       $cppxdata$?_Locimp_dtor@_Locimp@locale@std@@CAXPEAV123@@Z 000000018002b568     libcpmt:locale0.obj
 0002:00000590       $cppxdata$??_G_Locimp@locale@std@@MEAAPEAXI@Z 000000018002b590     libcpmt:locale0.obj
 0002:000005b8       $cppxdata$?_Init@locale@std@@CAPEAV_Locimp@12@_N@Z 000000018002b5b8     libcpmt:locale0.obj
 0002:000005e0       $cppxdata$??__Fclassic_locale@std@@YAXXZ 000000018002b5e0     libcpmt:locale0.obj
 0002:00000658       $cppxdata$?_Ios_base_dtor@ios_base@std@@CAXPEAV12@@Z 000000018002b658     libcpmt:ios.obj
 0002:00000680       ?_Win_errtab@std@@3QBU_Win_errtab_t@1@B 000000018002b680     libcpmt:syserror.obj
 0002:000008f0       ?_Sys_errtab@std@@3QBU_Sys_errtab_t@1@B 000000018002b8f0     libcpmt:syserror.obj
 0002:00001980       $cppxdata$??__Finit_atexit@@YAXXZ 000000018002c980     libcpmt:iosptrs.obj
 0002:000019c0       digits                     000000018002c9c0     libcpmt:xstoul.obj
 0002:000019e8       ndigs                      000000018002c9e8     libcpmt:xstoul.obj
 0002:00001a10       digits                     000000018002ca10     libcpmt:xstoull.obj
 0002:00001a38       ndigs                      000000018002ca38     libcpmt:xstoull.obj
 0002:00001a60       ?LcidToLocaleNameTable@@3QBULcidToLocaleName@@B 000000018002ca60     libcpmt:winapinls.obj
 0002:000028a0       ?LocaleNameToIndexTable@@3QBULocaleNameIndex@@B 000000018002d8a0     libcpmt:winapinls.obj
 0002:00004da0       $cppxdata$?__scrt_initialize_thread_safe_statics@@YAHXZ 000000018002fda0     LIBCMT:thread_safe_statics.obj
 0002:00004e30       GS_ExceptionPointers       000000018002fe30     LIBCMT:gs_report.obj
 0002:00004e70       ?ExceptionTemplate@?1??_CxxThrowException@@9@4UEHExceptionRecord@@B 000000018002fe70     libvcruntime:throw.obj
 0002:00004eb0       ?ExceptionTemplate@?1??UnwindNestedFrames@__FrameHandler3@@SAXPEA_KPEAUEHExceptionRecord@@PEAU_CONTEXT@@0PEAXPEBU_s_FuncInfo@@HHPEBU_s_HandlerType@@PEAU_xDISPATCHER_CONTEXT@@E@Z@4U_EXCEPTION_RECORD@@B 000000018002feb0     libvcruntime:risctrnsctrl.obj
 0002:00004f78       ?module_names@?A0x14c33c87@@3QBQEB_WB 000000018002ff78     libvcruntime:winapi_downlevel.obj
 0002:00005048       ?candidate_modules@?1??try_get_FlsAlloc@@YAP6AKP6AXPEAX@Z@ZXZ@4QBW4module_id@?A0x14c33c87@@B 0000000180030048     libvcruntime:winapi_downlevel.obj
 0002:00005050       ?candidate_modules@?1??try_get_FlsFree@@YAP6AHK@ZXZ@4QBW4module_id@?A0x14c33c87@@B 0000000180030050     libvcruntime:winapi_downlevel.obj
 0002:00005058       ?candidate_modules@?1??try_get_FlsGetValue@@YAP6APEAXK@ZXZ@4QBW4module_id@?A0x14c33c87@@B 0000000180030058     libvcruntime:winapi_downlevel.obj
 0002:00005060       ?candidate_modules@?1??try_get_FlsSetValue@@YAP6AHKPEAX@ZXZ@4QBW4module_id@?A0x14c33c87@@B 0000000180030060     libvcruntime:winapi_downlevel.obj
 0002:00005068       ?candidate_modules@?1??try_get_InitializeCriticalSectionEx@@YAP6AHPEAU_RTL_CRITICAL_SECTION@@KK@ZXZ@4QBW4module_id@?A0x14c33c87@@B 0000000180030068     libvcruntime:winapi_downlevel.obj
 0002:00005070       ?tokenTable@@3QBQEBDB      0000000180030070     libvcruntime:undname.obj
 0002:000050f0       ?nameTable@@3QBQEBDB       00000001800300f0     libvcruntime:undname.obj
 0002:00005380       ?rttiTable@@3QBQEBDB       0000000180030380     libvcruntime:undname.obj
 0002:000062d0       ?errtable@@3QBUerrentry@?A0x31fdb9ec@@B 00000001800312d0     libucrt:errno.obj
 0002:00006e10       __flag_x_one_y_snan        0000000180031e10     libucrt:pow.obj
 0002:00006e14       __flag_x_zero_z_inf        0000000180031e14     libucrt:pow.obj
 0002:00006e18       __flag_x_nan               0000000180031e18     libucrt:pow.obj
 0002:00006e1c       __flag_y_nan               0000000180031e1c     libucrt:pow.obj
 0002:00006e20       __flag_x_nan_y_nan         0000000180031e20     libucrt:pow.obj
 0002:00006e24       __flag_x_neg_y_notint      0000000180031e24     libucrt:pow.obj
 0002:00006e28       __flag_z_zero              0000000180031e28     libucrt:pow.obj
 0002:00006e2c       __flag_z_denormal          0000000180031e2c     libucrt:pow.obj
 0002:00006e30       __flag_z_inf               0000000180031e30     libucrt:pow.obj
 0002:00006e40       __ay_max_bound             0000000180031e40     libucrt:pow.obj
 0002:00006e48       __ay_min_bound             0000000180031e48     libucrt:pow.obj
 0002:00006e50       __sign_mask                0000000180031e50     libucrt:pow.obj
 0002:00006e58       __sign_and_exp_mask        0000000180031e58     libucrt:pow.obj
 0002:00006e60       __exp_mask                 0000000180031e60     libucrt:pow.obj
 0002:00006e68       __neg_inf                  0000000180031e68     libucrt:pow.obj
 0002:00006e70       __pos_inf                  0000000180031e70     libucrt:pow.obj
 0002:00006e78       __pos_one                  0000000180031e78     libucrt:pow.obj
 0002:00006e80       __pos_zero                 0000000180031e80     libucrt:pow.obj
 0002:00006e88       __exp_mant_mask            0000000180031e88     libucrt:pow.obj
 0002:00006e90       __mant_mask                0000000180031e90     libucrt:pow.obj
 0002:00006e98       __ind_pattern              0000000180031e98     libucrt:pow.obj
 0002:00006ea0       __neg_qnan                 0000000180031ea0     libucrt:pow.obj
 0002:00006ea8       __qnan                     0000000180031ea8     libucrt:pow.obj
 0002:00006eb0       __qnan_set                 0000000180031eb0     libucrt:pow.obj
 0002:00006eb8       __neg_one                  0000000180031eb8     libucrt:pow.obj
 0002:00006ec0       __neg_zero                 0000000180031ec0     libucrt:pow.obj
 0002:00006ec8       __exp_shift                0000000180031ec8     libucrt:pow.obj
 0002:00006ed0       __exp_bias                 0000000180031ed0     libucrt:pow.obj
 0002:00006ed8       __exp_bias_m1              0000000180031ed8     libucrt:pow.obj
 0002:00006ee0       __yexp_53                  0000000180031ee0     libucrt:pow.obj
 0002:00006ee8       __mant_full                0000000180031ee8     libucrt:pow.obj
 0002:00006ef0       __1_before_mant            0000000180031ef0     libucrt:pow.obj
 0002:00006ef8       __mask_mant_all8           0000000180031ef8     libucrt:pow.obj
 0002:00006f00       __mask_mant9               0000000180031f00     libucrt:pow.obj
 0002:00006f10       __real_fffffffff8000000    0000000180031f10     libucrt:pow.obj
 0002:00006f20       __mask_8000000000000000    0000000180031f20     libucrt:pow.obj
 0002:00006f30       __real_4090040000000000    0000000180031f30     libucrt:pow.obj
 0002:00006f40       __real_C090C80000000000    0000000180031f40     libucrt:pow.obj
 0002:00006f50       __real_ninf                0000000180031f50     libucrt:pow.obj
 0002:00006f60       __real_inf                 0000000180031f60     libucrt:pow.obj
 0002:00006f70       __real_nan                 0000000180031f70     libucrt:pow.obj
 0002:00006f80       __real_mant                0000000180031f80     libucrt:pow.obj
 0002:00006f90       __mask_1023                0000000180031f90     libucrt:pow.obj
 0002:00006fa0       __mask_001                 0000000180031fa0     libucrt:pow.obj
 0002:00006fb0       __real_log2_lead           0000000180031fb0     libucrt:pow.obj
 0002:00006fc0       __real_log2_tail           0000000180031fc0     libucrt:pow.obj
 0002:00006fd0       __real_two                 0000000180031fd0     libucrt:pow.obj
 0002:00006fe0       __real_one                 0000000180031fe0     libucrt:pow.obj
 0002:00006ff0       __real_half                0000000180031ff0     libucrt:pow.obj
 0002:00007000       __mask_100                 0000000180032000     libucrt:pow.obj
 0002:00007010       __real_1_over_2            0000000180032010     libucrt:pow.obj
 0002:00007020       __real_1_over_3            0000000180032020     libucrt:pow.obj
 0002:00007030       __real_1_over_4            0000000180032030     libucrt:pow.obj
 0002:00007040       __real_1_over_5            0000000180032040     libucrt:pow.obj
 0002:00007050       __real_1_over_6            0000000180032050     libucrt:pow.obj
 0002:00007060       __real_1_over_7            0000000180032060     libucrt:pow.obj
 0002:00007070       __mask_1023_f              0000000180032070     libucrt:pow.obj
 0002:00007080       __mask_2045                0000000180032080     libucrt:pow.obj
 0002:00007090       __real_threshold           0000000180032090     libucrt:pow.obj
 0002:000070a0       __real_notsign             00000001800320a0     libucrt:pow.obj
 0002:000070b0       __log_F_inv_head           00000001800320b0     libucrt:pow.obj
 0002:000078c0       __log_F_inv_tail           00000001800328c0     libucrt:pow.obj
 0002:000080d0       __denormal_threshold       00000001800330d0     libucrt:pow.obj
 0002:000080e0       __enable_almost_inf        00000001800330e0     libucrt:pow.obj
 0002:000080f0       __real_zero                00000001800330f0     libucrt:pow.obj
 0002:00008100       __real_smallest_denormal   0000000180033100     libucrt:pow.obj
 0002:00008110       __denormal_tiny_threshold  0000000180033110     libucrt:pow.obj
 0002:00008120       __real_p65536              0000000180033120     libucrt:pow.obj
 0002:00008130       __real_m68800              0000000180033130     libucrt:pow.obj
 0002:00008140       __real_64_by_log2          0000000180033140     libucrt:pow.obj
 0002:00008150       __real_log2_by_64_head     0000000180033150     libucrt:pow.obj
 0002:00008160       __real_log2_by_64_tail     0000000180033160     libucrt:pow.obj
 0002:00008170       __real_1_by_720            0000000180033170     libucrt:pow.obj
 0002:00008180       __real_1_by_120            0000000180033180     libucrt:pow.obj
 0002:00008190       __real_1_by_24             0000000180033190     libucrt:pow.obj
 0002:000081a0       __real_1_by_6              00000001800331a0     libucrt:pow.obj
 0002:000081b0       __real_1_by_2              00000001800331b0     libucrt:pow.obj
 0002:000081c0       __flag_x_one_y_snan        00000001800331c0     libucrt:powf.obj
 0002:000081c4       __flag_x_zero_z_inf        00000001800331c4     libucrt:powf.obj
 0002:000081c8       __flag_x_nan               00000001800331c8     libucrt:powf.obj
 0002:000081cc       __flag_y_nan               00000001800331cc     libucrt:powf.obj
 0002:000081d0       __flag_x_nan_y_nan         00000001800331d0     libucrt:powf.obj
 0002:000081d4       __flag_x_neg_y_notint      00000001800331d4     libucrt:powf.obj
 0002:000081d8       __flag_z_zero              00000001800331d8     libucrt:powf.obj
 0002:000081dc       __flag_z_denormal          00000001800331dc     libucrt:powf.obj
 0002:000081e0       __flag_z_inf               00000001800331e0     libucrt:powf.obj
 0002:000081e4       L__1_by_3                  00000001800331e4     libucrt:powf.obj
 0002:000081ec       L__log2                    00000001800331ec     libucrt:powf.obj
 0002:000081f4       L__max_exp_arg             00000001800331f4     libucrt:powf.obj
 0002:000081fc       L__min_exp_arg             00000001800331fc     libucrt:powf.obj
 0002:00008204       L__real_log2_by_64         0000000180033204     libucrt:powf.obj
 0002:0000820c       L__1_by_6                  000000018003320c     libucrt:powf.obj
 0002:00008214       L__real_threshold          0000000180033214     libucrt:powf.obj
 0002:0000821c       L__real_one                000000018003321c     libucrt:powf.obj
 0002:00008224       L__real_two                0000000180033224     libucrt:powf.obj
 0002:0000822c       L__neg_zero                000000018003322c     libucrt:powf.obj
 0002:00008240       L__real_ca42               0000000180033240     libucrt:powf.obj
 0002:00008248       L__real_ca4                0000000180033248     libucrt:powf.obj
 0002:00008250       L__real_ca31               0000000180033250     libucrt:powf.obj
 0002:00008258       L__real_ca3                0000000180033258     libucrt:powf.obj
 0002:00008260       L__clear_sign              0000000180033260     libucrt:powf.obj
 0002:00008270       L__real_64_by_log2         0000000180033270     libucrt:powf.obj
 0002:00008280       L__1_by_2                  0000000180033280     libucrt:powf.obj
 0002:00008290       L__1023                    0000000180033290     libucrt:powf.obj
 0002:000082a0       L__xexp_bits_xmantissa_bits 00000001800332a0     libucrt:powf.obj
 0002:00008bc0       __acrt_initializers        0000000180033bc0     libucrt:initialization.obj
 0002:00008d20       _first_127char             0000000180033d20     libucrt:wsetlocale.obj
 0002:00009580       ?_names@?1??_get_fname@@9@9 0000000180034580     libucrt:fpexcept.obj
 0002:00009830       ?module_names@?A0x391cf84c@@3QBQEB_WB 0000000180034830     libucrt:winapi_thunks.obj
 0002:00009dd8       ?candidate_modules@?1??try_get_AreFileApisANSI@@YAP6AHXZXZ@4QBW4module_id@?A0x391cf84c@@B 0000000180034dd8     libucrt:winapi_thunks.obj
 0002:00009df0       ?candidate_modules@?1??try_get_CompareStringEx@@YAP6AHPEB_WK0H0HPEAU_nlsversioninfo@@PEAX_J@ZXZ@4QBW4module_id@?A0x391cf84c@@B 0000000180034df0     libucrt:winapi_thunks.obj
 0002:00009e08       ?candidate_modules@?1??try_get_EnumSystemLocalesEx@@YAP6AHP6AHPEA_WK_J@ZK1PEAX@ZXZ@4QBW4module_id@?A0x391cf84c@@B 0000000180034e08     libucrt:winapi_thunks.obj
 0002:00009e28       ?candidate_modules@?1??try_get_FlsAlloc@@YAP6AKP6AXPEAX@Z@ZXZ@4QBW4module_id@?A0x391cf84c@@B 0000000180034e28     libucrt:winapi_thunks.obj
 0002:00009e40       ?candidate_modules@?1??try_get_FlsFree@@YAP6AHK@ZXZ@4QBW4module_id@?A0x391cf84c@@B 0000000180034e40     libucrt:winapi_thunks.obj
 0002:00009e50       ?candidate_modules@?1??try_get_FlsGetValue@@YAP6APEAXK@ZXZ@4QBW4module_id@?A0x391cf84c@@B 0000000180034e50     libucrt:winapi_thunks.obj
 0002:00009e68       ?candidate_modules@?1??try_get_FlsSetValue@@YAP6AHKPEAX@ZXZ@4QBW4module_id@?A0x391cf84c@@B 0000000180034e68     libucrt:winapi_thunks.obj
 0002:00009e80       ?candidate_modules@?1??try_get_GetDateFormatEx@@YAP6AHPEB_WKPEBU_SYSTEMTIME@@0PEA_WH0@ZXZ@4QBW4module_id@?A0x391cf84c@@B 0000000180034e80     libucrt:winapi_thunks.obj
 0002:00009e98       ?candidate_modules@?1??try_get_GetLocaleInfoEx@@YAP6AHPEB_WKPEA_WH@ZXZ@4QBW4module_id@?A0x391cf84c@@B 0000000180034e98     libucrt:winapi_thunks.obj
 0002:00009eb0       ?candidate_modules@?1??try_get_GetTimeFormatEx@@YAP6AHPEB_WKPEBU_SYSTEMTIME@@0PEA_WH@ZXZ@4QBW4module_id@?A0x391cf84c@@B 0000000180034eb0     libucrt:winapi_thunks.obj
 0002:00009ec8       ?candidate_modules@?1??try_get_GetUserDefaultLocaleName@@YAP6AHPEA_WH@ZXZ@4QBW4module_id@?A0x391cf84c@@B 0000000180034ec8     libucrt:winapi_thunks.obj
 0002:00009ef0       ?candidate_modules@?1??try_get_InitializeCriticalSectionEx@@YAP6AHPEAU_RTL_CRITICAL_SECTION@@KK@ZXZ@4QBW4module_id@?A0x391cf84c@@B 0000000180034ef0     libucrt:winapi_thunks.obj
 0002:00009f18       ?candidate_modules@?1??try_get_IsValidLocaleName@@YAP6AHPEB_W@ZXZ@4QBW4module_id@?A0x391cf84c@@B 0000000180034f18     libucrt:winapi_thunks.obj
 0002:00009f38       ?candidate_modules@?1??try_get_LCMapStringEx@@YAP6AHPEB_WK0HPEA_WHPEAU_nlsversioninfo@@PEAX_J@ZXZ@4QBW4module_id@?A0x391cf84c@@B 0000000180034f38     libucrt:winapi_thunks.obj
 0002:00009f50       ?candidate_modules@?1??try_get_LCIDToLocaleName@@YAP6AHKPEA_WHK@ZXZ@4QBW4module_id@?A0x391cf84c@@B 0000000180034f50     libucrt:winapi_thunks.obj
 0002:00009f70       ?candidate_modules@?1??try_get_LocaleNameToLCID@@YAP6AKPEB_WK@ZXZ@4QBW4module_id@?A0x391cf84c@@B 0000000180034f70     libucrt:winapi_thunks.obj
 0002:00009f8c       ?candidate_modules@?1??try_get_AppPolicyGetProcessTerminationMethod@@YAP6AJPEAXPEAW4AppPolicyProcessTerminationMethod@@@ZXZ@4QBW4module_id@?A0x391cf84c@@B 0000000180034f8c     libucrt:winapi_thunks.obj
 0002:00009fb8       $cppxdata$?_wcstombs_l_helper@@YA_KPEADPEB_W_KPEAU__crt_locale_pointers@@@Z 0000000180034fb8     libucrt:wcstombs.obj
 0002:0000be20       ?_mb_locale_names@@3QBQEB_WB 0000000180036e20     libucrt:mbctype.obj
 0002:0000ce80       __real@433fffffffffffff    0000000180037e80     libucrt:fpsr.obj
 0002:0000ce88       __real@c33fffffffffffff    0000000180037e88     libucrt:fpsr.obj
 0002:0000ce90       ?LcidToLocaleNameTable@?A0x881e4c05@@3QBULcidToLocaleName@1@B 0000000180037e90     libucrt:lcidtoname_downlevel.obj
 0002:0000e8f0       ?LocaleNameToIndexTable@?A0x881e4c05@@3QBULocaleNameIndex@1@B 00000001800398f0     libucrt:lcidtoname_downlevel.obj
 0002:00010190       __real_ninf                000000018003b190     libucrt:log10.obj
 0002:000101a0       __real_inf                 000000018003b1a0     libucrt:log10.obj
 0002:000101b0       __real_neg_qnan            000000018003b1b0     libucrt:log10.obj
 0002:000101c0       __real_qnanbit             000000018003b1c0     libucrt:log10.obj
 0002:000101d0       __int_1023                 000000018003b1d0     libucrt:log10.obj
 0002:000101e0       __mask_001                 000000018003b1e0     libucrt:log10.obj
 0002:000101f0       __mask_mant                000000018003b1f0     libucrt:log10.obj
 0002:00010200       __mask_mant_top8           000000018003b200     libucrt:log10.obj
 0002:00010210       __mask_mant9               000000018003b210     libucrt:log10.obj
 0002:00010220       __real_log10_e             000000018003b220     libucrt:log10.obj
 0002:00010230       __real_log10_e_lead        000000018003b230     libucrt:log10.obj
 0002:00010240       __real_log10_e_tail        000000018003b240     libucrt:log10.obj
 0002:00010250       __real_log10_2_lead        000000018003b250     libucrt:log10.obj
 0002:00010260       __real_log10_2_tail        000000018003b260     libucrt:log10.obj
 0002:00010270       __real_two                 000000018003b270     libucrt:log10.obj
 0002:00010280       __real_one                 000000018003b280     libucrt:log10.obj
 0002:00010290       __real_half                000000018003b290     libucrt:log10.obj
 0002:000102a0       __mask_100                 000000018003b2a0     libucrt:log10.obj
 0002:000102b0       __real_1_over_512          000000018003b2b0     libucrt:log10.obj
 0002:000102c0       __real_1_over_2            000000018003b2c0     libucrt:log10.obj
 0002:000102d0       __real_1_over_3            000000018003b2d0     libucrt:log10.obj
 0002:000102e0       __real_1_over_4            000000018003b2e0     libucrt:log10.obj
 0002:000102f0       __real_1_over_5            000000018003b2f0     libucrt:log10.obj
 0002:00010300       __real_1_over_6            000000018003b300     libucrt:log10.obj
 0002:00010310       __real_neg_1023            000000018003b310     libucrt:log10.obj
 0002:00010320       __mask_2045                000000018003b320     libucrt:log10.obj
 0002:00010330       __real_threshold           000000018003b330     libucrt:log10.obj
 0002:00010340       __real_near_one_lt         000000018003b340     libucrt:log10.obj
 0002:00010350       __real_near_one_gt         000000018003b350     libucrt:log10.obj
 0002:00010360       __real_min_norm            000000018003b360     libucrt:log10.obj
 0002:00010370       __real_notsign             000000018003b370     libucrt:log10.obj
 0002:00010380       __real_ca1                 000000018003b380     libucrt:log10.obj
 0002:00010390       __real_ca2                 000000018003b390     libucrt:log10.obj
 0002:000103a0       __real_ca3                 000000018003b3a0     libucrt:log10.obj
 0002:000103b0       __real_ca4                 000000018003b3b0     libucrt:log10.obj
 0002:000103c0       __mask_lower               000000018003b3c0     libucrt:log10.obj
 0002:000103d0       __flag_x_zero              000000018003b3d0     libucrt:log10.obj
 0002:000103d4       __flag_x_neg               000000018003b3d4     libucrt:log10.obj
 0002:000103d8       __flag_x_nan               000000018003b3d8     libucrt:log10.obj
 0002:00013010       $unwind$?NODE_SET_METHOD@node@@YAXV?$Local@VObject@v8@@@v8@@PEBDP6AXAEBV?$FunctionCallbackInfo@VValue@v8@@@3@@Z@Z 000000018003e010     node_printer.obj
 0002:00013024       $unwind$_clrfp             000000018003e024     libucrt:fpctrl.obj
 0002:00013024       $unwind$__vcrt_FlsGetValue 000000018003e024     libvcruntime:winapi_downlevel.obj
 0002:00013024       $unwind$_Init_thread_wait  000000018003e024     LIBCMT:thread_safe_statics.obj
 0002:00013024       $unwind$__vcrt_FlsAlloc    000000018003e024     libvcruntime:winapi_downlevel.obj
 0002:00013024       $unwind$__vcrt_uninitialize_locks 000000018003e024     libvcruntime:locks.obj
 0002:00013024       $unwind$__vcrt_initialize_locks 000000018003e024     libvcruntime:locks.obj
 0002:00013024       $unwind$?ExFilterRethrow@@YAHPEAU_EXCEPTION_POINTERS@@PEAUEHExceptionRecord@@PEAH@Z 000000018003e024     libvcruntime:frame.obj
 0002:00013024       $unwind$??0bad_exception@std@@QEAA@AEBV01@@Z 000000018003e024     libvcruntime:frame.obj
 0002:00013024       $unwind$??2@YAPEAX_K@Z     000000018003e024     LIBCMT:new_scalar.obj
 0002:00013024       $unwind$?GetUnwindTryBlock@__FrameHandler3@@SAHPEA_KPEAU_xDISPATCHER_CONTEXT@@PEBU_s_FuncInfo@@@Z 000000018003e024     libvcruntime:ehstate.obj
 0002:00013024       $unwind$_set_statfp        000000018003e024     libucrt:fpctrl.obj
 0002:00013024       $unwind$?StateFromIp@__FrameHandler3@@SAHPEBU_s_FuncInfo@@PEAU_xDISPATCHER_CONTEXT@@_K@Z 000000018003e024     libvcruntime:ehstate.obj
 0002:00013024       $unwind$??0_Lockit@std@@QEAA@H@Z 000000018003e024     libcpmt:xlock.obj
 0002:00013024       $unwind$__vcrt_freeptd     000000018003e024     libvcruntime:per_thread_data.obj
 0002:00013024       $unwind$?initialize_pointers@@YAHXZ 000000018003e024     libcpmt:winapisupp.obj
 0002:00013024       $unwind$?do_truename@?$numpunct@D@std@@MEBA?AV?$basic_string@DU?$char_traits@D@std@@V?$allocator@D@2@@2@XZ 000000018003e024     node_printer_win.obj
 0002:00013024       $unwind$__acrt_uninitialize_winapi_thunks 000000018003e024     libucrt:winapi_thunks.obj
 0002:00013024       $unwind$__std_type_info_destroy_list 000000018003e024     libvcruntime:std_type_info.obj
 0002:00013024       $unwind$__acrt_update_multibyte_info 000000018003e024     libucrt:locale_update.obj
 0002:00013024       $unwind$__acrt_FlsFree     000000018003e024     libucrt:winapi_thunks.obj
 0002:00013024       $unwind$__acrt_FlsGetValue 000000018003e024     libucrt:winapi_thunks.obj
 0002:00013024       $unwind$__acrt_IsValidLocaleName 000000018003e024     libucrt:winapi_thunks.obj
 0002:00013024       $unwind$__acrt_AppPolicyGetProcessTerminationMethodInternal 000000018003e024     libucrt:winapi_thunks.obj
 0002:00013024       $unwind$??_Gexception@stdext@@UEAAPEAXI@Z 000000018003e024     node_printer_win.obj
 0002:00013024       $unwind$_CreateFrameInfo   000000018003e024     libvcruntime:risctrnsctrl.obj
 0002:00013024       $unwind$_SetThrowImageBase 000000018003e024     libvcruntime:risctrnsctrl.obj
 0002:00013024       $unwind$__acrt_stdio_free_buffer_nolock 000000018003e024     libucrt:_freebuf.obj
 0002:00013024       $unwind$_SetImageBase      000000018003e024     libvcruntime:risctrnsctrl.obj
 0002:00013024       $unwind$?_Destroy_if_node@?$_Tree@V?$_Tmap_traits@V?$basic_string@DU?$char_traits@D@std@@V?$allocator@D@2@@std@@KU?$less@V?$basic_string@DU?$char_traits@D@std@@V?$allocator@D@2@@std@@@2@V?$allocator@U?$pair@$$CBV?$basic_string@DU?$char_traits@D@std@@V?$allocator@D@2@@std@@K@std@@@2@$0A@@std@@@std@@IEAAXPEAU?$_Tree_node@U?$pair@$$CBV?$basic_string@DU?$char_traits@D@std@@V?$allocator@D@2@@std@@K@std@@PEAX@2@@Z 000000018003e024     node_printer_win.obj
 0002:00013024       $unwind$??1?$basic_stringbuf@DU?$char_traits@D@std@@V?$allocator@D@2@@std@@UEAA@XZ 000000018003e024     node_printer_win.obj
 0002:00013024       $unwind$?ExecutionInCatch@__FrameHandler3@@SA_NPEAU_xDISPATCHER_CONTEXT@@PEBU_s_FuncInfo@@@Z 000000018003e024     libvcruntime:risctrnsctrl.obj
 0002:00013024       $unwind$__std_exception_destroy 000000018003e024     libvcruntime:std_exception.obj
 0002:00013024       $unwind$__acrt_update_locale_info 000000018003e024     libucrt:locale_update.obj
 0002:00013024       $unwind$??_Gruntime_error@std@@UEAAPEAXI@Z 000000018003e024     node_printer_win.obj
 0002:00013024       $unwind$??0bad_array_new_length@std@@QEAA@AEBV01@@Z 000000018003e024     LIBCMT:throw_bad_alloc.obj
 0002:00013024       $unwind$__raise_securityfailure 000000018003e024     LIBCMT:gs_report.obj
 0002:00013024       $unwind$wcscat_s           000000018003e024     libucrt:wcscat_s.obj
 0002:00013024       $unwind$_clearfp           000000018003e024     libucrt:ieee.obj
 0002:00013024       $unwind$?initNode@@YAXV?$Local@VObject@v8@@@v8@@@Z 000000018003e024     node_printer.obj
 0002:00013024       $unwind$fegetenv           000000018003e024     libucrt:fegetenv.obj
 0002:00013024       $unwind$?do_falsename@?$numpunct@D@std@@MEBA?AV?$basic_string@DU?$char_traits@D@std@@V?$allocator@D@2@@2@XZ 000000018003e024     node_printer_win.obj
 0002:00013024       $unwind$?state_case_normal@?$output_processor@DV?$string_output_adapter@D@__crt_stdio_output@@V?$format_validation_base@DV?$string_output_adapter@D@__crt_stdio_output@@@2@@__crt_stdio_output@@AEAA_NXZ 000000018003e024     libucrt:output.obj
 0002:00013024       $unwind$??_Gtype_info@@UEAAPEAXI@Z 000000018003e024     LIBCMT:std_type_info_static.obj
 0002:00013024       $unwind$fesetenv           000000018003e024     libucrt:fesetenv.obj
 0002:00013024       $unwind$_Init_thread_header 000000018003e024     LIBCMT:thread_safe_statics.obj
 0002:00013024       $unwind$??0out_of_range@std@@QEAA@AEBV01@@Z 000000018003e024     libcpmt:xthrow.obj
 0002:00013024       $unwind$feholdexcept       000000018003e024     libucrt:feholdexcept.obj
 0002:00013024       $unwind$??_D?$basic_ostringstream@DU?$char_traits@D@std@@V?$allocator@D@2@@std@@QEAAXXZ 000000018003e024     node_printer_win.obj
 0002:00013024       $unwind$_Init_thread_footer 000000018003e024     LIBCMT:thread_safe_statics.obj
 0002:00013024       $unwind$??0exception@std@@QEAA@AEBV01@@Z 000000018003e024     libcpmt:xthrow.obj
 0002:00013024       $unwind$?do_grouping@?$numpunct@D@std@@MEBA?AV?$basic_string@DU?$char_traits@D@std@@V?$allocator@D@2@@2@XZ 000000018003e024     node_printer_win.obj
 0002:00013024       $unwind$_malloc_base       000000018003e024     libucrt:malloc_base.obj
 0002:00013024       $unwind$?type_case_c_tchar@?$output_processor@DV?$string_output_adapter@D@__crt_stdio_output@@V?$format_validation_base@DV?$string_output_adapter@D@__crt_stdio_output@@@2@@__crt_stdio_output@@AEAA_ND@Z 000000018003e024     libucrt:output.obj
 0002:00013024       $unwind$?type_case_s@?$output_processor@DV?$string_output_adapter@D@__crt_stdio_output@@V?$format_validation_base@DV?$string_output_adapter@D@__crt_stdio_output@@@2@@__crt_stdio_output@@AEAA_NXZ 000000018003e024     libucrt:output.obj
 0002:00013024       $unwind$??_G?$num_put@DV?$ostreambuf_iterator@DU?$char_traits@D@std@@@std@@@std@@MEAAPEAXI@Z 000000018003e024     node_printer_win.obj
 0002:00013024       $unwind$_calloc_base       000000018003e024     libucrt:calloc_base.obj
 0002:00013024       $unwind$__acrt_freeptd     000000018003e024     libucrt:per_thread_data.obj
 0002:00013024       $unwind$?__c16rtomb_utf8@__crt_mbstring@@YA_KPEAD_SPEAU_Mbstatet@@@Z 000000018003e024     libucrt:c16rtomb.obj
 0002:00013024       $unwind$__acrt_uninitialize_stdio 000000018003e024     libucrt:_file.obj
 0002:00013024       $unwind$__acrt_initialize_locks 000000018003e024     libucrt:locks.obj
 0002:00013024       $unwind$_IsExceptionObjectToBeDestroyed 000000018003e024     libvcruntime:ehhelpers.obj
 0002:00013024       $unwind$__scrt_uninitialize_crt 000000018003e024     LIBCMT:utility.obj
 0002:00013024       $unwind$__acrt_uninitialize_locks 000000018003e024     libucrt:locks.obj
 0002:00013024       $unwind$__acrt_FlsAlloc    000000018003e024     libucrt:winapi_thunks.obj
 0002:00013024       $unwind$??0bad_alloc@std@@QEAA@AEBV01@@Z 000000018003e024     libcpmt:xthrow.obj
 0002:00013024       $unwind$__scrt_initialize_crt 000000018003e024     LIBCMT:utility.obj
 0002:00013024       $unwind$__scrt_release_startup_lock 000000018003e024     LIBCMT:utility.obj
 0002:00013024       $unwind$__acrt_get_process_end_policy 000000018003e024     libucrt:win_policies.obj
 0002:00013024       $unwind$_onexit            000000018003e024     LIBCMT:utility.obj
 0002:00013024       $unwind$?_Setgloballocale@locale@std@@CAXPEAX@Z 000000018003e024     libcpmt:locale0.obj
 0002:00013024       $unwind$__vcrt_FlsFree     000000018003e024     libvcruntime:winapi_downlevel.obj
 0002:00013024       $unwind$?DloadAcquireSectionWriteAccess@@YAXXZ 000000018003e024     DelayImp:delayhlp.obj
 0002:00013024       $unwind$?uflow@?$basic_streambuf@DU?$char_traits@D@std@@@std@@MEAAHXZ 000000018003e024     node_printer_win.obj
 0002:00013024       $unwind$?_Facet_Register@std@@YAXPEAV_Facet_base@1@@Z 000000018003e024     libcpmt:locale0.obj
 0002:00013024       $unwind$__acrt_getptd_head 000000018003e024     libucrt:per_thread_data.obj
 0002:00013024       $unwind$??0length_error@std@@QEAA@AEBV01@@Z 000000018003e024     libcpmt:xthrow.obj
 0002:00013024       $unwind$?internal_isupper_l@@YA_NHQEAU__crt_locale_pointers@@@Z 000000018003e024     libucrt:tolower_toupper.obj
 0002:00013024       $unwind$wcscpy_s           000000018003e024     libucrt:wcscpy_s.obj
 0002:00013024       $unwind$_callnewh          000000018003e024     libucrt:new_handler.obj
 0002:00013024       $unwind$?try_cor_exit_process@@YAXI@Z 000000018003e024     libucrt:exit.obj
 0002:00013024       $unwind$?exit_or_terminate_process@@YAXI@Z 000000018003e024     libucrt:exit.obj
 0002:00013024       $unwind$strcpy_s           000000018003e024     libucrt:strcpy_s.obj
 0002:00013024       $unwind$__acrt_allocate_buffer_for_argv 000000018003e024     libucrt:argv_parsing.obj
 0002:00013024       $unwind$?do_widen@?$ctype@D@std@@MEBAPEBDPEBD0PEAD@Z 000000018003e024     node_printer_win.obj
 0002:00013024       $unwind$?do_narrow@?$ctype@D@std@@MEBAPEBDPEBD0DPEAD@Z 000000018003e024     node_printer_win.obj
 0002:00013024       $unwind$??0logic_error@std@@QEAA@AEBV01@@Z 000000018003e024     libcpmt:xthrow.obj
 0002:00013024       $unwind$uninitialize_allocated_memory 000000018003e024     libucrt:initialization.obj
 0002:00013024       $unwind$initialize_pointers 000000018003e024     libucrt:initialization.obj
 0002:00013024       $unwind$??_G_Facet_base@std@@UEAAPEAXI@Z 000000018003e024     node_printer_win.obj
 0002:00013024       $unwind$??_G_System_error@std@@UEAAPEAXI@Z 000000018003e024     node_printer_win.obj
 0002:00013024       $unwind$?message@_Iostream_error_category@std@@UEBA?AV?$basic_string@DU?$char_traits@D@std@@V?$allocator@D@2@@2@H@Z 000000018003e024     node_printer_win.obj
 0002:00013024       $unwind$??_G_Iostream_error_category@std@@UEAAPEAXI@Z 000000018003e024     node_printer_win.obj
 0002:00013024       $unwind$??_Gfailure@ios_base@std@@UEAAPEAXI@Z 000000018003e024     node_printer_win.obj
 0002:00013024       $unwind$_fflush_nolock     000000018003e024     libucrt:fflush.obj
 0002:0001302c       $unwind$?assign@?$basic_string@DU?$char_traits@D@std@@V?$allocator@D@2@@std@@QEAAAEAV12@QEBD_K@Z 000000018003e02c     node_printer.obj
 0002:00013040       $chain$0$?assign@?$basic_string@DU?$char_traits@D@std@@V?$allocator@D@2@@std@@QEAAAEAV12@QEBD_K@Z 000000018003e040     node_printer.obj
 0002:00013054       $chain$3$?assign@?$basic_string@DU?$char_traits@D@std@@V?$allocator@D@2@@std@@QEAAAEAV12@QEBD_K@Z 000000018003e054     node_printer.obj
 0002:00013054       $chain$1$?assign@?$basic_string@DU?$char_traits@D@std@@V?$allocator@D@2@@std@@QEAAAEAV12@QEBD_K@Z 000000018003e054     node_printer.obj
 0002:00013064       $chain$2$?assign@?$basic_string@DU?$char_traits@D@std@@V?$allocator@D@2@@std@@QEAAAEAV12@QEBD_K@Z 000000018003e064     node_printer.obj
 0002:00013078       $unwind$uninitialize_environment 000000018003e078     libucrt:initialization.obj
 0002:00013078       $unwind$??$uninitialize_environment_internal@D@@YAXAEAPEAPEAD@Z 000000018003e078     libucrt:environment_initialization.obj
 0002:00013078       $unwind$__dcrt_uninitialize_environments_nolock 000000018003e078     libucrt:environment_initialization.obj
 0002:00013078       $unwind$uninitialize_allocated_io_buffers 000000018003e078     libucrt:initialization.obj
 0002:00013078       $unwind$__crtDownlevelLocaleNameToLCID 000000018003e078     libcpmt:winapinls.obj
 0002:00013078       $unwind$??__Fresult@?1??getStatusMap@?A0x5d6687e9@@YAAEBV?$map@V?$basic_string@DU?$char_traits@D@std@@V?$allocator@D@2@@std@@KU?$less@V?$basic_string@DU?$char_traits@D@std@@V?$allocator@D@2@@std@@@2@V?$allocator@U?$pair@$$CBV?$basic_string@DU?$char_traits@D@std@@V?$allocator@D@2@@std@@K@std@@@2@@std@@XZ@YAXXZ 000000018003e078     node_printer_win.obj
 0002:00013078       $unwind$__acrt_initialize_ptd 000000018003e078     libucrt:per_thread_data.obj
 0002:00013078       $unwind$_get_osfhandle     000000018003e078     libucrt:osfinfo.obj
 0002:00013078       $unwind$__acrt_uninitialize_ptd 000000018003e078     libucrt:per_thread_data.obj
 0002:00013078       $unwind$tolower            000000018003e078     libucrt:tolower_toupper.obj
 0002:00013078       $unwind$__acrt_DownlevelLocaleNameToLCID 000000018003e078     libucrt:lcidtoname_downlevel.obj
 0002:00013078       $unwind$?initialize_multibyte@@YAHXZ 000000018003e078     libucrt:multibyte_initializer.obj
 0002:00013078       $unwind$_msize_base        000000018003e078     libucrt:msize.obj
 0002:00013078       $unwind$_wcsnicmp          000000018003e078     libucrt:wcsnicmp.obj
 0002:00013078       $unwind$??__Fresult@?1??getJobStatusMap@?A0x5d6687e9@@YAAEBV?$map@V?$basic_string@DU?$char_traits@D@std@@V?$allocator@D@2@@std@@KU?$less@V?$basic_string@DU?$char_traits@D@std@@V?$allocator@D@2@@std@@@2@V?$allocator@U?$pair@$$CBV?$basic_string@DU?$char_traits@D@std@@V?$allocator@D@2@@std@@K@std@@@2@@std@@XZ@YAXXZ 000000018003e078     node_printer_win.obj
 0002:00013078       $unwind$__doserrno         000000018003e078     libucrt:errno.obj
 0002:00013078       $unwind$_errno             000000018003e078     libucrt:errno.obj
 0002:00013078       $unwind$___lc_codepage_func 000000018003e078     libucrt:initctype.obj
 0002:00013078       $unwind$___lc_locale_name_func 000000018003e078     libucrt:initctype.obj
 0002:00013078       $unwind$___mb_cur_max_func 000000018003e078     libucrt:initctype.obj
 0002:00013078       $unwind$__pctype_func      000000018003e078     libucrt:ctype.obj
 0002:00013078       $unwind$_lock_locales      000000018003e078     libucrt:locks.obj
 0002:00013078       $unwind$??__Fresult@?1??getAttributeMap@?A0x5d6687e9@@YAAEBV?$map@V?$basic_string@DU?$char_traits@D@std@@V?$allocator@D@2@@std@@KU?$less@V?$basic_string@DU?$char_traits@D@std@@V?$allocator@D@2@@std@@@2@V?$allocator@U?$pair@$$CBV?$basic_string@DU?$char_traits@D@std@@V?$allocator@D@2@@std@@K@std@@@2@@std@@XZ@YAXXZ 000000018003e078     node_printer_win.obj
 0002:00013078       $unwind$_fileno            000000018003e078     libucrt:fileno.obj
 0002:00013078       $unwind$_stricmp           000000018003e078     libucrt:stricmp.obj
 0002:00013078       $unwind$localeconv         000000018003e078     libucrt:localeconv.obj
 0002:00013078       $unwind$??__Fresult@?1??getJobCommandMap@?A0x5d6687e9@@YAAEBV?$map@V?$basic_string@DU?$char_traits@D@std@@V?$allocator@D@2@@std@@KU?$less@V?$basic_string@DU?$char_traits@D@std@@V?$allocator@D@2@@std@@@2@V?$allocator@U?$pair@$$CBV?$basic_string@DU?$char_traits@D@std@@V?$allocator@D@2@@std@@K@std@@@2@@std@@XZ@YAXXZ 000000018003e078     node_printer_win.obj
 0002:00013078       $unwind$?_Xran@?$_String_val@U?$_Simple_types@D@std@@@std@@SAXXZ 000000018003e078     node_printer_win.obj
 0002:00013078       $unwind$_copytlocinfo_nolock 000000018003e078     libucrt:wsetlocale.obj
 0002:00013078       $unwind$?state_case_size@?$output_processor@DV?$string_output_adapter@D@__crt_stdio_output@@V?$format_validation_base@DV?$string_output_adapter@D@__crt_stdio_output@@@2@@__crt_stdio_output@@AEAA_NXZ 000000018003e078     libucrt:output.obj
 0002:00013078       $unwind$?state_case_normal_tchar@?$output_processor@DV?$string_output_adapter@D@__crt_stdio_output@@V?$format_validation_base@DV?$string_output_adapter@D@__crt_stdio_output@@@2@@__crt_stdio_output@@AEAA_ND@Z 000000018003e078     libucrt:output.obj
 0002:00013078       $unwind$__acrt_thread_detach 000000018003e078     libucrt:initialization.obj
 0002:00013078       $unwind$_set_errno_from_matherr 000000018003e078     libucrt:fpexcept.obj
 0002:00013078       $unwind$?_Atexit@@YAXP6AXXZ@Z 000000018003e078     libcpmt:iosptrs.obj
 0002:00013078       $unwind$_invoke_watson     000000018003e078     libucrt:invalid_parameter.obj
 0002:00013078       $unwind$??__Einitlocks@std@@YAXXZ 000000018003e078     libcpmt:iosptrs.obj
 0002:00013078       $unwind$__dcrt_terminate_console_output 000000018003e078     libucrt:initcon.obj
 0002:00013078       $unwind$_statfp            000000018003e078     libucrt:fpctrl.obj
 0002:00013078       $unwind$?GetCurrentState@__FrameHandler3@@SAHPEA_KPEAU_xDISPATCHER_CONTEXT@@PEBU_s_FuncInfo@@@Z 000000018003e078     libvcruntime:ehstate.obj
 0002:00013078       $unwind$__vcrt_freefls     000000018003e078     libvcruntime:per_thread_data.obj
 0002:00013078       $unwind$__vcrt_getptd      000000018003e078     libvcruntime:per_thread_data.obj
 0002:00013078       $unwind$__vcrt_uninitialize_ptd 000000018003e078     libvcruntime:per_thread_data.obj
 0002:00013078       $unwind$__vcrt_initialize_ptd 000000018003e078     libvcruntime:per_thread_data.obj
 0002:00013078       $unwind$__acrt_AreFileApisANSI 000000018003e078     libucrt:winapi_thunks.obj
 0002:00013078       $unwind$__crtInitializeCriticalSectionEx 000000018003e078     libcpmt:winapisupp.obj
 0002:00013078       $unwind$??1_Lockit@std@@QEAA@XZ 000000018003e078     libcpmt:xlock.obj
 0002:00013078       $unwind$__vcrt_thread_detach 000000018003e078     libvcruntime:initialization.obj
 0002:00013078       $unwind$__vcrt_thread_attach 000000018003e078     libvcruntime:initialization.obj
 0002:00013078       $unwind$__vcrt_uninitialize_critical 000000018003e078     libvcruntime:initialization.obj
 0002:00013078       $unwind$__vcrt_uninitialize 000000018003e078     libvcruntime:initialization.obj
 0002:00013078       $unwind$__vcrt_initialize  000000018003e078     libvcruntime:initialization.obj
 0002:00013078       $unwind$__FrameUnwindFilter 000000018003e078     libvcruntime:ehhelpers.obj
 0002:00013078       $unwind$__std_terminate    000000018003e078     libvcruntime:ehhelpers.obj
 0002:00013078       $unwind$__acrt_can_use_vista_locale_apis 000000018003e078     libucrt:winapi_thunks.obj
 0002:00013078       $unwind$_isatty            000000018003e078     libucrt:isatty.obj
 0002:00013078       $unwind$__acrt_eagerly_load_locale_apis 000000018003e078     libucrt:winapi_thunks.obj
 0002:00013078       $unwind$_GetThrowImageBase 000000018003e078     libvcruntime:risctrnsctrl.obj
 0002:00013078       $unwind$??__Einitlocks@std@@YAXXZ 000000018003e078     libcpmt:xlock.obj
 0002:00013078       $unwind$_GetImageBase      000000018003e078     libvcruntime:risctrnsctrl.obj
 0002:00013078       $unwind$_purecall          000000018003e078     libvcruntime:purevirt.obj
 0002:00013078       $unwind$__scrt_initialize_default_local_stdio_options 000000018003e078     LIBCMT:default_local_stdio_options.obj
 0002:00013078       $unwind$__report_rangecheckfailure 000000018003e078     LIBCMT:gs_report.obj
 0002:00013078       $unwind$__acrt_thread_attach 000000018003e078     libucrt:initialization.obj
 0002:00013078       $unwind$__GSHandlerCheck   000000018003e078     LIBCMT:gshandler.obj
 0002:00013078       $unwind$initialize_c       000000018003e078     libucrt:initialization.obj
 0002:00013078       $unwind$__acrt_uninitialize 000000018003e078     libucrt:initialization.obj
 0002:00013078       $unwind$__acrt_uninitialize_critical 000000018003e078     libucrt:initialization.obj
 0002:00013078       $unwind$?dllmain_crt_dispatch@@YAHQEAUHINSTANCE__@@KQEAX@Z 000000018003e078     LIBCMT:dll_dllmain.obj
 0002:00013078       $unwind$abort              000000018003e078     libucrt:abort.obj
 0002:00013078       $unwind$?_Xlen@?$basic_string@DU?$char_traits@D@std@@V?$allocator@D@2@@std@@SAXXZ 000000018003e078     node_printer.obj
 0002:00013078       $unwind$?__c32rtomb_utf8@__crt_mbstring@@YA_KPEAD_UPEAU_Mbstatet@@@Z 000000018003e078     libucrt:c32rtomb.obj
 0002:00013078       $unwind$?load_exe_hook@@YAP6A_JXZIPEAUDelayLoadInfo@@@Z 000000018003e078     win_delay_load_hook.obj
 0002:00013078       $unwind$__scrt_dllmain_crt_thread_detach 000000018003e078     LIBCMT:utility.obj
 0002:00013078       $unwind$__scrt_dllmain_crt_thread_attach 000000018003e078     LIBCMT:utility.obj
 0002:00013078       $unwind$__scrt_dllmain_uninitialize_critical 000000018003e078     LIBCMT:utility.obj
 0002:00013078       $unwind$__scrt_dllmain_uninitialize_c 000000018003e078     LIBCMT:utility.obj
 0002:00013078       $unwind$__scrt_dllmain_after_initialize_c 000000018003e078     LIBCMT:utility.obj
 0002:00013078       $unwind$__scrt_dllmain_before_initialize_c 000000018003e078     LIBCMT:utility.obj
 0002:00013078       $unwind$tidy_global        000000018003e078     libcpmt:locale0.obj
 0002:00013078       $unwind$_wcsicmp           000000018003e078     libucrt:wcsicmp.obj
 0002:00013078       $unwind$_Deletegloballocale 000000018003e078     libcpmt:locale0.obj
 0002:00013078       $unwind$__scrt_acquire_startup_lock 000000018003e078     LIBCMT:utility.obj
 0002:00013078       $unwind$atexit             000000018003e078     LIBCMT:utility.obj
 0002:00013078       $unwind$?DloadReleaseSectionWriteAccess@@YAXXZ 000000018003e078     DelayImp:delayhlp.obj
 0002:00013078       $unwind$__acrt_update_thread_multibyte_data 000000018003e078     libucrt:mbctype.obj
 0002:00013078       $unwind$__acrt_initialize_multibyte 000000018003e078     libucrt:mbctype.obj
 0002:00013078       $unwind$?__scrt_uninitialize_thread_safe_statics@@YAXXZ 000000018003e078     LIBCMT:thread_safe_statics.obj
 0002:00013078       $unwind$__acrt_release_locale_ref 000000018003e078     libucrt:locale_refcounting.obj
 0002:00013078       $unwind$__acrt_initialize_command_line 000000018003e078     libucrt:argv_data.obj
 0002:00013078       $unwind$_Init_thread_notify 000000018003e078     LIBCMT:thread_safe_statics.obj
 0002:00013078       $unwind$__acrt_initialize_heap 000000018003e078     libucrt:heap_handle.obj
 0002:00013078       $unwind$?_Locinfo_dtor@_Locinfo@std@@SAXPEAV12@@Z 000000018003e078     libcpmt:locale0.obj
 0002:00013078       $unwind$??$uninitialize_environment_internal@_W@@YAXAEAPEAPEA_W@Z 000000018003e078     libucrt:environment_initialization.obj
 0002:00013080       $unwind$sprintf_s          000000018003e080     node_printer_win.obj
 0002:00013090       $unwind$__stdio_common_vsprintf_s 000000018003e090     libucrt:output.obj
 0002:00013090       $unwind$??$common_xtox_s@K_W@@YAHKQEA_W_KI_N@Z 000000018003e090     libucrt:xtoa.obj
 0002:00013090       $unwind$?__mbrtowc_utf8@__crt_mbstring@@YA_KPEA_WPEBD_KPEAU_Mbstatet@@@Z 000000018003e090     libucrt:mbrtowc.obj
 0002:00013090       $unwind$?equivalent@error_category@std@@UEBA_NHAEBVerror_condition@2@@Z 000000018003e090     node_printer_win.obj
 0002:00013090       $unwind$?_Raise@exception@stdext@@QEBAXXZ 000000018003e090     node_printer_win.obj
 0002:00013090       $unwind$??0out_of_range@std@@QEAA@PEBD@Z 000000018003e090     libcpmt:xthrow.obj
 0002:00013090       $unwind$??0length_error@std@@QEAA@PEBD@Z 000000018003e090     libcpmt:xthrow.obj
 0002:00013098       $unwind$__acrt_FlsSetValue 000000018003e098     libucrt:winapi_thunks.obj
 0002:00013098       $unwind$_RTC_Initialize    000000018003e098     LIBCMT:initsect.obj
 0002:00013098       $unwind$_RTC_Terminate     000000018003e098     LIBCMT:initsect.obj
 0002:00013098       $unwind$??_G?$basic_stringbuf@DU?$char_traits@D@std@@V?$allocator@D@2@@std@@UEAAPEAXI@Z 000000018003e098     node_printer_win.obj
 0002:00013098       $unwind$??_Glength_error@std@@UEAAPEAXI@Z 000000018003e098     libcpmt:xthrow.obj
 0002:00013098       $unwind$??_G?$basic_ostringstream@DU?$char_traits@D@std@@V?$allocator@D@2@@std@@UEAAPEAXI@Z 000000018003e098     node_printer_win.obj
 0002:00013098       $unwind$?replace_current_thread_locale_nolock@@YAXQEAU__acrt_ptd@@QEAU__crt_locale_data@@@Z 000000018003e098     libucrt:per_thread_data.obj
 0002:00013098       $unwind$__acrt_GetUserDefaultLocaleName 000000018003e098     libucrt:winapi_thunks.obj
 0002:00013098       $unwind$?_Locinfo_ctor@_Locinfo@std@@SAXPEAV12@PEBD@Z 000000018003e098     libcpmt:locale0.obj
 0002:00013098       $unwind$__acrt_execute_uninitializers 000000018003e098     libucrt:shared_initialization.obj
 0002:00013098       $unwind$_Getcvt            000000018003e098     libcpmt:xwctomb.obj
 0002:00013098       $unwind$_Getctype          000000018003e098     libcpmt:_tolower.obj
 0002:00013098       $unwind$__acrt_LocaleNameToLCID 000000018003e098     libucrt:winapi_thunks.obj
 0002:00013098       $unwind$??_Gios_base@std@@UEAAPEAXI@Z 000000018003e098     node_printer_win.obj
 0002:00013098       $unwind$_FindAndUnlinkFrame 000000018003e098     libvcruntime:risctrnsctrl.obj
 0002:00013098       $unwind$??1_Init_locks@std@@QEAA@XZ 000000018003e098     libcpmt:xlock.obj
 0002:00013098       $unwind$_initterm_e        000000018003e098     libucrt:initterm.obj
 0002:00013098       $unwind$GetLocaleNameFromLanguage 000000018003e098     libucrt:get_qualified_locale.obj
 0002:00013098       $unwind$GetLcidFromLangCountry 000000018003e098     libucrt:getqloc_downlevel.obj
 0002:00013098       $unwind$GetLocaleNameFromLangCountry 000000018003e098     libucrt:get_qualified_locale.obj
 0002:00013098       $unwind$?_New_Locimp@_Locimp@locale@std@@CAPEAV123@_N@Z 000000018003e098     libcpmt:locale0.obj
 0002:00013098       $unwind$?make_error_code@std@@YA?AVerror_code@1@W4io_errc@1@@Z 000000018003e098     node_printer_win.obj
 0002:00013098       $unwind$??_G?$basic_ostream@DU?$char_traits@D@std@@@std@@UEAAPEAXI@Z 000000018003e098     node_printer_win.obj
 0002:00013098       $unwind$__acrt_fp_strflt_to_string 000000018003e098     libucrt:_fptostr.obj
 0002:00013098       $unwind$??$common_initialize_environment_nolock@D@@YAHXZ 000000018003e098     libucrt:environment_initialization.obj
 0002:00013098       $unwind$GetLcidFromLanguage 000000018003e098     libucrt:getqloc_downlevel.obj
 0002:00013098       $unwind$??_G?$ctype@D@std@@MEAAPEAXI@Z 000000018003e098     node_printer_win.obj
 0002:00013098       $unwind$??_Gbad_array_new_length@std@@UEAAPEAXI@Z 000000018003e098     LIBCMT:throw_bad_alloc.obj
 0002:00013098       $unwind$?_Tidy@ios_base@std@@AEAAXXZ 000000018003e098     libcpmt:ios.obj
 0002:00013098       $unwind$??_Gbad_alloc@std@@UEAAPEAXI@Z 000000018003e098     libcpmt:xthrow.obj
 0002:00013098       $unwind$_updatetlocinfoEx_nolock 000000018003e098     libucrt:locale_refcounting.obj
 0002:00013098       $unwind$??_Gexception@std@@UEAAPEAXI@Z 000000018003e098     libcpmt:xthrow.obj
 0002:00013098       $unwind$?SetUnwindTryBlock@__FrameHandler3@@SAXPEA_KPEAU_xDISPATCHER_CONTEXT@@PEBU_s_FuncInfo@@H@Z 000000018003e098     libvcruntime:ehstate.obj
 0002:00013098       $unwind$strncpy_s          000000018003e098     libucrt:strncpy_s.obj
 0002:00013098       $unwind$wcsncpy_s          000000018003e098     libucrt:wcsncpy_s.obj
 0002:00013098       $unwind$_realloc_base      000000018003e098     libucrt:realloc_base.obj
 0002:00013098       $unwind$_fclose_nolock     000000018003e098     libucrt:fclose.obj
 0002:00013098       $unwind$??_G?$numpunct@D@std@@MEAAPEAXI@Z 000000018003e098     node_printer_win.obj
 0002:00013098       $unwind$__acrt_uninitialize_lowio 000000018003e098     libucrt:ioinit.obj
 0002:00013098       $unwind$__acrt_errno_map_os_error 000000018003e098     libucrt:errno.obj
 0002:00013098       $unwind$??_G?$basic_ios@DU?$char_traits@D@std@@@std@@UEAAPEAXI@Z 000000018003e098     node_printer_win.obj
 0002:00013098       $unwind$??1_Locinfo@std@@QEAA@XZ 000000018003e098     node_printer_win.obj
 0002:00013098       $unwind$_close_nolock      000000018003e098     libucrt:close.obj
 0002:00013098       $unwind$??_Gbad_exception@std@@UEAAPEAXI@Z 000000018003e098     libvcruntime:frame.obj
 0002:00013098       $unwind$?force_decimal_point@__crt_stdio_output@@YAXPEADQEAU__crt_locale_pointers@@@Z 000000018003e098     libucrt:output.obj
 0002:00013098       $unwind$??_Gout_of_range@std@@UEAAPEAXI@Z 000000018003e098     libcpmt:xthrow.obj
 0002:00013098       $unwind$??_Glogic_error@std@@UEAAPEAXI@Z 000000018003e098     libcpmt:xthrow.obj
 0002:00013098       $unwind$__vcrt_FlsSetValue 000000018003e098     libvcruntime:winapi_downlevel.obj
 0002:00013098       $unwind$?DloadGetSRWLockFunctionPointers@@YAEXZ 000000018003e098     DelayImp:delayhlp.obj
 0002:000130a4       $unwind$?do_tolower@?$ctype@D@std@@MEBAPEBDPEADPEBD@Z 000000018003e0a4     node_printer_win.obj
 0002:000130a4       $unwind$?_Erase@?$_Tree@V?$_Tmap_traits@V?$basic_string@DU?$char_traits@D@std@@V?$allocator@D@2@@std@@KU?$less@V?$basic_string@DU?$char_traits@D@std@@V?$allocator@D@2@@std@@@2@V?$allocator@U?$pair@$$CBV?$basic_string@DU?$char_traits@D@std@@V?$allocator@D@2@@std@@K@std@@@2@$0A@@std@@@std@@IEAAXPEAU?$_Tree_node@U?$pair@$$CBV?$basic_string@DU?$char_traits@D@std@@V?$allocator@D@2@@std@@K@std@@PEAX@2@@Z 000000018003e0a4     node_printer_win.obj
 0002:000130a4       $unwind$?do_toupper@?$ctype@D@std@@MEBAPEBDPEADPEBD@Z 000000018003e0a4     node_printer_win.obj
 0002:000130a4       $unwind$TestDefaultLanguage 000000018003e0a4     libucrt:getqloc_downlevel.obj
 0002:000130a4       $unwind$ProcessCodePage    000000018003e0a4     libucrt:getqloc_downlevel.obj
 0002:000130a4       $unwind$ProcessCodePage    000000018003e0a4     libucrt:get_qualified_locale.obj
 0002:000130b4       $chain$0$?do_tolower@?$ctype@D@std@@MEBAPEBDPEADPEBD@Z 000000018003e0b4     node_printer_win.obj
 0002:000130c8       $chain$1$?do_tolower@?$ctype@D@std@@MEBAPEBDPEADPEBD@Z 000000018003e0c8     node_printer_win.obj
 0002:000130d8       $chain$0$?do_toupper@?$ctype@D@std@@MEBAPEBDPEADPEBD@Z 000000018003e0d8     node_printer_win.obj
 0002:000130ec       $chain$1$?do_toupper@?$ctype@D@std@@MEBAPEBDPEADPEBD@Z 000000018003e0ec     node_printer_win.obj
 0002:000130fc       $unwind$??0_System_error@std@@IEAA@Verror_code@1@AEBV?$basic_string@DU?$char_traits@D@std@@V?$allocator@D@2@@1@@Z 000000018003e0fc     node_printer_win.obj
 0002:0001311c       $unwind$??0failure@ios_base@std@@QEAA@PEBDAEBVerror_code@2@@Z 000000018003e11c     node_printer_win.obj
 0002:00013130       $unwind$strtol             000000018003e130     libucrt:strtox.obj
 0002:00013130       $unwind$_itow_s            000000018003e130     libucrt:xtoa.obj
 0002:00013130       $unwind$mbstowcs_s         000000018003e130     libucrt:mbstowcs.obj
 0002:00013130       $unwind$_invalid_parameter_noinfo 000000018003e130     libucrt:invalid_parameter.obj
 0002:00013130       $unwind$_invalid_parameter_noinfo_noreturn 000000018003e130     libucrt:invalid_parameter.obj
 0002:00013130       $unwind$wctomb_s           000000018003e130     libucrt:wctomb.obj
 0002:00013130       $unwind$?_Doraise@failure@ios_base@std@@MEBAXXZ 000000018003e130     node_printer_win.obj
 0002:00013130       $unwind$_log10_special     000000018003e130     libucrt:log_special.obj
 0002:00013130       $unwind$_wtol              000000018003e130     libucrt:atox.obj
 0002:00013138       $unwind$?getAttributeMap@?A0x5d6687e9@@YAAEBV?$map@V?$basic_string@DU?$char_traits@D@std@@V?$allocator@D@2@@std@@KU?$less@V?$basic_string@DU?$char_traits@D@std@@V?$allocator@D@2@@std@@@2@V?$allocator@U?$pair@$$CBV?$basic_string@DU?$char_traits@D@std@@V?$allocator@D@2@@std@@K@std@@@2@@std@@XZ 000000018003e138     node_printer_win.obj
 0002:00013138       $unwind$?getStatusMap@?A0x5d6687e9@@YAAEBV?$map@V?$basic_string@DU?$char_traits@D@std@@V?$allocator@D@2@@std@@KU?$less@V?$basic_string@DU?$char_traits@D@std@@V?$allocator@D@2@@std@@@2@V?$allocator@U?$pair@$$CBV?$basic_string@DU?$char_traits@D@std@@V?$allocator@D@2@@std@@K@std@@@2@@std@@XZ 000000018003e138     node_printer_win.obj
 0002:00013144       $chain$1$?getStatusMap@?A0x5d6687e9@@YAAEBV?$map@V?$basic_string@DU?$char_traits@D@std@@V?$allocator@D@2@@std@@KU?$less@V?$basic_string@DU?$char_traits@D@std@@V?$allocator@D@2@@std@@@2@V?$allocator@U?$pair@$$CBV?$basic_string@DU?$char_traits@D@std@@V?$allocator@D@2@@std@@K@std@@@2@@std@@XZ 000000018003e144     node_printer_win.obj
 0002:0001315c       $chain$2$?getStatusMap@?A0x5d6687e9@@YAAEBV?$map@V?$basic_string@DU?$char_traits@D@std@@V?$allocator@D@2@@std@@KU?$less@V?$basic_string@DU?$char_traits@D@std@@V?$allocator@D@2@@std@@@2@V?$allocator@U?$pair@$$CBV?$basic_string@DU?$char_traits@D@std@@V?$allocator@D@2@@std@@K@std@@@2@@std@@XZ 000000018003e15c     node_printer_win.obj
 0002:0001316c       $unwind$?getJobCommandMap@?A0x5d6687e9@@YAAEBV?$map@V?$basic_string@DU?$char_traits@D@std@@V?$allocator@D@2@@std@@KU?$less@V?$basic_string@DU?$char_traits@D@std@@V?$allocator@D@2@@std@@@2@V?$allocator@U?$pair@$$CBV?$basic_string@DU?$char_traits@D@std@@V?$allocator@D@2@@std@@K@std@@@2@@std@@XZ 000000018003e16c     node_printer_win.obj
 0002:0001316c       $unwind$?getJobStatusMap@?A0x5d6687e9@@YAAEBV?$map@V?$basic_string@DU?$char_traits@D@std@@V?$allocator@D@2@@std@@KU?$less@V?$basic_string@DU?$char_traits@D@std@@V?$allocator@D@2@@std@@@2@V?$allocator@U?$pair@$$CBV?$basic_string@DU?$char_traits@D@std@@V?$allocator@D@2@@std@@K@std@@@2@@std@@XZ 000000018003e16c     node_printer_win.obj
 0002:00013174       $chain$1$?getJobStatusMap@?A0x5d6687e9@@YAAEBV?$map@V?$basic_string@DU?$char_traits@D@std@@V?$allocator@D@2@@std@@KU?$less@V?$basic_string@DU?$char_traits@D@std@@V?$allocator@D@2@@std@@@2@V?$allocator@U?$pair@$$CBV?$basic_string@DU?$char_traits@D@std@@V?$allocator@D@2@@std@@K@std@@@2@@std@@XZ 000000018003e174     node_printer_win.obj
 0002:0001318c       $chain$2$?getJobStatusMap@?A0x5d6687e9@@YAAEBV?$map@V?$basic_string@DU?$char_traits@D@std@@V?$allocator@D@2@@std@@KU?$less@V?$basic_string@DU?$char_traits@D@std@@V?$allocator@D@2@@std@@@2@V?$allocator@U?$pair@$$CBV?$basic_string@DU?$char_traits@D@std@@V?$allocator@D@2@@std@@K@std@@@2@@std@@XZ 000000018003e18c     node_printer_win.obj
 0002:0001319c       $chain$1$?getAttributeMap@?A0x5d6687e9@@YAAEBV?$map@V?$basic_string@DU?$char_traits@D@std@@V?$allocator@D@2@@std@@KU?$less@V?$basic_string@DU?$char_traits@D@std@@V?$allocator@D@2@@std@@@2@V?$allocator@U?$pair@$$CBV?$basic_string@DU?$char_traits@D@std@@V?$allocator@D@2@@std@@K@std@@@2@@std@@XZ 000000018003e19c     node_printer_win.obj
 0002:000131b4       $chain$2$?getAttributeMap@?A0x5d6687e9@@YAAEBV?$map@V?$basic_string@DU?$char_traits@D@std@@V?$allocator@D@2@@std@@KU?$less@V?$basic_string@DU?$char_traits@D@std@@V?$allocator@D@2@@std@@@2@V?$allocator@U?$pair@$$CBV?$basic_string@DU?$char_traits@D@std@@V?$allocator@D@2@@std@@K@std@@@2@@std@@XZ 000000018003e1b4     node_printer_win.obj
 0002:000131c4       $chain$1$?getJobCommandMap@?A0x5d6687e9@@YAAEBV?$map@V?$basic_string@DU?$char_traits@D@std@@V?$allocator@D@2@@std@@KU?$less@V?$basic_string@DU?$char_traits@D@std@@V?$allocator@D@2@@std@@@2@V?$allocator@U?$pair@$$CBV?$basic_string@DU?$char_traits@D@std@@V?$allocator@D@2@@std@@K@std@@@2@@std@@XZ 000000018003e1c4     node_printer_win.obj
 0002:000131dc       $chain$2$?getJobCommandMap@?A0x5d6687e9@@YAAEBV?$map@V?$basic_string@DU?$char_traits@D@std@@V?$allocator@D@2@@std@@KU?$less@V?$basic_string@DU?$char_traits@D@std@@V?$allocator@D@2@@std@@@2@V?$allocator@U?$pair@$$CBV?$basic_string@DU?$char_traits@D@std@@V?$allocator@D@2@@std@@K@std@@@2@@std@@XZ 000000018003e1dc     node_printer_win.obj
 0002:000131ec       $unwind$?parseJobObject@?A0x5d6687e9@@YAXPEAU_JOB_INFO_2W@@V?$Local@VObject@v8@@@v8@@@Z 000000018003e1ec     node_printer_win.obj
 0002:00013200       $unwind$?getLastErrorCodeAndMessage@?A0x5d6687e9@@YA?AV?$basic_string@DU?$char_traits@D@std@@V?$allocator@D@2@@std@@XZ 000000018003e200     node_printer_win.obj
 0002:00013220       $unwind$?retrieveAndParseJobs@?A0x5d6687e9@@YA?AV?$basic_string@DU?$char_traits@D@std@@V?$allocator@D@2@@std@@QEA_WAEBKV?$Local@VObject@v8@@@v8@@AEAUPrinterHandle@1@@Z 000000018003e220     node_printer_win.obj
 0002:00013244       $unwind$?parsePrinterInfo@?A0x5d6687e9@@YA?AV?$basic_string@DU?$char_traits@D@std@@V?$allocator@D@2@@std@@PEBU_PRINTER_INFO_2W@@V?$Local@VObject@v8@@@v8@@AEAUPrinterHandle@1@@Z 000000018003e244     node_printer_win.obj
 0002:00013264       $unwind$?getPrinters@@YAXAEBV?$FunctionCallbackInfo@VValue@v8@@@v8@@@Z 000000018003e264     node_printer_win.obj
 0002:0001328c       $unwind$?getDefaultPrinterName@@YAXAEBV?$FunctionCallbackInfo@VValue@v8@@@v8@@@Z 000000018003e28c     node_printer_win.obj
 0002:00013298       $unwind$?getPrinter@@YAXAEBV?$FunctionCallbackInfo@VValue@v8@@@v8@@@Z 000000018003e298     node_printer_win.obj
 0002:000132b8       $unwind$?getPrinterDriverOptions@@YAXAEBV?$FunctionCallbackInfo@VValue@v8@@@v8@@@Z 000000018003e2b8     node_printer_win.obj
 0002:000132b8       $unwind$?PrintFile@@YAXAEBV?$FunctionCallbackInfo@VValue@v8@@@v8@@@Z 000000018003e2b8     node_printer_win.obj
 0002:000132c0       $unwind$?getJob@@YAXAEBV?$FunctionCallbackInfo@VValue@v8@@@v8@@@Z 000000018003e2c0     node_printer_win.obj
 0002:000132e4       $unwind$?setJob@@YAXAEBV?$FunctionCallbackInfo@VValue@v8@@@v8@@@Z 000000018003e2e4     node_printer_win.obj
 0002:00013308       $chain$0$?setJob@@YAXAEBV?$FunctionCallbackInfo@VValue@v8@@@v8@@@Z 000000018003e308     node_printer_win.obj
 0002:0001331c       $chain$1$?setJob@@YAXAEBV?$FunctionCallbackInfo@VValue@v8@@@v8@@@Z 000000018003e31c     node_printer_win.obj
 0002:0001332c       $unwind$?getSupportedJobCommands@@YAXAEBV?$FunctionCallbackInfo@VValue@v8@@@v8@@@Z 000000018003e32c     node_printer_win.obj
 0002:0001333c       $unwind$?getSupportedPrintFormats@@YAXAEBV?$FunctionCallbackInfo@VValue@v8@@@v8@@@Z 000000018003e33c     node_printer_win.obj
 0002:00013364       $unwind$?PrintDirect@@YAXAEBV?$FunctionCallbackInfo@VValue@v8@@@v8@@@Z 000000018003e364     node_printer_win.obj
 0002:0001338c       $unwind$??R<lambda_f03950bc5685219e0bcd2087efbe011e>@@QEBAHXZ 000000018003e38c     libucrt:onexit.obj
 0002:0001338c       $unwind$GetTableIndexFromLocaleName 000000018003e38c     libcpmt:winapinls.obj
 0002:0001338c       $unwind$??0?$basic_string@DU?$char_traits@D@std@@V?$allocator@D@2@@std@@QEAA@_KD@Z 000000018003e38c     node_printer_win.obj
 0002:0001338c       $unwind$TranslateName      000000018003e38c     libucrt:getqloc_downlevel.obj
 0002:0001338c       $unwind$?erase@?$_Tree@V?$_Tmap_traits@V?$basic_string@DU?$char_traits@D@std@@V?$allocator@D@2@@std@@KU?$less@V?$basic_string@DU?$char_traits@D@std@@V?$allocator@D@2@@std@@@2@V?$allocator@U?$pair@$$CBV?$basic_string@DU?$char_traits@D@std@@V?$allocator@D@2@@std@@K@std@@@2@$0A@@std@@@std@@QEAA?AV?$_Tree_iterator@V?$_Tree_val@U?$_Tree_simple_types@U?$pair@$$CBV?$basic_string@DU?$char_traits@D@std@@V?$allocator@D@2@@std@@K@std@@@std@@@std@@@2@V?$_Tree_const_iterator@V?$_Tree_val@U?$_Tree_simple_types@U?$pair@$$CBV?$basic_string@DU?$char_traits@D@std@@V?$allocator@D@2@@std@@K@std@@@std@@@std@@@2@0@Z 000000018003e38c     node_printer_win.obj
 0002:0001338c       $unwind$??$common_xtox@K_W@@YAHKQEA_W_KI_N@Z 000000018003e38c     libucrt:xtoa.obj
 0002:0001338c       $unwind$?type_case_integer@?$output_processor@DV?$string_output_adapter@D@__crt_stdio_output@@V?$format_validation_base@DV?$string_output_adapter@D@__crt_stdio_output@@@2@@__crt_stdio_output@@AEAA_NI_N@Z 000000018003e38c     libucrt:output.obj
 0002:000133a4       $unwind$??0?$basic_ostringstream@DU?$char_traits@D@std@@V?$allocator@D@2@@std@@QEAA@H@Z 000000018003e3a4     node_printer_win.obj
 0002:000133bc       $unwind$?seekpos@?$basic_stringbuf@DU?$char_traits@D@std@@V?$allocator@D@2@@std@@MEAA?AV?$fpos@U_Mbstatet@@@2@V32@H@Z 000000018003e3bc     node_printer_win.obj
 0002:000133d0       $unwind$?seekoff@?$basic_stringbuf@DU?$char_traits@D@std@@V?$allocator@D@2@@std@@MEAA?AV?$fpos@U_Mbstatet@@@2@_JHH@Z 000000018003e3d0     node_printer_win.obj
 0002:000133e8       $unwind$?overflow@?$basic_stringbuf@DU?$char_traits@D@std@@V?$allocator@D@2@@std@@MEAAHH@Z 000000018003e3e8     node_printer_win.obj
 0002:00013404       $unwind$??6?$basic_ostream@DU?$char_traits@D@std@@@std@@QEAAAEAV01@K@Z 000000018003e404     node_printer_win.obj
 0002:00013410       $chain$1$??6?$basic_ostream@DU?$char_traits@D@std@@@std@@QEAAAEAV01@K@Z 000000018003e410     node_printer_win.obj
 0002:00013428       $chain$2$??6?$basic_ostream@DU?$char_traits@D@std@@@std@@QEAAAEAV01@K@Z 000000018003e428     node_printer_win.obj
 0002:0001343c       $chain$3$??6?$basic_ostream@DU?$char_traits@D@std@@@std@@QEAAAEAV01@K@Z 000000018003e43c     node_printer_win.obj
 0002:0001344c       $chain$4$??6?$basic_ostream@DU?$char_traits@D@std@@@std@@QEAAAEAV01@K@Z 000000018003e44c     node_printer_win.obj
 0002:0001345c       $unwind$?xsgetn@?$basic_streambuf@DU?$char_traits@D@std@@@std@@MEAA_JPEAD_J@Z 000000018003e45c     node_printer_win.obj
 0002:0001345c       $unwind$?xsputn@?$basic_streambuf@DU?$char_traits@D@std@@@std@@MEAA_JPEBD_J@Z 000000018003e45c     node_printer_win.obj
 0002:00013470       $chain$0$?xsputn@?$basic_streambuf@DU?$char_traits@D@std@@@std@@MEAA_JPEBD_J@Z 000000018003e470     node_printer_win.obj
 0002:00013484       $chain$1$?xsputn@?$basic_streambuf@DU?$char_traits@D@std@@@std@@MEAA_JPEBD_J@Z 000000018003e484     node_printer_win.obj
 0002:00013494       $chain$0$?xsgetn@?$basic_streambuf@DU?$char_traits@D@std@@@std@@MEAA_JPEAD_J@Z 000000018003e494     node_printer_win.obj
 0002:000134a8       $chain$1$?xsgetn@?$basic_streambuf@DU?$char_traits@D@std@@@std@@MEAA_JPEAD_J@Z 000000018003e4a8     node_printer_win.obj
 0002:000134b8       $unwind$__vcrt_getptd_noexit 000000018003e4b8     libvcruntime:per_thread_data.obj
 0002:000134b8       $unwind$??$common_lseek_nolock@_J@@YA_JH_JH@Z 000000018003e4b8     libucrt:lseek.obj
 0002:000134b8       $unwind$__acrt_locale_initialize_time 000000018003e4b8     libucrt:inittime.obj
 0002:000134b8       $unwind$??4?$_Yarn@D@std@@QEAAAEAV01@PEBD@Z 000000018003e4b8     libcpmt:locale0.obj
 0002:000134b8       $unwind$??0_Init_locks@std@@QEAA@XZ 000000018003e4b8     libcpmt:xlock.obj
 0002:000134b8       $unwind$__acrt_getptd      000000018003e4b8     libucrt:per_thread_data.obj
 0002:000134b8       $unwind$??0_LocaleUpdate@@QEAA@QEAU__crt_locale_pointers@@@Z 000000018003e4b8     libucrt:output.obj
 0002:000134b8       $unwind$__acrt_InitializeCriticalSectionEx 000000018003e4b8     libucrt:winapi_thunks.obj
 0002:000134b8       $unwind$_DllMainCRTStartup 000000018003e4b8     LIBCMT:dll_dllmain.obj
 0002:000134b8       $unwind$__vcrt_InitializeCriticalSectionEx 000000018003e4b8     libvcruntime:winapi_downlevel.obj
 0002:000134b8       $unwind$_exception_enabled 000000018003e4b8     libucrt:libm_error.obj
 0002:000134b8       $unwind$__acrt_execute_initializers 000000018003e4b8     libucrt:shared_initialization.obj
 0002:000134b8       $unwind$?free_crt_array_internal@@YAXQEAPEBX_K@Z 000000018003e4b8     libucrt:inittime.obj
 0002:000134b8       $unwind$?type_case_n@?$output_processor@DV?$string_output_adapter@D@__crt_stdio_output@@V?$format_validation_base@DV?$string_output_adapter@D@__crt_stdio_output@@@2@@__crt_stdio_output@@AEAA_NXZ 000000018003e4b8     libucrt:output.obj
 0002:000134b8       $unwind$?FrameUnwindToEmptyState@__FrameHandler3@@SAXPEA_KPEAU_xDISPATCHER_CONTEXT@@PEBU_s_FuncInfo@@@Z 000000018003e4b8     libvcruntime:risctrnsctrl.obj
 0002:000134b8       $unwind$__acrt_stdio_flush_nolock 000000018003e4b8     libucrt:fflush.obj
 0002:000134b8       $unwind$__acrt_getptd_noexit 000000018003e4b8     libucrt:per_thread_data.obj
 0002:000134b8       $unwind$memcpy_s           000000018003e4b8     libucrt:strtod.obj
 0002:000134b8       $unwind$?CatchTryBlock@__FrameHandler3@@SAPEBU_s_TryBlockMapEntry@@PEBU_s_FuncInfo@@H@Z 000000018003e4b8     libvcruntime:risctrnsctrl.obj
 0002:000134b8       $unwind$??_G?$basic_streambuf@DU?$char_traits@D@std@@@std@@UEAAPEAXI@Z 000000018003e4b8     node_printer_win.obj
 0002:000134b8       $unwind$memcpy_s           000000018003e4b8     libucrt:cfout.obj
 0002:000134c8       $unwind$?append@?$basic_string@DU?$char_traits@D@std@@V?$allocator@D@2@@std@@QEAAAEAV12@QEBD_K@Z 000000018003e4c8     node_printer_win.obj
 0002:000134c8       $unwind$??0sentry@?$basic_ostream@DU?$char_traits@D@std@@@std@@QEAA@AEAV12@@Z 000000018003e4c8     node_printer_win.obj
 0002:000134d4       $chain$0$??0sentry@?$basic_ostream@DU?$char_traits@D@std@@@std@@QEAA@AEAV12@@Z 000000018003e4d4     node_printer_win.obj
 0002:000134e8       $chain$1$??0sentry@?$basic_ostream@DU?$char_traits@D@std@@@std@@QEAA@AEAV12@@Z 000000018003e4e8     node_printer_win.obj
 0002:000134f8       $unwind$?do_put@?$num_put@DV?$ostreambuf_iterator@DU?$char_traits@D@std@@@std@@@std@@MEBA?AV?$ostreambuf_iterator@DU?$char_traits@D@std@@@2@V32@AEAVios_base@2@DPEBX@Z 000000018003e4f8     node_printer_win.obj
 0002:00013510       $unwind$?do_put@?$num_put@DV?$ostreambuf_iterator@DU?$char_traits@D@std@@@std@@@std@@MEBA?AV?$ostreambuf_iterator@DU?$char_traits@D@std@@@2@V32@AEAVios_base@2@DN@Z 000000018003e510     node_printer_win.obj
 0002:00013510       $unwind$?do_put@?$num_put@DV?$ostreambuf_iterator@DU?$char_traits@D@std@@@std@@@std@@MEBA?AV?$ostreambuf_iterator@DU?$char_traits@D@std@@@2@V32@AEAVios_base@2@DO@Z 000000018003e510     node_printer_win.obj
 0002:00013524       $chain$4$?do_put@?$num_put@DV?$ostreambuf_iterator@DU?$char_traits@D@std@@@std@@@std@@MEBA?AV?$ostreambuf_iterator@DU?$char_traits@D@std@@@2@V32@AEAVios_base@2@DO@Z 000000018003e524     node_printer_win.obj
 0002:00013548       $chain$5$?do_put@?$num_put@DV?$ostreambuf_iterator@DU?$char_traits@D@std@@@std@@@std@@MEBA?AV?$ostreambuf_iterator@DU?$char_traits@D@std@@@2@V32@AEAVios_base@2@DO@Z 000000018003e548     node_printer_win.obj
 0002:0001355c       $chain$6$?do_put@?$num_put@DV?$ostreambuf_iterator@DU?$char_traits@D@std@@@std@@@std@@MEBA?AV?$ostreambuf_iterator@DU?$char_traits@D@std@@@2@V32@AEAVios_base@2@DO@Z 000000018003e55c     node_printer_win.obj
 0002:00013570       $chain$7$?do_put@?$num_put@DV?$ostreambuf_iterator@DU?$char_traits@D@std@@@std@@@std@@MEBA?AV?$ostreambuf_iterator@DU?$char_traits@D@std@@@2@V32@AEAVios_base@2@DO@Z 000000018003e570     node_printer_win.obj
 0002:00013580       $chain$8$?do_put@?$num_put@DV?$ostreambuf_iterator@DU?$char_traits@D@std@@@std@@@std@@MEBA?AV?$ostreambuf_iterator@DU?$char_traits@D@std@@@2@V32@AEAVios_base@2@DO@Z 000000018003e580     node_printer_win.obj
 0002:00013590       $chain$9$?do_put@?$num_put@DV?$ostreambuf_iterator@DU?$char_traits@D@std@@@std@@@std@@MEBA?AV?$ostreambuf_iterator@DU?$char_traits@D@std@@@2@V32@AEAVios_base@2@DO@Z 000000018003e590     node_printer_win.obj
 0002:000135a0       $chain$4$?do_put@?$num_put@DV?$ostreambuf_iterator@DU?$char_traits@D@std@@@std@@@std@@MEBA?AV?$ostreambuf_iterator@DU?$char_traits@D@std@@@2@V32@AEAVios_base@2@DN@Z 000000018003e5a0     node_printer_win.obj
 0002:000135c4       $chain$5$?do_put@?$num_put@DV?$ostreambuf_iterator@DU?$char_traits@D@std@@@std@@@std@@MEBA?AV?$ostreambuf_iterator@DU?$char_traits@D@std@@@2@V32@AEAVios_base@2@DN@Z 000000018003e5c4     node_printer_win.obj
 0002:000135d8       $chain$6$?do_put@?$num_put@DV?$ostreambuf_iterator@DU?$char_traits@D@std@@@std@@@std@@MEBA?AV?$ostreambuf_iterator@DU?$char_traits@D@std@@@2@V32@AEAVios_base@2@DN@Z 000000018003e5d8     node_printer_win.obj
 0002:000135ec       $chain$7$?do_put@?$num_put@DV?$ostreambuf_iterator@DU?$char_traits@D@std@@@std@@@std@@MEBA?AV?$ostreambuf_iterator@DU?$char_traits@D@std@@@2@V32@AEAVios_base@2@DN@Z 000000018003e5ec     node_printer_win.obj
 0002:000135fc       $chain$8$?do_put@?$num_put@DV?$ostreambuf_iterator@DU?$char_traits@D@std@@@std@@@std@@MEBA?AV?$ostreambuf_iterator@DU?$char_traits@D@std@@@2@V32@AEAVios_base@2@DN@Z 000000018003e5fc     node_printer_win.obj
 0002:0001360c       $chain$9$?do_put@?$num_put@DV?$ostreambuf_iterator@DU?$char_traits@D@std@@@std@@@std@@MEBA?AV?$ostreambuf_iterator@DU?$char_traits@D@std@@@2@V32@AEAVios_base@2@DN@Z 000000018003e60c     node_printer_win.obj
 0002:0001361c       $unwind$?do_put@?$num_put@DV?$ostreambuf_iterator@DU?$char_traits@D@std@@@std@@@std@@MEBA?AV?$ostreambuf_iterator@DU?$char_traits@D@std@@@2@V32@AEAVios_base@2@D_J@Z 000000018003e61c     node_printer_win.obj
 0002:0001361c       $unwind$?do_put@?$num_put@DV?$ostreambuf_iterator@DU?$char_traits@D@std@@@std@@@std@@MEBA?AV?$ostreambuf_iterator@DU?$char_traits@D@std@@@2@V32@AEAVios_base@2@DK@Z 000000018003e61c     node_printer_win.obj
 0002:0001361c       $unwind$?do_put@?$num_put@DV?$ostreambuf_iterator@DU?$char_traits@D@std@@@std@@@std@@MEBA?AV?$ostreambuf_iterator@DU?$char_traits@D@std@@@2@V32@AEAVios_base@2@DJ@Z 000000018003e61c     node_printer_win.obj
 0002:0001361c       $unwind$?do_put@?$num_put@DV?$ostreambuf_iterator@DU?$char_traits@D@std@@@std@@@std@@MEBA?AV?$ostreambuf_iterator@DU?$char_traits@D@std@@@2@V32@AEAVios_base@2@D_K@Z 000000018003e61c     node_printer_win.obj
 0002:00013634       $unwind$?do_put@?$num_put@DV?$ostreambuf_iterator@DU?$char_traits@D@std@@@std@@@std@@MEBA?AV?$ostreambuf_iterator@DU?$char_traits@D@std@@@2@V32@AEAVios_base@2@D_N@Z 000000018003e634     node_printer_win.obj
 0002:00013650       $chain$1$?do_put@?$num_put@DV?$ostreambuf_iterator@DU?$char_traits@D@std@@@std@@@std@@MEBA?AV?$ostreambuf_iterator@DU?$char_traits@D@std@@@2@V32@AEAVios_base@2@D_N@Z 000000018003e650     node_printer_win.obj
 0002:00013668       $chain$2$?do_put@?$num_put@DV?$ostreambuf_iterator@DU?$char_traits@D@std@@@std@@@std@@MEBA?AV?$ostreambuf_iterator@DU?$char_traits@D@std@@@2@V32@AEAVios_base@2@D_N@Z 000000018003e668     node_printer_win.obj
 0002:0001367c       $chain$3$?do_put@?$num_put@DV?$ostreambuf_iterator@DU?$char_traits@D@std@@@std@@@std@@MEBA?AV?$ostreambuf_iterator@DU?$char_traits@D@std@@@2@V32@AEAVios_base@2@D_N@Z 000000018003e67c     node_printer_win.obj
 0002:0001368c       $chain$6$?do_put@?$num_put@DV?$ostreambuf_iterator@DU?$char_traits@D@std@@@std@@@std@@MEBA?AV?$ostreambuf_iterator@DU?$char_traits@D@std@@@2@V32@AEAVios_base@2@D_N@Z 000000018003e68c     node_printer_win.obj
 0002:0001368c       $chain$4$?do_put@?$num_put@DV?$ostreambuf_iterator@DU?$char_traits@D@std@@@std@@@std@@MEBA?AV?$ostreambuf_iterator@DU?$char_traits@D@std@@@2@V32@AEAVios_base@2@D_N@Z 000000018003e68c     node_printer_win.obj
 0002:000136a0       $chain$5$?do_put@?$num_put@DV?$ostreambuf_iterator@DU?$char_traits@D@std@@@std@@@std@@MEBA?AV?$ostreambuf_iterator@DU?$char_traits@D@std@@@2@V32@AEAVios_base@2@D_N@Z 000000018003e6a0     node_printer_win.obj
 0002:000136b0       $chain$0$?append@?$basic_string@DU?$char_traits@D@std@@V?$allocator@D@2@@std@@QEAAAEAV12@QEBD_K@Z 000000018003e6b0     node_printer_win.obj
 0002:000136c4       $chain$1$?append@?$basic_string@DU?$char_traits@D@std@@V?$allocator@D@2@@std@@QEAAAEAV12@QEBD_K@Z 000000018003e6c4     node_printer_win.obj
 0002:000136d4       $unwind$?setstate@?$basic_ios@DU?$char_traits@D@std@@@std@@QEAAXH_N@Z 000000018003e6d4     node_printer_win.obj
 0002:000136e0       $unwind$?_Iput@?$num_put@DV?$ostreambuf_iterator@DU?$char_traits@D@std@@@std@@@std@@AEBA?AV?$ostreambuf_iterator@DU?$char_traits@D@std@@@2@V32@AEAVios_base@2@DPEAD_K@Z 000000018003e6e0     node_printer_win.obj
 0002:00013704       $unwind$?_Fput@?$num_put@DV?$ostreambuf_iterator@DU?$char_traits@D@std@@@std@@@std@@AEBA?AV?$ostreambuf_iterator@DU?$char_traits@D@std@@@2@V32@AEAVios_base@2@DPEBD_K@Z 000000018003e704     node_printer_win.obj
 0002:00013728       $unwind$?_Extract@?$_Tree_val@U?$_Tree_simple_types@U?$pair@$$CBV?$basic_string@DU?$char_traits@D@std@@V?$allocator@D@2@@std@@K@std@@@std@@@std@@QEAAPEAU?$_Tree_node@U?$pair@$$CBV?$basic_string@DU?$char_traits@D@std@@V?$allocator@D@2@@std@@K@std@@PEAX@2@V?$_Tree_const_iterator@V?$_Tree_val@U?$_Tree_simple_types@U?$pair@$$CBV?$basic_string@DU?$char_traits@D@std@@V?$allocator@D@2@@std@@K@std@@@std@@@std@@@2@@Z 000000018003e728     node_printer_win.obj
 0002:00013734       $chain$0$?_Erase@?$_Tree@V?$_Tmap_traits@V?$basic_string@DU?$char_traits@D@std@@V?$allocator@D@2@@std@@KU?$less@V?$basic_string@DU?$char_traits@D@std@@V?$allocator@D@2@@std@@@2@V?$allocator@U?$pair@$$CBV?$basic_string@DU?$char_traits@D@std@@V?$allocator@D@2@@std@@K@std@@@2@$0A@@std@@@std@@IEAAXPEAU?$_Tree_node@U?$pair@$$CBV?$basic_string@DU?$char_traits@D@std@@V?$allocator@D@2@@std@@K@std@@PEAX@2@@Z 000000018003e734     node_printer_win.obj
 0002:00013748       $chain$1$?_Erase@?$_Tree@V?$_Tmap_traits@V?$basic_string@DU?$char_traits@D@std@@V?$allocator@D@2@@std@@KU?$less@V?$basic_string@DU?$char_traits@D@std@@V?$allocator@D@2@@std@@@2@V?$allocator@U?$pair@$$CBV?$basic_string@DU?$char_traits@D@std@@V?$allocator@D@2@@std@@K@std@@@2@$0A@@std@@@std@@IEAAXPEAU?$_Tree_node@U?$pair@$$CBV?$basic_string@DU?$char_traits@D@std@@V?$allocator@D@2@@std@@K@std@@PEAX@2@@Z 000000018003e748     node_printer_win.obj
 0002:00013758       $chain$2$?_Erase@?$_Tree@V?$_Tmap_traits@V?$basic_string@DU?$char_traits@D@std@@V?$allocator@D@2@@std@@KU?$less@V?$basic_string@DU?$char_traits@D@std@@V?$allocator@D@2@@std@@@2@V?$allocator@U?$pair@$$CBV?$basic_string@DU?$char_traits@D@std@@V?$allocator@D@2@@std@@K@std@@@2@$0A@@std@@@std@@IEAAXPEAU?$_Tree_node@U?$pair@$$CBV?$basic_string@DU?$char_traits@D@std@@V?$allocator@D@2@@std@@K@std@@PEAX@2@@Z 000000018003e758     node_printer_win.obj
 0002:0001376c       $unwind$??$use_facet@V?$ctype@D@std@@@std@@YAAEBV?$ctype@D@0@AEBVlocale@0@@Z 000000018003e76c     node_printer_win.obj
 0002:00013784       $unwind$??$insert@U?$pair@PEBDH@std@@X@?$map@V?$basic_string@DU?$char_traits@D@std@@V?$allocator@D@2@@std@@KU?$less@V?$basic_string@DU?$char_traits@D@std@@V?$allocator@D@2@@std@@@2@V?$allocator@U?$pair@$$CBV?$basic_string@DU?$char_traits@D@std@@V?$allocator@D@2@@std@@K@std@@@2@@std@@QEAA?AU?$pair@V?$_Tree_iterator@V?$_Tree_val@U?$_Tree_simple_types@U?$pair@$$CBV?$basic_string@DU?$char_traits@D@std@@V?$allocator@D@2@@std@@K@std@@@std@@@std@@@std@@_N@1@$$QEAU?$pair@PEBDH@1@@Z 000000018003e784     node_printer_win.obj
 0002:0001379c       $unwind$??$?6U?$char_traits@D@std@@@std@@YAAEAV?$basic_ostream@DU?$char_traits@D@std@@@0@AEAV10@PEBD@Z 000000018003e79c     node_printer_win.obj
 0002:0001379c       $unwind$??$_Insert_string@DU?$char_traits@D@std@@_K@std@@YAAEAV?$basic_ostream@DU?$char_traits@D@std@@@0@AEAV10@QEBD_K@Z 000000018003e79c     node_printer_win.obj
 0002:000137b4       $unwind$??$use_facet@V?$num_put@DV?$ostreambuf_iterator@DU?$char_traits@D@std@@@std@@@std@@@std@@YAAEBV?$num_put@DV?$ostreambuf_iterator@DU?$char_traits@D@std@@@std@@@0@AEBVlocale@0@@Z 000000018003e7b4     node_printer_win.obj
 0002:000137cc       $unwind$??$use_facet@V?$numpunct@D@std@@@std@@YAAEBV?$numpunct@D@0@AEBVlocale@0@@Z 000000018003e7cc     node_printer_win.obj
 0002:000137dc       $unwind$??$_Reallocate_grow_by@V<lambda_65e615be2a453ca0576c979606f46740>@@PEBD_K@?$basic_string@DU?$char_traits@D@std@@V?$allocator@D@2@@std@@QEAAAEAV01@_KV<lambda_65e615be2a453ca0576c979606f46740>@@PEBD_K@Z 000000018003e7dc     node_printer_win.obj
 0002:000137dc       $unwind$??$_Reallocate_grow_by@V<lambda_e1befb086ad3257e3f042a63030725f7>@@_KD@?$basic_string@DU?$char_traits@D@std@@V?$allocator@D@2@@std@@QEAAAEAV01@_KV<lambda_e1befb086ad3257e3f042a63030725f7>@@_KD@Z 000000018003e7dc     node_printer_win.obj
 0002:000137ec       $chain$3$??$_Reallocate_grow_by@V<lambda_e1befb086ad3257e3f042a63030725f7>@@_KD@?$basic_string@DU?$char_traits@D@std@@V?$allocator@D@2@@std@@QEAAAEAV01@_KV<lambda_e1befb086ad3257e3f042a63030725f7>@@_KD@Z 000000018003e7ec     node_printer_win.obj
 0002:0001380c       $chain$4$??$_Reallocate_grow_by@V<lambda_e1befb086ad3257e3f042a63030725f7>@@_KD@?$basic_string@DU?$char_traits@D@std@@V?$allocator@D@2@@std@@QEAAAEAV01@_KV<lambda_e1befb086ad3257e3f042a63030725f7>@@_KD@Z 000000018003e80c     node_printer_win.obj
 0002:0001381c       $chain$5$??$_Reallocate_grow_by@V<lambda_e1befb086ad3257e3f042a63030725f7>@@_KD@?$basic_string@DU?$char_traits@D@std@@V?$allocator@D@2@@std@@QEAAAEAV01@_KV<lambda_e1befb086ad3257e3f042a63030725f7>@@_KD@Z 000000018003e81c     node_printer_win.obj
 0002:0001383c       $chain$3$??$_Reallocate_grow_by@V<lambda_65e615be2a453ca0576c979606f46740>@@PEBD_K@?$basic_string@DU?$char_traits@D@std@@V?$allocator@D@2@@std@@QEAAAEAV01@_KV<lambda_65e615be2a453ca0576c979606f46740>@@PEBD_K@Z 000000018003e83c     node_printer_win.obj
 0002:0001385c       $chain$4$??$_Reallocate_grow_by@V<lambda_65e615be2a453ca0576c979606f46740>@@PEBD_K@?$basic_string@DU?$char_traits@D@std@@V?$allocator@D@2@@std@@QEAAAEAV01@_KV<lambda_65e615be2a453ca0576c979606f46740>@@PEBD_K@Z 000000018003e85c     node_printer_win.obj
 0002:0001386c       $chain$5$??$_Reallocate_grow_by@V<lambda_65e615be2a453ca0576c979606f46740>@@PEBD_K@?$basic_string@DU?$char_traits@D@std@@V?$allocator@D@2@@std@@QEAAAEAV01@_KV<lambda_65e615be2a453ca0576c979606f46740>@@PEBD_K@Z 000000018003e86c     node_printer_win.obj
 0002:0001388c       $unwind$??$_Reallocate_grow_by@V<lambda_b986da8d428e4af07c64af60eec09b61>@@_K_KD@?$basic_string@DU?$char_traits@D@std@@V?$allocator@D@2@@std@@QEAAAEAV01@_KV<lambda_b986da8d428e4af07c64af60eec09b61>@@_K2D@Z 000000018003e88c     node_printer_win.obj
 0002:0001389c       $chain$3$??$_Reallocate_grow_by@V<lambda_b986da8d428e4af07c64af60eec09b61>@@_K_KD@?$basic_string@DU?$char_traits@D@std@@V?$allocator@D@2@@std@@QEAAAEAV01@_KV<lambda_b986da8d428e4af07c64af60eec09b61>@@_K2D@Z 000000018003e89c     node_printer_win.obj
 0002:000138bc       $chain$4$??$_Reallocate_grow_by@V<lambda_b986da8d428e4af07c64af60eec09b61>@@_K_KD@?$basic_string@DU?$char_traits@D@std@@V?$allocator@D@2@@std@@QEAAAEAV01@_KV<lambda_b986da8d428e4af07c64af60eec09b61>@@_K2D@Z 000000018003e8bc     node_printer_win.obj
 0002:000138cc       $chain$5$??$_Reallocate_grow_by@V<lambda_b986da8d428e4af07c64af60eec09b61>@@_K_KD@?$basic_string@DU?$char_traits@D@std@@V?$allocator@D@2@@std@@QEAAAEAV01@_KV<lambda_b986da8d428e4af07c64af60eec09b61>@@_K2D@Z 000000018003e8cc     node_printer_win.obj
 0002:000138ec       $unwind$?_Getcat@?$numpunct@D@std@@SA_KPEAPEBVfacet@locale@2@PEBV42@@Z 000000018003e8ec     node_printer_win.obj
 0002:00013904       $unwind$??$_Insert_nohint@AEAU?$pair@$$CBV?$basic_string@DU?$char_traits@D@std@@V?$allocator@D@2@@std@@K@std@@PEAU?$_Tree_node@U?$pair@$$CBV?$basic_string@DU?$char_traits@D@std@@V?$allocator@D@2@@std@@K@std@@PEAX@2@@?$_Tree@V?$_Tmap_traits@V?$basic_string@DU?$char_traits@D@std@@V?$allocator@D@2@@std@@KU?$less@V?$basic_string@DU?$char_traits@D@std@@V?$allocator@D@2@@std@@@2@V?$allocator@U?$pair@$$CBV?$basic_string@DU?$char_traits@D@std@@V?$allocator@D@2@@std@@K@std@@@2@$0A@@std@@@std@@IEAA?AU?$pair@V?$_Tree_iterator@V?$_Tree_val@U?$_Tree_simple_types@U?$pair@$$CBV?$basic_string@DU?$char_traits@D@std@@V?$allocator@D@2@@std@@K@std@@@std@@@std@@@std@@_N@1@_NAEAU?$pair@$$CBV?$basic_string@DU?$char_traits@D@std@@V?$allocator@D@2@@std@@K@1@PEAU?$_Tree_node@U?$pair@$$CBV?$basic_string@DU?$char_traits@D@std@@V?$allocator@D@2@@std@@K@std@@PEAX@1@@Z 000000018003e904     node_printer_win.obj
 0002:00013920       $unwind$??$_Insert_at@AEAU?$pair@$$CBV?$basic_string@DU?$char_traits@D@std@@V?$allocator@D@2@@std@@K@std@@PEAU?$_Tree_node@U?$pair@$$CBV?$basic_string@DU?$char_traits@D@std@@V?$allocator@D@2@@std@@K@std@@PEAX@2@@?$_Tree@V?$_Tmap_traits@V?$basic_string@DU?$char_traits@D@std@@V?$allocator@D@2@@std@@KU?$less@V?$basic_string@DU?$char_traits@D@std@@V?$allocator@D@2@@std@@@2@V?$allocator@U?$pair@$$CBV?$basic_string@DU?$char_traits@D@std@@V?$allocator@D@2@@std@@K@std@@@2@$0A@@std@@@std@@IEAA?AV?$_Tree_iterator@V?$_Tree_val@U?$_Tree_simple_types@U?$pair@$$CBV?$basic_string@DU?$char_traits@D@std@@V?$allocator@D@2@@std@@K@std@@@std@@@std@@@1@_NPEAU?$_Tree_node@U?$pair@$$CBV?$basic_string@DU?$char_traits@D@std@@V?$allocator@D@2@@std@@K@std@@PEAX@1@AEAU?$pair@$$CBV?$basic_string@DU?$char_traits@D@std@@V?$allocator@D@2@@std@@K@1@1@Z 000000018003e920     node_printer_win.obj
 0002:00013928       $chain$0$??$_Insert_at@AEAU?$pair@$$CBV?$basic_string@DU?$char_traits@D@std@@V?$allocator@D@2@@std@@K@std@@PEAU?$_Tree_node@U?$pair@$$CBV?$basic_string@DU?$char_traits@D@std@@V?$allocator@D@2@@std@@K@std@@PEAX@2@@?$_Tree@V?$_Tmap_traits@V?$basic_string@DU?$char_traits@D@std@@V?$allocator@D@2@@std@@KU?$less@V?$basic_string@DU?$char_traits@D@std@@V?$allocator@D@2@@std@@@2@V?$allocator@U?$pair@$$CBV?$basic_string@DU?$char_traits@D@std@@V?$allocator@D@2@@std@@K@std@@@2@$0A@@std@@@std@@IEAA?AV?$_Tree_iterator@V?$_Tree_val@U?$_Tree_simple_types@U?$pair@$$CBV?$basic_string@DU?$char_traits@D@std@@V?$allocator@D@2@@std@@K@std@@@std@@@std@@@1@_NPEAU?$_Tree_node@U?$pair@$$CBV?$basic_string@DU?$char_traits@D@std@@V?$allocator@D@2@@std@@K@std@@PEAX@1@AEAU?$pair@$$CBV?$basic_string@DU?$char_traits@D@std@@V?$allocator@D@2@@std@@K@1@1@Z 000000018003e928     node_printer_win.obj
 0002:0001393c       $chain$1$??$_Insert_at@AEAU?$pair@$$CBV?$basic_string@DU?$char_traits@D@std@@V?$allocator@D@2@@std@@K@std@@PEAU?$_Tree_node@U?$pair@$$CBV?$basic_string@DU?$char_traits@D@std@@V?$allocator@D@2@@std@@K@std@@PEAX@2@@?$_Tree@V?$_Tmap_traits@V?$basic_string@DU?$char_traits@D@std@@V?$allocator@D@2@@std@@KU?$less@V?$basic_string@DU?$char_traits@D@std@@V?$allocator@D@2@@std@@@2@V?$allocator@U?$pair@$$CBV?$basic_string@DU?$char_traits@D@std@@V?$allocator@D@2@@std@@K@std@@@2@$0A@@std@@@std@@IEAA?AV?$_Tree_iterator@V?$_Tree_val@U?$_Tree_simple_types@U?$pair@$$CBV?$basic_string@DU?$char_traits@D@std@@V?$allocator@D@2@@std@@K@std@@@std@@@std@@@1@_NPEAU?$_Tree_node@U?$pair@$$CBV?$basic_string@DU?$char_traits@D@std@@V?$allocator@D@2@@std@@K@std@@PEAX@1@AEAU?$pair@$$CBV?$basic_string@DU?$char_traits@D@std@@V?$allocator@D@2@@std@@K@1@1@Z 000000018003e93c     node_printer_win.obj
 0002:0001394c       $unwind$?MySetPrinter@@YAHPEADFFF@Z 000000018003e94c     setprinter.obj
 0002:00013968       xdata                      000000018003e968     node:node.exe
 0002:00013970       $unwind$?__scrt_throw_std_bad_array_new_length@@YAXXZ 000000018003e970     LIBCMT:throw_bad_alloc.obj
 0002:00013970       $unwind$?_Xlength_error@std@@YAXPEBD@Z 000000018003e970     libcpmt:xthrow.obj
 0002:00013970       $unwind$?_Xout_of_range@std@@YAXPEBD@Z 000000018003e970     libcpmt:xthrow.obj
 0002:00013970       $unwind$?__scrt_throw_std_bad_alloc@@YAXXZ 000000018003e970     LIBCMT:throw_bad_alloc.obj
 0002:00013970       $unwind$?_Xbad_alloc@std@@YAXXZ 000000018003e970     libcpmt:xthrow.obj
 0002:00013970       $unwind$_raise_excf        000000018003e970     libucrt:fpexcept.obj
 0002:00013970       $unwind$_raise_exc         000000018003e970     libucrt:fpexcept.obj
 0002:00013978       $unwind$??1_Fac_tidy_reg_t@std@@QEAA@XZ 000000018003e978     libcpmt:locale0.obj
 0002:00013988       $stateUnwindMap$?_Ios_base_dtor@ios_base@std@@CAXPEAV12@@Z 000000018003e988     libcpmt:ios.obj
 0002:00013988       $stateUnwindMap$?__scrt_initialize_thread_safe_statics@@YAHXZ 000000018003e988     LIBCMT:thread_safe_statics.obj
 0002:00013988       $stateUnwindMap$??_G_Locimp@locale@std@@MEAAPEAXI@Z 000000018003e988     libcpmt:locale0.obj
 0002:00013988       $stateUnwindMap$??__Fclassic_locale@std@@YAXXZ 000000018003e988     libcpmt:locale0.obj
 0002:00013988       $stateUnwindMap$??1_Fac_tidy_reg_t@std@@QEAA@XZ 000000018003e988     libcpmt:locale0.obj
 0002:00013988       $stateUnwindMap$??__Finit_atexit@@YAXXZ 000000018003e988     libcpmt:iosptrs.obj
 0002:00013990       $ip2state$??1_Fac_tidy_reg_t@std@@QEAA@XZ 000000018003e990     libcpmt:locale0.obj
 0002:00013998       $unwind$?_Locimp_dtor@_Locimp@locale@std@@CAXPEAV123@@Z 000000018003e998     libcpmt:locale0.obj
 0002:000139ac       $stateUnwindMap$?_Locimp_dtor@_Locimp@locale@std@@CAXPEAV123@@Z 000000018003e9ac     libcpmt:locale0.obj
 0002:000139ac       $stateUnwindMap$?_Init@locale@std@@CAPEAV_Locimp@12@_N@Z 000000018003e9ac     libcpmt:locale0.obj
 0002:000139b8       $ip2state$?_Locimp_dtor@_Locimp@locale@std@@CAXPEAV123@@Z 000000018003e9b8     libcpmt:locale0.obj
 0002:000139c8       $unwind$??_G_Locimp@locale@std@@MEAAPEAXI@Z 000000018003e9c8     libcpmt:locale0.obj
 0002:000139e0       $ip2state$??_G_Locimp@locale@std@@MEAAPEAXI@Z 000000018003e9e0     libcpmt:locale0.obj
 0002:000139e8       $unwind$?_Init@locale@std@@CAPEAV_Locimp@12@_N@Z 000000018003e9e8     libcpmt:locale0.obj
 0002:00013a00       $ip2state$?_Init@locale@std@@CAPEAV_Locimp@12@_N@Z 000000018003ea00     libcpmt:locale0.obj
 0002:00013a18       $unwind$??__Fclassic_locale@std@@YAXXZ 000000018003ea18     libcpmt:locale0.obj
 0002:00013a28       $ip2state$??__Fclassic_locale@std@@YAXXZ 000000018003ea28     libcpmt:locale0.obj
 0002:00013a30       $unwind$?_Ios_base_dtor@ios_base@std@@CAXPEAV12@@Z 000000018003ea30     libcpmt:ios.obj
 0002:00013a40       $ip2state$?_Ios_base_dtor@ios_base@std@@CAXPEAV12@@Z 000000018003ea40     libcpmt:ios.obj
 0002:00013a50       $unwind$_Tolower           000000018003ea50     libcpmt:_tolower.obj
 0002:00013a60       $unwind$_Toupper           000000018003ea60     libcpmt:_toupper.obj
 0002:00013a74       $unwind$__acrt_get_qualified_locale 000000018003ea74     libucrt:get_qualified_locale.obj
 0002:00013a74       $unwind$__crtInitOnceExecuteOnce 000000018003ea74     libcpmt:winapisupp.obj
 0002:00013a90       $unwind$??__Finit_atexit@@YAXXZ 000000018003ea90     libcpmt:iosptrs.obj
 0002:00013aa0       $ip2state$??__Finit_atexit@@YAXXZ 000000018003eaa0     libcpmt:iosptrs.obj
 0002:00013aa8       $unwind$__crtLCMapStringA  000000018003eaa8     libcpmt:StlLCMapStringA.obj
 0002:00013ad0       $unwind$__crtLCMapStringEx 000000018003ead0     libcpmt:winapinls.obj
 0002:00013ae0       $xdatasym                  000000018003eae0     LIBCMT:amdsecgs.obj
 0002:00013ae4       $unwind$?__scrt_initialize_thread_safe_statics@@YAHXZ 000000018003eae4     LIBCMT:thread_safe_statics.obj
 0002:00013b00       $ip2state$?__scrt_initialize_thread_safe_statics@@YAHXZ 000000018003eb00     LIBCMT:thread_safe_statics.obj
 0002:00013b08       $unwind$__scrt_is_nonwritable_in_current_image 000000018003eb08     LIBCMT:utility.obj
 0002:00013b28       $unwind$__scrt_is_nonwritable_in_current_image$filt$0 000000018003eb28     LIBCMT:utility.obj
 0002:00013b30       $unwind$__scrt_initialize_onexit_tables 000000018003eb30     LIBCMT:utility.obj
 0002:00013b30       $unwind$?getSystemCP@@YAHH@Z 000000018003eb30     libucrt:mbctype.obj
 0002:00013b30       $unwind$_isleadbyte_l      000000018003eb30     libucrt:_wctype.obj
 0002:00013b30       $unwind$__dcrt_lowio_ensure_console_output_initialized 000000018003eb30     libucrt:initcon.obj
 0002:00013b38       $unwind$?GetHandlerSearchState@__FrameHandler3@@SAHPEA_KPEAU_xDISPATCHER_CONTEXT@@PEBU_s_FuncInfo@@@Z 000000018003eb38     libvcruntime:frame.obj
 0002:00013b38       $unwind$?Is_bad_exception_allowed@@YAEPEBU_s_ESTypeList@@@Z 000000018003eb38     libvcruntime:frame.obj
 0002:00013b38       $unwind$_recalloc_base     000000018003eb38     libucrt:recalloc.obj
 0002:00013b38       $unwind$??$ensure_buffer_is_big_enough@D@formatting_buffer@__crt_stdio_output@@QEAA_N_K@Z 000000018003eb38     libucrt:output.obj
 0002:00013b38       $unwind$?setSBCS@@YAXPEAU__crt_multibyte_data@@@Z 000000018003eb38     libucrt:mbctype.obj
 0002:00013b38       $unwind$__scrt_dllmain_exception_filter 000000018003eb38     LIBCMT:utility.obj
 0002:00013b38       $unwind$_initterm          000000018003eb38     libucrt:initterm.obj
 0002:00013b38       $unwind$_seh_filter_exe    000000018003eb38     libucrt:exception_filter.obj
 0002:00013b38       $unwind$__acrt_lowio_create_handle_array 000000018003eb38     libucrt:osfinfo.obj
 0002:00013b38       $unwind$__acrt_free_locale 000000018003eb38     libucrt:locale_refcounting.obj
 0002:00013b4c       $unwind$?dllmain_crt_process_attach@@YAHQEAUHINSTANCE__@@QEAX@Z 000000018003eb4c     LIBCMT:dll_dllmain.obj
 0002:00013b88       $unwind$?fin$0@?0???$?RV<lambda_bd00b5aa228bd7e7e5b2b5db5fd2933b>@@AEAV<lambda_777d11615145f89ee95b9466d285deeb>@@V<lambda_6e5e48fbd24f9f8f81b203eb3d877683>@@@?$__crt_seh_guarded_call@H@@QEAAH$$QEAV<lambda_bd00b5aa228bd7e7e5b2b5db5fd2933b>@@AEAV<lambda_777d11615145f89ee95b9466d285deeb>@@$$QEAV<lambda_6e5e48fbd24f9f8f81b203eb3d877683>@@@Z@4HA 000000018003eb88     libucrt:winapi_thunks.obj
 0002:00013b88       $unwind$__acrt_initialize_lowio$fin$0 000000018003eb88     libucrt:ioinit.obj
 0002:00013b88       $unwind$?fin$0@?0???$?RV<lambda_9bd929c17696992ce54f1d748594fc62>@@AEAV<lambda_082c17da81b0962e08c0587ee0fac50c>@@V<lambda_9c08ac857f4975304d44e9f601d9b878>@@@?$__crt_seh_guarded_call@PEAD@@QEAAPEAD$$QEAV<lambda_9bd929c17696992ce54f1d748594fc62>@@AEAV<lambda_082c17da81b0962e08c0587ee0fac50c>@@$$QEAV<lambda_9c08ac857f4975304d44e9f601d9b878>@@@Z@4HA 000000018003eb88     libucrt:setlocale.obj
 0002:00013b88       $unwind$?fin$0@?0???$?RV<lambda_2d41944a1d46af3157314b8a01080d33>@@AEAV<lambda_8f455de75cd7d7f24b4096f044d8b9e6>@@V<lambda_aa500f224e6afead328df44964fe2772>@@@?$__crt_seh_guarded_call@X@@QEAAX$$QEAV<lambda_2d41944a1d46af3157314b8a01080d33>@@AEAV<lambda_8f455de75cd7d7f24b4096f044d8b9e6>@@$$QEAV<lambda_aa500f224e6afead328df44964fe2772>@@@Z@4HA 000000018003eb88     libucrt:per_thread_data.obj
 0002:00013b88       $unwind$_ctrlfp$filt$0     000000018003eb88     libucrt:fpctrl.obj
 0002:00013b88       $unwind$?filt$0@?0??CxxCallCatchBlock@__FrameHandler3@@SAPEAXPEAU_EXCEPTION_RECORD@@@Z@4HA 000000018003eb88     libvcruntime:frame.obj
 0002:00013b88       $unwind$_fcloseall$fin$0   000000018003eb88     libucrt:closeall.obj
 0002:00013b88       $unwind$?fin$0@?0???$?RV<lambda_f2e299630e499de9f9a165e60fcd3db5>@@AEAV<lambda_2ae9d31cdba2644fcbeaf08da7c24588>@@V<lambda_40d01ff24d0e7b3814fdbdcee8eab3c7>@@@?$__crt_seh_guarded_call@X@@QEAAX$$QEAV<lambda_f2e299630e499de9f9a165e60fcd3db5>@@AEAV<lambda_2ae9d31cdba2644fcbeaf08da7c24588>@@$$QEAV<lambda_40d01ff24d0e7b3814fdbdcee8eab3c7>@@@Z@4HA 000000018003eb88     libucrt:per_thread_data.obj
 0002:00013b88       $unwind$?fin$0@?0??dllmain_crt_process_attach@@YAHQEAUHINSTANCE__@@QEAX@Z@4HA 000000018003eb88     LIBCMT:dll_dllmain.obj
 0002:00013b88       $unwind$?filt$0@?0???R<lambda_6e4b09c48022b2350581041d5f6b0c4c>@@QEBA@XZ@4HA 000000018003eb88     libucrt:exit.obj
 0002:00013b88       $unwind$?fin$0@?0???$?RV<lambda_842d9ff0dc9ef11c61343bbaebe7f885>@@AEAV<lambda_c5860995281e5c4ce005b3de8f5874ee>@@V<lambda_d90129c13df834fdcbf8d2b88dafcf2d>@@@?$__crt_seh_guarded_call@X@@QEAAX$$QEAV<lambda_842d9ff0dc9ef11c61343bbaebe7f885>@@AEAV<lambda_c5860995281e5c4ce005b3de8f5874ee>@@$$QEAV<lambda_d90129c13df834fdcbf8d2b88dafcf2d>@@@Z@4HA 000000018003eb88     libucrt:fflush.obj
 0002:00013b88       $unwind$?fin$0@?0???$?RV<lambda_a37b2b86f63e897a80ea819b0eb08c01>@@AEAV<lambda_38ce7e780aa69e748d6df282ebc68efe>@@V<lambda_99fb1378e971ab6e7edea83e3a7a83a2>@@@?$__crt_seh_guarded_call@H@@QEAAH$$QEAV<lambda_a37b2b86f63e897a80ea819b0eb08c01>@@AEAV<lambda_38ce7e780aa69e748d6df282ebc68efe>@@$$QEAV<lambda_99fb1378e971ab6e7edea83e3a7a83a2>@@@Z@4HA 000000018003eb88     libucrt:commit.obj
 0002:00013b88       $unwind$__acrt_lowio_ensure_fh_exists$fin$0 000000018003eb88     libucrt:osfinfo.obj
 0002:00013b88       $unwind$?fin$0@?0??dllmain_crt_process_detach@@YAH_N@Z@4HA 000000018003eb88     LIBCMT:dll_dllmain.obj
 0002:00013b88       $unwind$?fin$0@?0???$?RV<lambda_886d6c58226a84441f68b9f2b8217b83>@@AEAV<lambda_ab61a845afdef5b7c387490eaf3616ee>@@V<lambda_f7f22ab5edc0698d5f6905b0d3f44752>@@@?$__crt_seh_guarded_call@X@@QEAAX$$QEAV<lambda_886d6c58226a84441f68b9f2b8217b83>@@AEAV<lambda_ab61a845afdef5b7c387490eaf3616ee>@@$$QEAV<lambda_f7f22ab5edc0698d5f6905b0d3f44752>@@@Z@4HA 000000018003eb88     libucrt:fflush.obj
 0002:00013b88       $unwind$?fin$0@?0???$?RV<lambda_751a882b2c74d4b022dec766aa51a29a>@@AEAV<lambda_628dfdc04ba53c8bfc02c9951375f3f5>@@V<lambda_f6c7be5f7998530c34de24c7437d6b54>@@@?$__crt_seh_guarded_call@H@@QEAAH$$QEAV<lambda_751a882b2c74d4b022dec766aa51a29a>@@AEAV<lambda_628dfdc04ba53c8bfc02c9951375f3f5>@@$$QEAV<lambda_f6c7be5f7998530c34de24c7437d6b54>@@@Z@4HA 000000018003eb88     libucrt:close.obj
 0002:00013b88       $unwind$?fin$1@?0??FrameUnwindToState@__FrameHandler3@@SAXPEA_KPEAU_xDISPATCHER_CONTEXT@@PEBU_s_FuncInfo@@H@Z@4HA 000000018003eb88     libvcruntime:frame.obj
 0002:00013b88       $unwind$?fin$0@?0???$?RV<lambda_d80eeec6fff315bfe5c115232f3240e3>@@AEAV<lambda_6e4b09c48022b2350581041d5f6b0c4c>@@V<lambda_2358e3775559c9db80273638284d5e45>@@@?$__crt_seh_guarded_call@X@@QEAAX$$QEAV<lambda_d80eeec6fff315bfe5c115232f3240e3>@@AEAV<lambda_6e4b09c48022b2350581041d5f6b0c4c>@@$$QEAV<lambda_2358e3775559c9db80273638284d5e45>@@@Z@4HA 000000018003eb88     libucrt:exit.obj
 0002:00013b88       $unwind$?fin$0@?0???$?RV<lambda_410d79af7f07d98d83a3f525b3859a53>@@AEAV<lambda_3e16ef9562a7dcce91392c22ab16ea36>@@V<lambda_38119f0e861e05405d8a144b9b982f0a>@@@?$__crt_seh_guarded_call@X@@QEAAX$$QEAV<lambda_410d79af7f07d98d83a3f525b3859a53>@@AEAV<lambda_3e16ef9562a7dcce91392c22ab16ea36>@@$$QEAV<lambda_38119f0e861e05405d8a144b9b982f0a>@@@Z@4HA 000000018003eb88     libucrt:wsetlocale.obj
 0002:00013b88       $unwind$?filt$0@?0??FrameUnwindToState@__FrameHandler3@@SAXPEA_KPEAU_xDISPATCHER_CONTEXT@@PEBU_s_FuncInfo@@H@Z@4HA 000000018003eb88     libvcruntime:frame.obj
 0002:00013b88       $unwind$raise$fin$0        000000018003eb88     libucrt:signal.obj
 0002:00013b88       $unwind$?fin$0@?0???$?RV<lambda_638799b9deba96c50f710eeac98168cd>@@AEAV<lambda_22ebabd17bc4fa466a2aca6d8deb888d>@@V<lambda_a6f7d7db0129f75315ebf26d50c089f1>@@@?$__crt_seh_guarded_call@H@@QEAAH$$QEAV<lambda_638799b9deba96c50f710eeac98168cd>@@AEAV<lambda_22ebabd17bc4fa466a2aca6d8deb888d>@@$$QEAV<lambda_a6f7d7db0129f75315ebf26d50c089f1>@@@Z@4HA 000000018003eb88     libucrt:onexit.obj
 0002:00013b88       $unwind$_query_new_handler$fin$0 000000018003eb88     libucrt:new_handler.obj
 0002:00013b88       $unwind$?fin$0@?0???$?RV<lambda_0ae27a3a962d80f24befdcbee591983d>@@AEAV<lambda_8d0ee55de4b1038c4002e0adecdf1839>@@V<lambda_dc504788e8f1664fe9b84e20bfb512f2>@@@?$__crt_seh_guarded_call@X@@QEAAX$$QEAV<lambda_0ae27a3a962d80f24befdcbee591983d>@@AEAV<lambda_8d0ee55de4b1038c4002e0adecdf1839>@@$$QEAV<lambda_dc504788e8f1664fe9b84e20bfb512f2>@@@Z@4HA 000000018003eb88     libucrt:per_thread_data.obj
 0002:00013b88       $unwind$?fin$0@?0???$?RV<lambda_aa87e3671a710a21b5dc78c0bdf72e11>@@AEAV<lambda_92619d2358a28f41a33ba319515a20b9>@@V<lambda_6992ecaafeb10aed2b74cb1fae11a551>@@@?$__crt_seh_guarded_call@X@@QEAAX$$QEAV<lambda_aa87e3671a710a21b5dc78c0bdf72e11>@@AEAV<lambda_92619d2358a28f41a33ba319515a20b9>@@$$QEAV<lambda_6992ecaafeb10aed2b74cb1fae11a551>@@@Z@4HA 000000018003eb88     libucrt:per_thread_data.obj
 0002:00013b88       $unwind$__DestructExceptionObject$filt$0 000000018003eb88     libvcruntime:ehhelpers.obj
 0002:00013b88       $unwind$fclose$fin$0       000000018003eb88     libucrt:fclose.obj
 0002:00013b88       $unwind$?fin$0@?0???$?RV<lambda_1d892b297fdedeee07ed8124eeb2f2fa>@@AEAV<lambda_ffc046909424fd52df0ac47e64813305>@@V<lambda_01a7098693036236037e7cdb9bca3d73>@@@?$__crt_seh_guarded_call@X@@QEAAX$$QEAV<lambda_1d892b297fdedeee07ed8124eeb2f2fa>@@AEAV<lambda_ffc046909424fd52df0ac47e64813305>@@$$QEAV<lambda_01a7098693036236037e7cdb9bca3d73>@@@Z@4HA 000000018003eb88     libucrt:wsetlocale.obj
 0002:00013b88       $unwind$?fin$0@?0???$?RV<lambda_efdfa57d1f175319df784efa44bb7b81>@@AEAV<lambda_5f0a4c1567f8adc6734073e5d1e1b35c>@@V<lambda_2e8a7d3640ea6ccb4c2413664c2db6fd>@@@?$__crt_seh_guarded_call@X@@QEAAX$$QEAV<lambda_efdfa57d1f175319df784efa44bb7b81>@@AEAV<lambda_5f0a4c1567f8adc6734073e5d1e1b35c>@@$$QEAV<lambda_2e8a7d3640ea6ccb4c2413664c2db6fd>@@@Z@4HA 000000018003eb88     libucrt:mbctype.obj
 0002:00013b88       $unwind$?fin$0@?0???$?RV<lambda_7777bce6b2f8c936911f934f8298dc43>@@AEAV<lambda_f03950bc5685219e0bcd2087efbe011e>@@V<lambda_3883c3dff614d5e0c5f61bb1ac94921c>@@@?$__crt_seh_guarded_call@H@@QEAAH$$QEAV<lambda_7777bce6b2f8c936911f934f8298dc43>@@AEAV<lambda_f03950bc5685219e0bcd2087efbe011e>@@$$QEAV<lambda_3883c3dff614d5e0c5f61bb1ac94921c>@@@Z@4HA 000000018003eb88     libucrt:onexit.obj
 0002:00013b88       $unwind$?fin$0@?0???$?RV<lambda_450d765d439847d4c735a33c368b5fc0>@@AEAV<lambda_44731a7d0e6d81c3e6aa82d741081786>@@V<lambda_601a2a7da3b7a96e9554ac7215c4b07c>@@@?$__crt_seh_guarded_call@P6AXH@Z@@QEAAP6AXH@Z$$QEAV<lambda_450d765d439847d4c735a33c368b5fc0>@@AEAV<lambda_44731a7d0e6d81c3e6aa82d741081786>@@$$QEAV<lambda_601a2a7da3b7a96e9554ac7215c4b07c>@@@Z@4HA 000000018003eb88     libucrt:signal.obj
 0002:00013b88       $unwind$?fin$0@?0???$?RV<lambda_7f2adfce497ff2baa965cd4f576ecfd1>@@AEAV<lambda_2a444430fde8c29194d880d93eed5e8f>@@AEAV<lambda_8dff2cf36a5417162780cd64fa2883ef>@@@?$__crt_seh_guarded_call@X@@QEAAX$$QEAV<lambda_7f2adfce497ff2baa965cd4f576ecfd1>@@AEAV<lambda_2a444430fde8c29194d880d93eed5e8f>@@AEAV<lambda_8dff2cf36a5417162780cd64fa2883ef>@@@Z@4HA 000000018003eb88     libucrt:wsetlocale.obj
 0002:00013b88       $unwind$_IsNonwritableInCurrentImage$filt$0 000000018003eb88     LIBCMT:pesect.obj
 0002:00013b88       $unwind$?fin$0@?0??update_thread_multibyte_data_internal@@YAPEAU__crt_multibyte_data@@QEAU__acrt_ptd@@QEAPEAU1@@Z@4HA 000000018003eb88     libucrt:mbctype.obj
 0002:00013b88       $unwind$_write$fin$0       000000018003eb88     libucrt:write.obj
 0002:00013b88       $unwind$__acrt_update_thread_locale_data$fin$0 000000018003eb88     libucrt:locale_refcounting.obj
 0002:00013b90       $unwind$?dllmain_crt_process_detach@@YAH_N@Z 000000018003eb90     LIBCMT:dll_dllmain.obj
 0002:00013bc8       $unwind$?dllmain_dispatch@@YAHQEAUHINSTANCE__@@KQEAX@Z 000000018003ebc8     LIBCMT:dll_dllmain.obj
 0002:00013bf0       $unwind$?filt$0@?0??dllmain_dispatch@@YAHQEAUHINSTANCE__@@KQEAX@Z@4HA 000000018003ebf0     LIBCMT:dll_dllmain.obj
 0002:00013bf8       $unwind$__GSHandlerCheckCommon 000000018003ebf8     LIBCMT:gshandler.obj
 0002:00013bf8       $unwind$__acrt_WideCharToMultiByte 000000018003ebf8     libucrt:widechartomultibyte.obj
 0002:00013c00       $unwind$?initialize_stdio_handles_nolock@@YAXXZ 000000018003ec00     libucrt:ioinit.obj
 0002:00013c00       $unwind$__GSHandlerCheck_EH 000000018003ec00     LIBCMT:gshandlereh.obj
 0002:00013c00       $unwind$??$TypeMatchHelper@V__FrameHandler3@@@@YAHPEBU_s_HandlerType@@PEBU_s_CatchableType@@PEBU_s_ThrowInfo@@@Z 000000018003ec00     libvcruntime:frame.obj
 0002:00013c00       $unwind$__acrt_initialize_stdio 000000018003ec00     libucrt:_file.obj
 0002:00013c18       $xdatasym                  000000018003ec18     LIBCMT:chkstk.obj
 0002:00013c20       $unwind$__report_securityfailure 000000018003ec20     LIBCMT:gs_report.obj
 0002:00013c28       $unwind$__report_gsfailure 000000018003ec28     LIBCMT:gs_report.obj
 0002:00013c30       $unwind$capture_current_context 000000018003ec30     LIBCMT:gs_report.obj
 0002:00013c3c       $unwind$capture_previous_context 000000018003ec3c     LIBCMT:gs_report.obj
 0002:00013c48       $unwind$__scrt_fastfail    000000018003ec48     LIBCMT:utility_desktop.obj
 0002:00013c58       $unwind$__isa_available_init 000000018003ec58     LIBCMT:cpu_disp.obj
 0002:00013c68       $unwind$__security_init_cookie 000000018003ec68     LIBCMT:gs_support.obj
 0002:00013c78       $xdatasym                  000000018003ec78     LIBCMT:guard_dispatch.obj
 0002:00013c7c       $unwind$_wcstombs_s_l      000000018003ec7c     libucrt:wcstombs.obj
 0002:00013c7c       $unwind$__std_exception_copy 000000018003ec7c     libvcruntime:std_exception.obj
 0002:00013c7c       $unwind$_free_osfhnd       000000018003ec7c     libucrt:osfinfo.obj
 0002:00013c90       $unwind$_CxxThrowException 000000018003ec90     libvcruntime:throw.obj
 0002:00013ca0       $unwind$?GetEstablisherFrame@__FrameHandler3@@SAPEA_KPEA_KPEAU_xDISPATCHER_CONTEXT@@PEBU_s_FuncInfo@@0@Z 000000018003eca0     libvcruntime:risctrnsctrl.obj
 0002:00013cb8       $unwind$?UnwindNestedFrames@__FrameHandler3@@SAXPEA_KPEAUEHExceptionRecord@@PEAU_CONTEXT@@0PEAXPEBU_s_FuncInfo@@HHPEBU_s_HandlerType@@PEAU_xDISPATCHER_CONTEXT@@E@Z 000000018003ecb8     libvcruntime:risctrnsctrl.obj
 0002:00013ccc       $unwind$?GetRangeOfTrysToCheck@__FrameHandler3@@SA?AU?$pair@Viterator@TryBlockMap@__FrameHandler3@@V123@@std@@AEAVTryBlockMap@1@HH@Z 000000018003eccc     libvcruntime:risctrnsctrl.obj
 0002:00013ce4       $unwind$__CxxFrameHandler3 000000018003ece4     libvcruntime:risctrnsctrl.obj
 0002:00013cf4       $unwind$??$_CallSETranslator@V__FrameHandler3@@@@YAHPEAUEHExceptionRecord@@PEA_KPEAU_CONTEXT@@PEAU_xDISPATCHER_CONTEXT@@PEBU_s_FuncInfo@@K1@Z 000000018003ecf4     libvcruntime:risctrnsctrl.obj
 0002:00013d14       $unwind$?filt$0@?0???$_CallSETranslator@V__FrameHandler3@@@@YAHPEAUEHExceptionRecord@@PEA_KPEAU_CONTEXT@@PEAU_xDISPATCHER_CONTEXT@@PEBU_s_FuncInfo@@K1@Z@4HA 000000018003ed14     libvcruntime:risctrnsctrl.obj
 0002:00013d20       $xdatasym                  000000018003ed20     libvcruntime:memcpy.obj
 0002:00013d30       $xdatasym                  000000018003ed30     libvcruntime:memset.obj
 0002:00013d40       $unwind$__DestructExceptionObject 000000018003ed40     libvcruntime:ehhelpers.obj
 0002:00013d60       $xdatasym                  000000018003ed60     libvcruntime:memchr.obj
 0002:00013d68       $xdatasym                  000000018003ed68     libvcruntime:memcmp.obj
 0002:00013d6c       $unwind$__C_specific_handler 000000018003ed6c     libvcruntime:riscchandler.obj
 0002:00013d6c       $unwind$__acrt_locale_initialize_numeric 000000018003ed6c     libucrt:initnum.obj
 0002:00013d88       $unwind$?FrameUnwindToState@__FrameHandler3@@SAXPEA_KPEAU_xDISPATCHER_CONTEXT@@PEBU_s_FuncInfo@@H@Z 000000018003ed88     libvcruntime:frame.obj
 0002:00013dd4       $unwind$?CxxCallCatchBlock@__FrameHandler3@@SAPEAXPEAU_EXCEPTION_RECORD@@@Z 000000018003edd4     libvcruntime:frame.obj
 0002:00013e10       $unwind$?fin$1@?0??CxxCallCatchBlock@__FrameHandler3@@SAPEAXPEAU_EXCEPTION_RECORD@@@Z@4HA 000000018003ee10     libvcruntime:frame.obj
 0002:00013e1c       $unwind$?try_get_function@@YAPEAXW4function_id@?A0x391cf84c@@QEBDQEBW4module_id@2@2@Z 000000018003ee1c     libucrt:winapi_thunks.obj
 0002:00013e1c       $unwind$?IsInExceptionSpec@@YAEPEAUEHExceptionRecord@@PEBU_s_ESTypeList@@@Z 000000018003ee1c     libvcruntime:frame.obj
 0002:00013e1c       $unwind$?try_get_function@@YAPEAXW4function_id@?A0x14c33c87@@QEBDQEBW4module_id@2@2@Z 000000018003ee1c     libvcruntime:winapi_downlevel.obj
 0002:00013e38       $unwind$??$__InternalCxxFrameHandler@V__FrameHandler3@@@@YA?AW4_EXCEPTION_DISPOSITION@@PEAUEHExceptionRecord@@PEA_KPEAU_CONTEXT@@PEAU_xDISPATCHER_CONTEXT@@PEBU_s_FuncInfo@@H1E@Z 000000018003ee38     libvcruntime:frame.obj
 0002:00013e50       $unwind$??$BuildCatchObjectHelperInternal@V__FrameHandler3@@@@YAHPEAUEHExceptionRecord@@PEAXPEBU_s_HandlerType@@PEBU_s_CatchableType@@@Z 000000018003ee50     libvcruntime:frame.obj
 0002:00013e90       $unwind$??$BuildCatchObjectInternal@V__FrameHandler3@@@@YAXPEAUEHExceptionRecord@@PEAXPEBU_s_HandlerType@@PEBU_s_CatchableType@@@Z 000000018003ee90     libvcruntime:frame.obj
 0002:00013ebc       $unwind$??$FindHandler@V__FrameHandler3@@@@YAXPEAUEHExceptionRecord@@PEA_KPEAU_CONTEXT@@PEAU_xDISPATCHER_CONTEXT@@PEBU_s_FuncInfo@@EH1@Z 000000018003eebc     libvcruntime:frame.obj
 0002:00013ed8       $unwind$??$CatchIt@V__FrameHandler3@@@@YAXPEAUEHExceptionRecord@@PEA_KPEAU_CONTEXT@@PEAU_xDISPATCHER_CONTEXT@@PEBU_s_FuncInfo@@PEBU_s_HandlerType@@PEBU_s_CatchableType@@PEBU_s_TryBlockMapEntry@@H1EE@Z 000000018003eed8     libvcruntime:frame.obj
 0002:00013ef0       $unwind$??$FindHandlerForForeignException@V__FrameHandler3@@@@YAXPEAUEHExceptionRecord@@PEA_KPEAU_CONTEXT@@PEAU_xDISPATCHER_CONTEXT@@PEBU_s_FuncInfo@@HH1@Z 000000018003eef0     libvcruntime:frame.obj
 0002:00013f0c       $unwind$__acrt_initialize_winapi_thunks 000000018003ef0c     libucrt:winapi_thunks.obj
 0002:00013f0c       $unwind$__vcrt_initialize_winapi_thunks 000000018003ef0c     libvcruntime:winapi_downlevel.obj
 0002:00013f14       $unwind$__vcrt_uninitialize_winapi_thunks 000000018003ef14     libvcruntime:winapi_downlevel.obj
 0002:00013f20       $xdatasym                  000000018003ef20     libvcruntime:notify.obj
 0002:00013f30       $xdatasym                  000000018003ef30     libvcruntime:handlers.obj
 0002:00013f40       $unwind$__acrt_call_reportfault 000000018003ef40     libucrt:invalid_parameter.obj
 0002:00013f60       $unwind$strcspn            000000018003ef60     libucrt:strcspn.obj
 0002:00013f60       $unwind$_invalid_parameter 000000018003ef60     libucrt:invalid_parameter.obj
 0002:00013f60       $unwind$__acrt_GetLocaleInfoEx 000000018003ef60     libucrt:winapi_thunks.obj
 0002:00013f60       $unwind$__acrt_LCIDToLocaleName 000000018003ef60     libucrt:winapi_thunks.obj
 0002:00013f60       $unwind$_wcsdup            000000018003ef60     libucrt:wcsdup.obj
 0002:00013f60       $unwind$__lc_lctowcs       000000018003ef60     libucrt:wsetlocale.obj
 0002:00013f60       $unwind$__acrt_DownlevelLCIDToLocaleName 000000018003ef60     libucrt:lcidtoname_downlevel.obj
 0002:00013f74       $unwind$fallbackMethod     000000018003ef74     libucrt:strcspn.obj
 0002:00013f74       $unwind$fallbackMethod     000000018003ef74     libucrt:strpbrk.obj
 0002:00013f84       $unwind$?write_string@?$string_output_adapter@D@__crt_stdio_output@@QEBAXQEBDHQEAHAEAV__crt_deferred_errno_cache@@@Z 000000018003ef84     libucrt:output.obj
 0002:00013f9c       $unwind$??$common_vsprintf@Vformat_validation_base@__crt_stdio_output@@D@@YAH_KQEAD0QEBDQEAU__crt_locale_pointers@@1@Z 000000018003ef9c     libucrt:output.obj
 0002:00013fbc       $unwind$??$write_multiple_characters@V?$string_output_adapter@D@__crt_stdio_output@@D@__crt_stdio_output@@YAXAEBV?$string_output_adapter@D@0@DHQEAH@Z 000000018003efbc     libucrt:output.obj
 0002:00013fc8       $unwind$?process@?$output_processor@DV?$string_output_adapter@D@__crt_stdio_output@@V?$format_validation_base@DV?$string_output_adapter@D@__crt_stdio_output@@@2@@__crt_stdio_output@@QEAAHXZ 000000018003efc8     libucrt:output.obj
 0002:00013fdc       $unwind$?parse_int_from_format_string@?$output_processor@DV?$string_output_adapter@D@__crt_stdio_output@@V?$format_validation_base@DV?$string_output_adapter@D@__crt_stdio_output@@@2@@__crt_stdio_output@@AEAA_NQEAH@Z 000000018003efdc     libucrt:output.obj
 0002:00013ff0       $unwind$?state_case_type@?$output_processor@DV?$string_output_adapter@D@__crt_stdio_output@@V?$format_validation_base@DV?$string_output_adapter@D@__crt_stdio_output@@@2@@__crt_stdio_output@@AEAA_NXZ 000000018003eff0     libucrt:output.obj
 0002:00014008       $unwind$?type_case_a@?$output_processor@DV?$string_output_adapter@D@__crt_stdio_output@@V?$format_validation_base@DV?$string_output_adapter@D@__crt_stdio_output@@@2@@__crt_stdio_output@@AEAA_NXZ 000000018003f008     libucrt:output.obj
 0002:00014014       $unwind$?write_stored_string_tchar@?$output_processor@DV?$string_output_adapter@D@__crt_stdio_output@@V?$format_validation_base@DV?$string_output_adapter@D@__crt_stdio_output@@@2@@__crt_stdio_output@@AEAA_ND@Z 000000018003f014     libucrt:output.obj
 0002:0001402c       $unwind$??$type_case_integer_parse_into_buffer@_K@?$output_processor@DV?$string_output_adapter@D@__crt_stdio_output@@V?$format_validation_base@DV?$string_output_adapter@D@__crt_stdio_output@@@2@@__crt_stdio_output@@AEAAX_KI_N@Z 000000018003f02c     libucrt:output.obj
 0002:0001402c       $unwind$??$type_case_integer_parse_into_buffer@I@?$output_processor@DV?$string_output_adapter@D@__crt_stdio_output@@V?$format_validation_base@DV?$string_output_adapter@D@__crt_stdio_output@@@2@@__crt_stdio_output@@AEAAXII_N@Z 000000018003f02c     libucrt:output.obj
 0002:00014034       $unwind$frexp              000000018003f034     libucrt:frexp.obj
 0002:00014048       $unwind$_stricmp_l         000000018003f048     libucrt:stricmp.obj
 0002:00014048       $unwind$?x_ismbbtype_l@@YAHPEAU__crt_locale_pointers@@IHH@Z 000000018003f048     libucrt:ismbbyte.obj
 0002:00014058       $unwind$terminate          000000018003f058     libucrt:terminate.obj
 0002:00014078       $unwind$setlocale          000000018003f078     libucrt:setlocale.obj
 0002:00014080       $unwind$??R<lambda_082c17da81b0962e08c0587ee0fac50c>@@QEBAPEADXZ 000000018003f080     libucrt:setlocale.obj
 0002:00014098       $unwind$??$?RV<lambda_9bd929c17696992ce54f1d748594fc62>@@AEAV<lambda_082c17da81b0962e08c0587ee0fac50c>@@V<lambda_9c08ac857f4975304d44e9f601d9b878>@@@?$__crt_seh_guarded_call@PEAD@@QEAAPEAD$$QEAV<lambda_9bd929c17696992ce54f1d748594fc62>@@AEAV<lambda_082c17da81b0962e08c0587ee0fac50c>@@$$QEAV<lambda_9c08ac857f4975304d44e9f601d9b878>@@@Z 000000018003f098     libucrt:setlocale.obj
 0002:000140bc       $unwind$isdigit            000000018003f0bc     libucrt:_ctype.obj
 0002:000140bc       $unwind$_mbsdec_l          000000018003f0bc     libucrt:mbsdec.obj
 0002:000140bc       $unwind$isupper            000000018003f0bc     libucrt:_ctype.obj
 0002:000140bc       $unwind$islower            000000018003f0bc     libucrt:_ctype.obj
 0002:000140c8       $unwind$__acrt_locale_initialize_ctype 000000018003f0c8     libucrt:initctype.obj
 0002:000140f0       $unwind$?divide@__crt_strtox@@YA_KAEAUbig_integer@1@AEBU21@@Z 000000018003f0f0     libucrt:strtod.obj
 0002:00014108       $chain$0$?divide@__crt_strtox@@YA_KAEAUbig_integer@1@AEBU21@@Z 000000018003f108     libucrt:strtod.obj
 0002:0001411c       $chain$1$?divide@__crt_strtox@@YA_KAEAUbig_integer@1@AEBU21@@Z 000000018003f11c     libucrt:strtod.obj
 0002:00014130       $xdatasym                  000000018003f130     libucrt:pow.obj
 0002:00014140       $xdatasym                  000000018003f140     libucrt:powf.obj
 0002:00014150       $unwind$??$__acrt_mbs_to_wcs_cp@U__crt_win32_buffer_internal_dynamic_resizing@@@@YAHQEBDAEAV?$__crt_win32_buffer@_WU__crt_win32_buffer_internal_dynamic_resizing@@@@I@Z 000000018003f150     libucrt:strftime.obj
 0002:00014168       $unwind$??$__acrt_wcs_to_mbs_cp@U__crt_win32_buffer_no_resizing@@@@YAHQEB_WAEAV?$__crt_win32_buffer@DU__crt_win32_buffer_no_resizing@@@@I@Z 000000018003f168     libucrt:strftime.obj
 0002:00014168       $unwind$_wcsicmp_l         000000018003f168     libucrt:wcsicmp.obj
 0002:00014168       $unwind$__dcrt_write_console 000000018003f168     libucrt:initcon.obj
 0002:0001417c       $unwind$_tolower_l         000000018003f17c     libucrt:tolower_toupper.obj
 0002:0001418c       $unwind$_query_new_handler 000000018003f18c     libucrt:new_handler.obj
 0002:000141ac       $unwind$?common_exit@@YAXHW4_crt_exit_cleanup_mode@@W4_crt_exit_return_mode@@@Z 000000018003f1ac     libucrt:exit.obj
 0002:000141b8       $unwind$??R<lambda_6e4b09c48022b2350581041d5f6b0c4c>@@QEBA@XZ 000000018003f1b8     libucrt:exit.obj
 0002:000141d8       $unwind$??$?RV<lambda_d80eeec6fff315bfe5c115232f3240e3>@@AEAV<lambda_6e4b09c48022b2350581041d5f6b0c4c>@@V<lambda_2358e3775559c9db80273638284d5e45>@@@?$__crt_seh_guarded_call@X@@QEAAX$$QEAV<lambda_d80eeec6fff315bfe5c115232f3240e3>@@AEAV<lambda_6e4b09c48022b2350581041d5f6b0c4c>@@$$QEAV<lambda_2358e3775559c9db80273638284d5e45>@@@Z 000000018003f1d8     libucrt:exit.obj
 0002:000141fc       $unwind$_configure_narrow_argv 000000018003f1fc     libucrt:argv_parsing.obj
 0002:00014210       $unwind$??$parse_command_line@D@@YAXPEADPEAPEAD0PEA_K2@Z 000000018003f210     libucrt:argv_parsing.obj
 0002:00014210       $unwind$TranslateName      000000018003f210     libucrt:get_qualified_locale.obj
 0002:0001422c       $unwind$??$free_environment@_W@@YAXQEAPEA_W@Z 000000018003f22c     libucrt:environment_initialization.obj
 0002:0001422c       $unwind$??$free_environment@D@@YAXQEAPEAD@Z 000000018003f22c     libucrt:environment_initialization.obj
 0002:00014238       $unwind$__lc_wcstolc       000000018003f238     libucrt:wsetlocale.obj
 0002:00014238       $unwind$??$create_environment@D@@YAQEAPEADQEAD@Z 000000018003f238     libucrt:environment_initialization.obj
 0002:00014250       $unwind$_register_onexit_function 000000018003f250     libucrt:onexit.obj
 0002:00014258       $unwind$_execute_onexit_table 000000018003f258     libucrt:onexit.obj
 0002:00014260       $unwind$??R<lambda_22ebabd17bc4fa466a2aca6d8deb888d>@@QEBAHXZ 000000018003f260     libucrt:onexit.obj
 0002:00014278       $unwind$??$?RV<lambda_638799b9deba96c50f710eeac98168cd>@@AEAV<lambda_22ebabd17bc4fa466a2aca6d8deb888d>@@V<lambda_a6f7d7db0129f75315ebf26d50c089f1>@@@?$__crt_seh_guarded_call@H@@QEAAH$$QEAV<lambda_638799b9deba96c50f710eeac98168cd>@@AEAV<lambda_22ebabd17bc4fa466a2aca6d8deb888d>@@$$QEAV<lambda_a6f7d7db0129f75315ebf26d50c089f1>@@@Z 000000018003f278     libucrt:onexit.obj
 0002:0001429c       $unwind$??$?RV<lambda_7777bce6b2f8c936911f934f8298dc43>@@AEAV<lambda_f03950bc5685219e0bcd2087efbe011e>@@V<lambda_3883c3dff614d5e0c5f61bb1ac94921c>@@@?$__crt_seh_guarded_call@H@@QEAAH$$QEAV<lambda_7777bce6b2f8c936911f934f8298dc43>@@AEAV<lambda_f03950bc5685219e0bcd2087efbe011e>@@$$QEAV<lambda_3883c3dff614d5e0c5f61bb1ac94921c>@@@Z 000000018003f29c     libucrt:onexit.obj
 0002:000142c0       $unwind$??$parse_integer@KV?$c_string_character_source@D@__crt_strtox@@@__crt_strtox@@YAKQEAU__crt_locale_pointers@@V?$c_string_character_source@D@0@H_N@Z 000000018003f2c0     libucrt:atox.obj
 0002:000142dc       $unwind$??$parse_integer@KV?$c_string_character_source@_W@__crt_strtox@@@__crt_strtox@@YAKQEAU__crt_locale_pointers@@V?$c_string_character_source@_W@0@H_N@Z 000000018003f2dc     libucrt:atox.obj
 0002:000142f8       $xdatasym                  000000018003f2f8     libucrt:strncmp.obj
 0002:000142fc       $unwind$_free_base         000000018003f2fc     libucrt:free_base.obj
 0002:000142fc       $unwind$__acrt_locale_free_lc_time_if_unreferenced 000000018003f2fc     libucrt:locale_refcounting.obj
 0002:000142fc       $unwind$?destroy_fls@@YAXPEAX@Z 000000018003f2fc     libucrt:per_thread_data.obj
 0002:000142fc       $unwind$__acrt_locale_free_numeric 000000018003f2fc     libucrt:initnum.obj
 0002:00014304       $unwind$?construct_ptd_array@@YAXQEAU__acrt_ptd@@@Z 000000018003f304     libucrt:per_thread_data.obj
 0002:0001430c       $unwind$?destroy_ptd_array@@YAXQEAU__acrt_ptd@@@Z 000000018003f30c     libucrt:per_thread_data.obj
 0002:00014314       $unwind$??$?RV<lambda_0ae27a3a962d80f24befdcbee591983d>@@AEAV<lambda_8d0ee55de4b1038c4002e0adecdf1839>@@V<lambda_dc504788e8f1664fe9b84e20bfb512f2>@@@?$__crt_seh_guarded_call@X@@QEAAX$$QEAV<lambda_0ae27a3a962d80f24befdcbee591983d>@@AEAV<lambda_8d0ee55de4b1038c4002e0adecdf1839>@@$$QEAV<lambda_dc504788e8f1664fe9b84e20bfb512f2>@@@Z 000000018003f314     libucrt:per_thread_data.obj
 0002:00014338       $unwind$??$?RV<lambda_aa87e3671a710a21b5dc78c0bdf72e11>@@AEAV<lambda_92619d2358a28f41a33ba319515a20b9>@@V<lambda_6992ecaafeb10aed2b74cb1fae11a551>@@@?$__crt_seh_guarded_call@X@@QEAAX$$QEAV<lambda_aa87e3671a710a21b5dc78c0bdf72e11>@@AEAV<lambda_92619d2358a28f41a33ba319515a20b9>@@$$QEAV<lambda_6992ecaafeb10aed2b74cb1fae11a551>@@@Z 000000018003f338     libucrt:per_thread_data.obj
 0002:0001435c       $unwind$??$?RV<lambda_f2e299630e499de9f9a165e60fcd3db5>@@AEAV<lambda_2ae9d31cdba2644fcbeaf08da7c24588>@@V<lambda_40d01ff24d0e7b3814fdbdcee8eab3c7>@@@?$__crt_seh_guarded_call@X@@QEAAX$$QEAV<lambda_f2e299630e499de9f9a165e60fcd3db5>@@AEAV<lambda_2ae9d31cdba2644fcbeaf08da7c24588>@@$$QEAV<lambda_40d01ff24d0e7b3814fdbdcee8eab3c7>@@@Z 000000018003f35c     libucrt:per_thread_data.obj
 0002:00014380       $unwind$??$?RV<lambda_2d41944a1d46af3157314b8a01080d33>@@AEAV<lambda_8f455de75cd7d7f24b4096f044d8b9e6>@@V<lambda_aa500f224e6afead328df44964fe2772>@@@?$__crt_seh_guarded_call@X@@QEAAX$$QEAV<lambda_2d41944a1d46af3157314b8a01080d33>@@AEAV<lambda_8f455de75cd7d7f24b4096f044d8b9e6>@@$$QEAV<lambda_aa500f224e6afead328df44964fe2772>@@@Z 000000018003f380     libucrt:per_thread_data.obj
 0002:000143a4       $unwind$__acrt_uninitialize_locale 000000018003f3a4     libucrt:wsetlocale.obj
 0002:000143a4       $unwind$__acrt_get_sigabrt_handler 000000018003f3a4     libucrt:signal.obj
 0002:000143ac       $unwind$raise              000000018003f3ac     libucrt:signal.obj
 0002:000143e8       $unwind$??$?RV<lambda_450d765d439847d4c735a33c368b5fc0>@@AEAV<lambda_44731a7d0e6d81c3e6aa82d741081786>@@V<lambda_601a2a7da3b7a96e9554ac7215c4b07c>@@@?$__crt_seh_guarded_call@P6AXH@Z@@QEAAP6AXH@Z$$QEAV<lambda_450d765d439847d4c735a33c368b5fc0>@@AEAV<lambda_44731a7d0e6d81c3e6aa82d741081786>@@$$QEAV<lambda_601a2a7da3b7a96e9554ac7215c4b07c>@@@Z 000000018003f3e8     libucrt:signal.obj
 0002:0001440c       $unwind$?fp_format_e@@YAHQEBNQEAD_K12H_NIQEAU__crt_locale_pointers@@@Z 000000018003f40c     libucrt:cvt.obj
 0002:0001440c       $unwind$_mbtowc_l          000000018003f40c     libucrt:mbtowc.obj
 0002:0001440c       $unwind$__acrt_LCMapStringW 000000018003f40c     libucrt:lcmapstringw.obj
 0002:0001440c       $unwind$__acrt_LCMapStringEx 000000018003f40c     libucrt:winapi_thunks.obj
 0002:00014420       $unwind$_wctomb_s_l        000000018003f420     libucrt:wctomb.obj
 0002:00014430       $unwind$__acrt_fp_format   000000018003f430     libucrt:cvt.obj
 0002:00014444       $unwind$?fp_format_nan_or_infinity@@YAHW4__acrt_fp_class@@_NPEAD_K1@Z 000000018003f444     libucrt:cvt.obj
 0002:00014458       $unwind$?fp_format_e_internal@@YAHQEAD_KH_NIQEAU_strflt@@2QEAU__crt_locale_pointers@@@Z 000000018003f458     libucrt:cvt.obj
 0002:00014470       $unwind$?fp_format_a@@YAHQEBNPEAD_KQEAD2H_NIQEAU__crt_locale_pointers@@@Z 000000018003f470     libucrt:cvt.obj
 0002:0001448c       $unwind$?fp_format_f_internal@@YAHQEAD_KHQEAU_strflt@@_NQEAU__crt_locale_pointers@@@Z 000000018003f48c     libucrt:cvt.obj
 0002:0001448c       $unwind$_wcsnicmp_l        000000018003f48c     libucrt:wcsnicmp.obj
 0002:0001448c       $unwind$??$__acrt_wcs_to_mbs_cp@U__crt_win32_buffer_internal_dynamic_resizing@@@@YAHQEB_WAEAV?$__crt_win32_buffer@DU__crt_win32_buffer_internal_dynamic_resizing@@@@I@Z 000000018003f48c     libucrt:argv_wildcards.obj
 0002:0001448c       $unwind$__dcrt_get_narrow_environment_from_os 000000018003f48c     libucrt:get_environment_from_os.obj
 0002:000144a4       $unwind$?fp_format_g@@YAHQEBNQEAD_K12H_NIQEAU__crt_locale_pointers@@@Z 000000018003f4a4     libucrt:cvt.obj
 0002:000144b8       $unwind$__acrt_copy_locale_name 000000018003f4b8     libucrt:wsetlocale.obj
 0002:000144b8       $unwind$strpbrk            000000018003f4b8     libucrt:strpbrk.obj
 0002:000144c8       $unwind$_wsetlocale        000000018003f4c8     libucrt:wsetlocale.obj
 0002:000144d0       $unwind$_expandlocale      000000018003f4d0     libucrt:wsetlocale.obj
 0002:000144f0       $unwind$_wcscats           000000018003f4f0     libucrt:wsetlocale.obj
 0002:00014500       $unwind$_wsetlocale_set_cat 000000018003f500     libucrt:wsetlocale.obj
 0002:00014500       $unwind$??$expand_argument_wildcards@D@@YAHQEAD0AEAV?$argument_list@D@?A0x5f5c8891@@@Z 000000018003f500     libucrt:argv_wildcards.obj
 0002:00014524       $unwind$??$copy_and_add_argument_to_buffer@D@@YAHQEBD0_KAEAV?$argument_list@D@?A0x5f5c8891@@@Z 000000018003f524     libucrt:argv_wildcards.obj
 0002:00014524       $unwind$_wsetlocale_get_all 000000018003f524     libucrt:wsetlocale.obj
 0002:00014540       $unwind$_wsetlocale_nolock 000000018003f540     libucrt:wsetlocale.obj
 0002:00014564       $unwind$??R<lambda_2a444430fde8c29194d880d93eed5e8f>@@QEBA@XZ 000000018003f564     libucrt:wsetlocale.obj
 0002:00014570       $unwind$??$?RV<lambda_410d79af7f07d98d83a3f525b3859a53>@@AEAV<lambda_3e16ef9562a7dcce91392c22ab16ea36>@@V<lambda_38119f0e861e05405d8a144b9b982f0a>@@@?$__crt_seh_guarded_call@X@@QEAAX$$QEAV<lambda_410d79af7f07d98d83a3f525b3859a53>@@AEAV<lambda_3e16ef9562a7dcce91392c22ab16ea36>@@$$QEAV<lambda_38119f0e861e05405d8a144b9b982f0a>@@@Z 000000018003f570     libucrt:wsetlocale.obj
 0002:00014598       $unwind$??$?RV<lambda_1d892b297fdedeee07ed8124eeb2f2fa>@@AEAV<lambda_ffc046909424fd52df0ac47e64813305>@@V<lambda_01a7098693036236037e7cdb9bca3d73>@@@?$__crt_seh_guarded_call@X@@QEAAX$$QEAV<lambda_1d892b297fdedeee07ed8124eeb2f2fa>@@AEAV<lambda_ffc046909424fd52df0ac47e64813305>@@$$QEAV<lambda_01a7098693036236037e7cdb9bca3d73>@@@Z 000000018003f598     libucrt:wsetlocale.obj
 0002:000145bc       $unwind$??$?RV<lambda_7f2adfce497ff2baa965cd4f576ecfd1>@@AEAV<lambda_2a444430fde8c29194d880d93eed5e8f>@@AEAV<lambda_8dff2cf36a5417162780cd64fa2883ef>@@@?$__crt_seh_guarded_call@X@@QEAAX$$QEAV<lambda_7f2adfce497ff2baa965cd4f576ecfd1>@@AEAV<lambda_2a444430fde8c29194d880d93eed5e8f>@@AEAV<lambda_8dff2cf36a5417162780cd64fa2883ef>@@@Z 000000018003f5bc     libucrt:wsetlocale.obj
 0002:000145dc       $unwind$__acrt_initialize_lowio 000000018003f5dc     libucrt:ioinit.obj
 0002:000145fc       $unwind$?initialize_inherited_file_handles_nolock@@YAXXZ 000000018003f5fc     libucrt:ioinit.obj
 0002:00014618       $unwind$_except1           000000018003f618     libucrt:fpexcept.obj
 0002:00014638       $unwind$_handle_exc        000000018003f638     libucrt:fpexcept.obj
 0002:00014654       $unwind$_umatherr          000000018003f654     libucrt:fpexcept.obj
 0002:0001465c       $unwind$_raise_exc_ex      000000018003f65c     libucrt:fpexcept.obj
 0002:00014670       $unwind$_ctrlfp            000000018003f670     libucrt:fpctrl.obj
 0002:00014698       $unwind$__acrt_EnumSystemLocalesEx 000000018003f698     libucrt:winapi_thunks.obj
 0002:000146a8       $unwind$??$?RV<lambda_bd00b5aa228bd7e7e5b2b5db5fd2933b>@@AEAV<lambda_777d11615145f89ee95b9466d285deeb>@@V<lambda_6e5e48fbd24f9f8f81b203eb3d877683>@@@?$__crt_seh_guarded_call@H@@QEAAH$$QEAV<lambda_bd00b5aa228bd7e7e5b2b5db5fd2933b>@@AEAV<lambda_777d11615145f89ee95b9466d285deeb>@@$$QEAV<lambda_6e5e48fbd24f9f8f81b203eb3d877683>@@@Z 000000018003f6a8     libucrt:winapi_thunks.obj
 0002:000146cc       $unwind$_mbstowcs_s_l      000000018003f6cc     libucrt:mbstowcs.obj
 0002:000146e4       $unwind$?_mbstowcs_l_helper@@YA_KPEA_WPEBD_KPEAU__crt_locale_pointers@@@Z 000000018003f6e4     libucrt:mbstowcs.obj
 0002:000146fc       $unwind$?_wcstombs_l_helper@@YA_KPEADPEB_W_KPEAU__crt_locale_pointers@@@Z 000000018003f6fc     libucrt:wcstombs.obj
 0002:00014720       $stateUnwindMap$?_wcstombs_l_helper@@YA_KPEADPEB_W_KPEAU__crt_locale_pointers@@@Z 000000018003f720     libucrt:wcstombs.obj
 0002:00014728       $ip2state$?_wcstombs_l_helper@@YA_KPEADPEB_W_KPEAU__crt_locale_pointers@@@Z 000000018003f728     libucrt:wcstombs.obj
 0002:00014738       $unwind$_isctype_l         000000018003f738     libucrt:isctype.obj
 0002:00014754       $unwind$__acrt_GetLocaleInfoA 000000018003f754     libucrt:getlocaleinfoa.obj
 0002:00014774       $unwind$?InternalGetLocaleInfoA@@YAHQEAU__crt_locale_pointers@@QEB_WKQEADH@Z 000000018003f774     libucrt:getlocaleinfoa.obj
 0002:0001479c       $unwind$__acrt_GetStringTypeA 000000018003f79c     libucrt:getstringtypea.obj
 0002:000147c4       $unwind$__acrt_LCMapStringA 000000018003f7c4     libucrt:lcmapstringa.obj
 0002:000147d4       $unwind$?__acrt_LCMapStringA_stat@@YAHPEAU__crt_locale_pointers@@PEB_WKPEBDHPEADHHH@Z 000000018003f7d4     libucrt:lcmapstringa.obj
 0002:000147fc       $unwind$iswctype           000000018003f7fc     libucrt:iswctype.obj
 0002:00014808       $unwind$__acrt_initialize_fma3 000000018003f808     libucrt:fma3_available.obj
 0002:00014810       $unwind$_powf_special      000000018003f810     libucrt:pow_special.obj
 0002:00014820       $unwind$_pow_special       000000018003f820     libucrt:pow_special.obj
 0002:0001482c       $unwind$??$common_expand_argv_wildcards@D@@YAHQEAPEADQEAPEAPEAD@Z 000000018003f82c     libucrt:argv_wildcards.obj
 0002:00014844       $unwind$__acrt_GetModuleFileNameA 000000018003f844     libucrt:getmodulefilenamea.obj
 0002:00014860       $unwind$_setmbcp_nolock    000000018003f860     libucrt:mbctype.obj
 0002:00014880       $unwind$?update_thread_multibyte_data_internal@@YAPEAU__crt_multibyte_data@@QEAU__acrt_ptd@@QEAPEAU1@@Z 000000018003f880     libucrt:mbctype.obj
 0002:000148a8       $unwind$?setmbcp_internal@@YAHH_NQEAU__acrt_ptd@@QEAPEAU__crt_multibyte_data@@@Z 000000018003f8a8     libucrt:mbctype.obj
 0002:000148b8       $unwind$?setSBUpLow@@YAXPEAU__crt_multibyte_data@@@Z 000000018003f8b8     libucrt:mbctype.obj
 0002:000148d4       $unwind$??$?RV<lambda_efdfa57d1f175319df784efa44bb7b81>@@AEAV<lambda_5f0a4c1567f8adc6734073e5d1e1b35c>@@V<lambda_2e8a7d3640ea6ccb4c2413664c2db6fd>@@@?$__crt_seh_guarded_call@X@@QEAAX$$QEAV<lambda_efdfa57d1f175319df784efa44bb7b81>@@AEAV<lambda_5f0a4c1567f8adc6734073e5d1e1b35c>@@$$QEAV<lambda_2e8a7d3640ea6ccb4c2413664c2db6fd>@@@Z 000000018003f8d4     libucrt:mbctype.obj
 0002:000148f8       $unwind$?common_flush_all@@YAH_N@Z 000000018003f8f8     libucrt:fflush.obj
 0002:00014900       $unwind$??$?RV<lambda_842d9ff0dc9ef11c61343bbaebe7f885>@@AEAV<lambda_c5860995281e5c4ce005b3de8f5874ee>@@V<lambda_d90129c13df834fdcbf8d2b88dafcf2d>@@@?$__crt_seh_guarded_call@X@@QEAAX$$QEAV<lambda_842d9ff0dc9ef11c61343bbaebe7f885>@@AEAV<lambda_c5860995281e5c4ce005b3de8f5874ee>@@$$QEAV<lambda_d90129c13df834fdcbf8d2b88dafcf2d>@@@Z 000000018003f900     libucrt:fflush.obj
 0002:00014924       $unwind$??$?RV<lambda_886d6c58226a84441f68b9f2b8217b83>@@AEAV<lambda_ab61a845afdef5b7c387490eaf3616ee>@@V<lambda_f7f22ab5edc0698d5f6905b0d3f44752>@@@?$__crt_seh_guarded_call@X@@QEAAX$$QEAV<lambda_886d6c58226a84441f68b9f2b8217b83>@@AEAV<lambda_ab61a845afdef5b7c387490eaf3616ee>@@$$QEAV<lambda_f7f22ab5edc0698d5f6905b0d3f44752>@@@Z 000000018003f924     libucrt:fflush.obj
 0002:0001494c       $unwind$__acrt_update_thread_locale_data 000000018003f94c     libucrt:locale_refcounting.obj
 0002:00014970       $unwind$?__mbsrtowcs_utf8@__crt_mbstring@@YA_KPEA_WPEAPEBD_KPEAU_Mbstatet@@@Z 000000018003f970     libucrt:mbrtowc.obj
 0002:00014988       $unwind$__acrt_fltout      000000018003f988     libucrt:cfout.obj
 0002:000149a8       $unwind$_fcloseall         000000018003f9a8     libucrt:closeall.obj
 0002:000149cc       $unwind$?initialize_lc_time@@YA_NQEAU__crt_lc_time_data@@QEAU__crt_locale_data@@@Z 000000018003f9cc     libucrt:inittime.obj
 0002:000149cc       $unwind$__acrt_locale_initialize_monetary 000000018003f9cc     libucrt:initmon.obj
 0002:000149e8       $unwind$__acrt_locale_free_monetary 000000018003f9e8     libucrt:initmon.obj
 0002:000149f0       $unwind$__acrt_locale_free_time 000000018003f9f0     libucrt:inittime.obj
 0002:00014a00       $unwind$LangCountryEnumProcEx 000000018003fa00     libucrt:get_qualified_locale.obj
 0002:00014a20       $unwind$LanguageEnumProcEx 000000018003fa20     libucrt:get_qualified_locale.obj
 0002:00014a3c       $unwind$GetLocaleNameFromDefault 000000018003fa3c     libucrt:get_qualified_locale.obj
 0002:00014a54       $unwind$TestDefaultCountry 000000018003fa54     libucrt:get_qualified_locale.obj
 0002:00014a64       $unwind$__acrt_get_qualified_locale_downlevel 000000018003fa64     libucrt:getqloc_downlevel.obj
 0002:00014a80       $unwind$LangCountryEnumProc 000000018003fa80     libucrt:getqloc_downlevel.obj
 0002:00014aa0       $unwind$LanguageEnumProc   000000018003faa0     libucrt:getqloc_downlevel.obj
 0002:00014abc       $unwind$CountryEnumProc    000000018003fabc     libucrt:getqloc_downlevel.obj
 0002:00014adc       $unwind$__acrt_lowio_destroy_handle_array 000000018003fadc     libucrt:osfinfo.obj
 0002:00014aec       $unwind$__acrt_lowio_ensure_fh_exists 000000018003faec     libucrt:osfinfo.obj
 0002:00014b18       $xdatasym                  000000018003fb18     libucrt:fpsr.obj
 0002:00014b20       $unwind$?GetTableIndexFromLocaleName@@YAHPEB_W@Z 000000018003fb20     libucrt:lcidtoname_downlevel.obj
 0002:00014b38       $unwind$?__wcsrtombs_utf8@__crt_mbstring@@YA_KPEADPEAPEB_W_KPEAU_Mbstatet@@@Z 000000018003fb38     libucrt:wcrtomb.obj
 0002:00014b58       $unwind$__acrt_fenv_set_control 000000018003fb58     libucrt:_fenvutils.obj
 0002:00014b68       $unwind$_call_matherr      000000018003fb68     libucrt:libm_error.obj
 0002:00014b70       $unwind$_handle_errorf     000000018003fb70     libucrt:libm_error.obj
 0002:00014b70       $unwind$_handle_error      000000018003fb70     libucrt:libm_error.obj
 0002:00014b90       $unwind$_towlower_l        000000018003fb90     libucrt:towlower.obj
 0002:00014b98       $unwind$qsort              000000018003fb98     libucrt:qsort.obj
 0002:00014bb0       $chain$4$qsort             000000018003fbb0     libucrt:qsort.obj
 0002:00014bd4       $chain$5$qsort             000000018003fbd4     libucrt:qsort.obj
 0002:00014be4       $unwind$_close             000000018003fbe4     libucrt:close.obj
 0002:00014be4       $unwind$_commit            000000018003fbe4     libucrt:commit.obj
 0002:00014bec       $unwind$??$?RV<lambda_a37b2b86f63e897a80ea819b0eb08c01>@@AEAV<lambda_38ce7e780aa69e748d6df282ebc68efe>@@V<lambda_99fb1378e971ab6e7edea83e3a7a83a2>@@@?$__crt_seh_guarded_call@H@@QEAAH$$QEAV<lambda_a37b2b86f63e897a80ea819b0eb08c01>@@AEAV<lambda_38ce7e780aa69e748d6df282ebc68efe>@@$$QEAV<lambda_99fb1378e971ab6e7edea83e3a7a83a2>@@@Z 000000018003fbec     libucrt:commit.obj
 0002:00014c10       $unwind$_write             000000018003fc10     libucrt:write.obj
 0002:00014c40       $unwind$_write_nolock      000000018003fc40     libucrt:write.obj
 0002:00014c58       $unwind$?write_double_translated_ansi_nolock@@YA?AUwrite_result@?A0x17268360@@HQEBDI@Z 000000018003fc58     libucrt:write.obj
 0002:00014c7c       $unwind$?write_text_utf16le_nolock@@YA?AUwrite_result@?A0x17268360@@HQEBDI@Z 000000018003fc7c     libucrt:write.obj
 0002:00014c7c       $unwind$?write_text_ansi_nolock@@YA?AUwrite_result@?A0x17268360@@HQEBDI@Z 000000018003fc7c     libucrt:write.obj
 0002:00014c9c       $unwind$?write_text_utf8_nolock@@YA?AUwrite_result@?A0x17268360@@HQEBDI@Z 000000018003fc9c     libucrt:write.obj
 0002:00014cc0       $unwind$?__mbrtoc32_utf8@__crt_mbstring@@YA_KPEA_UPEBD_KPEAU_Mbstatet@@@Z 000000018003fcc0     libucrt:mbrtoc32.obj
 0002:00014ce0       $xdatasym                  000000018003fce0     libucrt:log10.obj
 0002:00014cec       $unwind$fclose             000000018003fcec     libucrt:fclose.obj
 0002:00014d10       $unwind$_putwch_nolock     000000018003fd10     libucrt:putwch.obj
 0002:00014d18       $unwind$_log_special_common 000000018003fd18     libucrt:log_special.obj
 0002:00014d24       $unwind$??$?RV<lambda_751a882b2c74d4b022dec766aa51a29a>@@AEAV<lambda_628dfdc04ba53c8bfc02c9951375f3f5>@@V<lambda_f6c7be5f7998530c34de24c7437d6b54>@@@?$__crt_seh_guarded_call@H@@QEAAH$$QEAV<lambda_751a882b2c74d4b022dec766aa51a29a>@@AEAV<lambda_628dfdc04ba53c8bfc02c9951375f3f5>@@$$QEAV<lambda_f6c7be5f7998530c34de24c7437d6b54>@@@Z 000000018003fd24     libucrt:close.obj
 0002:00014d48       $unwind$?DloadObtainSection@@YAPEAXPEAK0@Z 000000018003fd48     DelayImp:delayhlp.obj
 0002:00014d58       $unwind$?DloadMakePermanentImageCommit@@YAXPEAX_K@Z 000000018003fd58     DelayImp:delayhlp.obj
 0002:00014d64       $unwind$?DloadProtectSection@@YAXKPEAK@Z 000000018003fd64     DelayImp:delayhlp.obj
 0002:00014d74       $unwind$__delayLoadHelper2 000000018003fd74     DelayImp:delayhlp.obj
 0002:00014d8c       $unwind$_IsNonwritableInCurrentImage 000000018003fd8c     LIBCMT:pesect.obj
 0002:00014db0       $unwind$wcschr             000000018003fdb0     libvcruntime:wcschr.obj
 0002:00014db0       $unwind$strrchr            000000018003fdb0     libvcruntime:strrchr.obj
 0002:00015970       .edata                     0000000180040970     node_printer.exp
 0002:00015998       rgpv                       0000000180040998     node_printer.exp
 0002:0001599c       rgszName                   000000018004099c     node_printer.exp
 0002:000159a0       rgwOrd                     00000001800409a0     node_printer.exp
 0002:000159a2       szName                     00000001800409a2     node_printer.exp
 0002:000159b4       $N00001                    00000001800409b4     node_printer.exp
 0002:00015dfe       .idata$6                   0000000180040dfe     kernel32:KERNEL32.dll
 0002:00015e22       .idata$6                   0000000180040e22     user32:USER32.dll
 0002:00015f60       .idata$6                   0000000180040f60     winspool:WINSPOOL.DRV
 0003:00000000       ?init@std@@3JA             0000000180042000     libcpmt:xlock.obj
 0003:00000068       ?atcount_cdecl@@3_KA       0000000180042068     libcpmt:iosptrs.obj
 0003:000000a0       ?__vcrt_flsindex@@3KA      00000001800420a0     libvcruntime:per_thread_data.obj
 0003:00000178       ?errno_no_memory@@3HA      0000000180042178     libucrt:errno.obj
 0003:0000017c       ?doserrno_no_memory@@3KA   000000018004217c     libucrt:errno.obj
 0003:00000180       ?__acrt_flsindex@@3KA      0000000180042180     libucrt:per_thread_data.obj
 0003:00000298       _ctype_loc_style           0000000180042298     libucrt:wsetlocale.obj
 0003:0000041c       ?dazSupported@?1??_ctrlfp@@9@9 000000018004241c     libucrt:fpctrl.obj
 0003:00000430       ?tzstd_program@@3PADA      0000000180042430     libucrt:timeset.obj
 0003:00000470       ?tzdst_program@@3PADA      0000000180042470     libucrt:timeset.obj
 0003:000004b0       ?tzname_states@@3PAY01PEADA 00000001800424b0     libucrt:timeset.obj
 0003:000004c0       _mbctypes                  00000001800424c0     libucrt:mbctype.obj
 0003:000005d0       _mbcasemaps                00000001800425d0     libucrt:mbctype.obj
 0003:000006d0       ?__rgctypeflag@@3PADA      00000001800426d0     libucrt:mbctype.obj
 0003:000006e0       ?__rgcode_page_info@@3PAUcode_page_info@@A 00000001800426e0     libucrt:mbctype.obj
 0003:00000b00       ?__dcrt_lowio_console_output_handle@@3PEAXEA 0000000180042b00     libucrt:initcon.obj
 0003:00000b10       _module                    0000000180042b10     node_printer.obj
 0003:00000f80       ?initlocks@std@@3V_Init_locks@1@A 0000000180042f80     libcpmt:xlock.obj
 0003:00000f90       ?mtx@std@@3PAU_RTL_CRITICAL_SECTION@@A 0000000180042f90     libcpmt:xlock.obj
 0003:00001100       ?classic_locale@std@@3Vlocale@1@A 0000000180043100     libcpmt:locale0.obj
 0003:00001118       ?_Fac_tidy_reg@std@@3U_Fac_tidy_reg_t@1@B 0000000180043118     libcpmt:locale0.obj
 0003:00001120       ?_Fac_head@std@@3PEAU_Fac_node@1@EA 0000000180043120     libcpmt:locale0.obj
 0003:00001128       global_locale              0000000180043128     libcpmt:locale0.obj
 0003:00001130       ?registered@?1??_Setgloballocale@locale@std@@CAXPEAX@Z@4_NA 0000000180043130     libcpmt:locale0.obj
 0003:00001150       ?stdstr@std@@3PAPEAVios_base@1@A 0000000180043150     libcpmt:ios.obj
 0003:000011a0       ?stdopens@std@@3PADA       00000001800431a0     libcpmt:ios.obj
 0003:00001350       ?initlocks@std@@3V_Init_locks@1@A 0000000180043350     libcpmt:iosptrs.obj
 0003:00001351       ?init_atexit@@3U_Init_atexit@@A 0000000180043351     libcpmt:iosptrs.obj
 0003:00001360       ?atfuns_cdecl@@3PAP6AXXZA  0000000180043360     libcpmt:iosptrs.obj
 0003:000014a0       ?_Tss_mutex@@3U_RTL_CRITICAL_SECTION@@A 00000001800434a0     LIBCMT:thread_safe_statics.obj
 0003:000014c8       ?_Tss_cv@@3U_RTL_CONDITION_VARIABLE@@A 00000001800434c8     LIBCMT:thread_safe_statics.obj
 0003:000014d0       ?_Tss_event@@3PEAXEA       00000001800434d0     LIBCMT:thread_safe_statics.obj
 0003:000014d8       ?encoded_sleep_condition_variable_cs@@3P6AHPEAU_RTL_CONDITION_VARIABLE@@PEAU_RTL_CRITICAL_SECTION@@K@ZEA 00000001800434d8     LIBCMT:thread_safe_statics.obj
 0003:000014e0       ?encoded_wake_all_condition_variable@@3P6AXPEAU_RTL_CONDITION_VARIABLE@@@ZEA 00000001800434e0     LIBCMT:thread_safe_statics.obj
 0003:000014f8       ?is_initialized_as_dll@@3_NA 00000001800434f8     LIBCMT:utility.obj
 0003:000014f9       ?module_local_atexit_table_initialized@@3_NA 00000001800434f9     LIBCMT:utility.obj
 0003:00001500       ?module_local_atexit_table@@3U_onexit_table_t@@A 0000000180043500     LIBCMT:utility.obj
 0003:00001518       ?module_local_at_quick_exit_table@@3U_onexit_table_t@@A 0000000180043518     LIBCMT:utility.obj
 0003:00001530       ?__proc_attached@@3HA      0000000180043530     LIBCMT:dll_dllmain.obj
 0003:00001540       GS_ExceptionRecord         0000000180043540     LIBCMT:gs_report.obj
 0003:000015e0       GS_ContextRecord           00000001800435e0     LIBCMT:gs_report.obj
 0003:00001af0       ?__vcrt_startup_thread_ptd@@3U__vcrt_ptd@@A 0000000180043af0     libvcruntime:per_thread_data.obj
 0003:00001b80       __vcrt_lock_table          0000000180043b80     libvcruntime:locks.obj
 0003:00001ba8       __vcrt_locks_initialized   0000000180043ba8     libvcruntime:locks.obj
 0003:00001bb0       ?module_handles@@3PAPEAUHINSTANCE__@@A 0000000180043bb0     libvcruntime:winapi_downlevel.obj
 0003:00001bc8       ?encoded_function_pointers@@3PAPEAXA 0000000180043bc8     libvcruntime:winapi_downlevel.obj
 0003:00001c30       ?heap@@3V_HeapManager@@A   0000000180043c30     libvcruntime:undname.obj
 0003:00001c58       ?__acrt_invalid_parameter_handler@@3V?$dual_state_global@P6AXPEB_W00I_K@Z@__crt_state_management@@A 0000000180043c58     libucrt:invalid_parameter.obj
 0003:00001c70       ?__acrt_lock_table@@3PAU_RTL_CRITICAL_SECTION@@A 0000000180043c70     libucrt:locks.obj
 0003:00001ea0       ?__acrt_locks_initialized@@3IA 0000000180043ea0     libucrt:locks.obj
 0003:00001ea8       ?__acrt_new_handler@@3V?$dual_state_global@P6AH_K@Z@__crt_state_management@@A 0000000180043ea8     libucrt:new_handler.obj
 0003:00001eb0       ?c_termination_complete@@3JA 0000000180043eb0     libucrt:exit.obj
 0003:00001eb8       ?thread_local_exit_callback_func@@3P6AXPEAXK0@ZEA 0000000180043eb8     libucrt:exit.obj
 0003:00001ed0       ?program_name@?1???$common_configure_argv@D@@YAHW4_crt_argv_mode@@@Z@4PADA 0000000180043ed0     libucrt:argv_parsing.obj
 0003:00002028       ?ctrlc_action@@3V?$dual_state_global@P6AXH@Z@__crt_state_management@@A 0000000180044028     libucrt:signal.obj
 0003:00002030       ?ctrlbreak_action@@3V?$dual_state_global@P6AXH@Z@__crt_state_management@@A 0000000180044030     libucrt:signal.obj
 0003:00002038       ?abort_action@@3V?$dual_state_global@P6AXH@Z@__crt_state_management@@A 0000000180044038     libucrt:signal.obj
 0003:00002040       ?term_action@@3V?$dual_state_global@P6AXH@Z@__crt_state_management@@A 0000000180044040     libucrt:signal.obj
 0003:00002048       ?internal_state@?1??_mbtowc_l@@9@4U_Mbstatet@@A 0000000180044048     libucrt:mbtowc.obj
 0003:00002060       ?enable_percent_n@@3_KA    0000000180044060     libucrt:printf_count_output.obj
 0003:000024a0       ?module_handles@@3PAPEAUHINSTANCE__@@A 00000001800444a0     libucrt:winapi_thunks.obj
 0003:00002540       ?encoded_function_pointers@@3PAPEAXA 0000000180044540     libucrt:winapi_thunks.obj
 0003:00002650       ?static_enum_proc@?1??enum_system_locales_ex_nolock@@YAHQ6AHPEA_WK_J@Z@Z@4P6AH0K1@ZEA 0000000180044650     libucrt:winapi_thunks.obj
 0003:00002670       ?_tzname@@3V?$dual_state_global@PEAPEAD@__crt_state_management@@A 0000000180044670     libucrt:timeset.obj
 0003:00002680       ?tz_api_used@@3HA          0000000180044680     libucrt:tzset.obj
 0003:00002690       ?tz_info@@3U_TIME_ZONE_INFORMATION@@A 0000000180044690     libucrt:tzset.obj
 0003:00002758       ?fSystemSet@@3HA           0000000180044758     libucrt:mbctype.obj
 0003:0000275c       ?initialized@?1??__acrt_initialize_multibyte@@9@4_NA 000000018004475c     libucrt:mbctype.obj
 0003:00002798       ?user_matherr@@3V?$dual_state_global@P6AHPEAU_exception@@@Z@__crt_state_management@@A 0000000180044798     libucrt:matherr.obj
 0003:000027a0       ?__acrt_global_new_mode@@3V?$dual_state_global@J@__crt_state_management@@A 00000001800447a0     libucrt:new_mode.obj
 0003:000027a8       ?internal_pst@?1??__mbrtoc32_utf8@__crt_mbstring@@YA_KPEA_UPEBD_KPEAU_Mbstatet@@@Z@4U3@A 00000001800447a8     libucrt:mbrtoc32.obj
 0003:000027b0       ?__acrt_app_type@@3W4_crt_app_type@@A 00000001800447b0     libucrt:report_runtime_error.obj
 0003:000027b8       ?internal_pst@?1??__c16rtomb_utf8@__crt_mbstring@@YA_KPEAD_SPEAU_Mbstatet@@@Z@4U3@A 00000001800447b8     libucrt:c16rtomb.obj
 0003:00002828       ?$TSS0@?1??getStatusMap@?A0x5d6687e9@@YAAEBV?$map@V?$basic_string@DU?$char_traits@D@std@@V?$allocator@D@2@@std@@KU?$less@V?$basic_string@DU?$char_traits@D@std@@V?$allocator@D@2@@std@@@2@V?$allocator@U?$pair@$$CBV?$basic_string@DU?$char_traits@D@std@@V?$allocator@D@2@@std@@K@std@@@2@@std@@XZ@4HA 0000000180044828     node_printer_win.obj
 0003:00002830       ?result@?1??getStatusMap@?A0x5d6687e9@@YAAEBV?$map@V?$basic_string@DU?$char_traits@D@std@@V?$allocator@D@2@@std@@KU?$less@V?$basic_string@DU?$char_traits@D@std@@V?$allocator@D@2@@std@@@2@V?$allocator@U?$pair@$$CBV?$basic_string@DU?$char_traits@D@std@@V?$allocator@D@2@@std@@K@std@@@2@@std@@XZ@4V34@A 0000000180044830     node_printer_win.obj
 0003:00002840       ?result@?1??getJobStatusMap@?A0x5d6687e9@@YAAEBV?$map@V?$basic_string@DU?$char_traits@D@std@@V?$allocator@D@2@@std@@KU?$less@V?$basic_string@DU?$char_traits@D@std@@V?$allocator@D@2@@std@@@2@V?$allocator@U?$pair@$$CBV?$basic_string@DU?$char_traits@D@std@@V?$allocator@D@2@@std@@K@std@@@2@@std@@XZ@4V34@A 0000000180044840     node_printer_win.obj
 0003:00002858       ?result@?1??getAttributeMap@?A0x5d6687e9@@YAAEBV?$map@V?$basic_string@DU?$char_traits@D@std@@V?$allocator@D@2@@std@@KU?$less@V?$basic_string@DU?$char_traits@D@std@@V?$allocator@D@2@@std@@@2@V?$allocator@U?$pair@$$CBV?$basic_string@DU?$char_traits@D@std@@V?$allocator@D@2@@std@@K@std@@@2@@std@@XZ@4V34@A 0000000180044858     node_printer_win.obj
 0003:00002868       ?$TSS0@?1??getJobStatusMap@?A0x5d6687e9@@YAAEBV?$map@V?$basic_string@DU?$char_traits@D@std@@V?$allocator@D@2@@std@@KU?$less@V?$basic_string@DU?$char_traits@D@std@@V?$allocator@D@2@@std@@@2@V?$allocator@U?$pair@$$CBV?$basic_string@DU?$char_traits@D@std@@V?$allocator@D@2@@std@@K@std@@@2@@std@@XZ@4HA 0000000180044868     node_printer_win.obj
 0003:0000286c       ?$TSS0@?1??getJobCommandMap@?A0x5d6687e9@@YAAEBV?$map@V?$basic_string@DU?$char_traits@D@std@@V?$allocator@D@2@@std@@KU?$less@V?$basic_string@DU?$char_traits@D@std@@V?$allocator@D@2@@std@@@2@V?$allocator@U?$pair@$$CBV?$basic_string@DU?$char_traits@D@std@@V?$allocator@D@2@@std@@K@std@@@2@@std@@XZ@4HA 000000018004486c     node_printer_win.obj
 0003:00002870       ?$TSS0@?1??getAttributeMap@?A0x5d6687e9@@YAAEBV?$map@V?$basic_string@DU?$char_traits@D@std@@V?$allocator@D@2@@std@@KU?$less@V?$basic_string@DU?$char_traits@D@std@@V?$allocator@D@2@@std@@@2@V?$allocator@U?$pair@$$CBV?$basic_string@DU?$char_traits@D@std@@V?$allocator@D@2@@std@@K@std@@@2@@std@@XZ@4HA 0000000180044870     node_printer_win.obj
 0003:00002880       ?result@?1??getJobCommandMap@?A0x5d6687e9@@YAAEBV?$map@V?$basic_string@DU?$char_traits@D@std@@V?$allocator@D@2@@std@@KU?$less@V?$basic_string@DU?$char_traits@D@std@@V?$allocator@D@2@@std@@@2@V?$allocator@U?$pair@$$CBV?$basic_string@DU?$char_traits@D@std@@V?$allocator@D@2@@std@@K@std@@@2@@std@@XZ@4V34@A 0000000180044880     node_printer_win.obj
 0004:00000000       $pdata$??__Einitlocks@std@@YAXXZ 0000000180045000     libcpmt:xlock.obj
 0004:0000000c       $pdata$??__Einitlocks@std@@YAXXZ 000000018004500c     libcpmt:iosptrs.obj
 0004:00000018       $pdata$?NODE_SET_METHOD@node@@YAXV?$Local@VObject@v8@@@v8@@PEBDP6AXAEBV?$FunctionCallbackInfo@VValue@v8@@@3@@Z@Z 0000000180045018     node_printer.obj
 0004:00000024       $pdata$?initNode@@YAXV?$Local@VObject@v8@@@v8@@@Z 0000000180045024     node_printer.obj
 0004:00000030       $pdata$?assign@?$basic_string@DU?$char_traits@D@std@@V?$allocator@D@2@@std@@QEAAAEAV12@QEBD_K@Z 0000000180045030     node_printer.obj
 0004:0000003c       $pdata$0$?assign@?$basic_string@DU?$char_traits@D@std@@V?$allocator@D@2@@std@@QEAAAEAV12@QEBD_K@Z 000000018004503c     node_printer.obj
 0004:00000048       $pdata$1$?assign@?$basic_string@DU?$char_traits@D@std@@V?$allocator@D@2@@std@@QEAAAEAV12@QEBD_K@Z 0000000180045048     node_printer.obj
 0004:00000054       $pdata$2$?assign@?$basic_string@DU?$char_traits@D@std@@V?$allocator@D@2@@std@@QEAAAEAV12@QEBD_K@Z 0000000180045054     node_printer.obj
 0004:00000060       $pdata$3$?assign@?$basic_string@DU?$char_traits@D@std@@V?$allocator@D@2@@std@@QEAAAEAV12@QEBD_K@Z 0000000180045060     node_printer.obj
 0004:0000006c       $pdata$?_Xlen@?$basic_string@DU?$char_traits@D@std@@V?$allocator@D@2@@std@@SAXXZ 000000018004506c     node_printer.obj
 0004:00000078       $pdata$sprintf_s           0000000180045078     node_printer_win.obj
 0004:00000084       $pdata$?_Raise@exception@stdext@@QEBAXXZ 0000000180045084     node_printer_win.obj
 0004:00000090       $pdata$??_Gruntime_error@std@@UEAAPEAXI@Z 0000000180045090     node_printer_win.obj
 0004:00000090       $pdata$??_Gexception@stdext@@UEAAPEAXI@Z 0000000180045090     node_printer_win.obj
 0004:0000009c       $pdata$??1_Locinfo@std@@QEAA@XZ 000000018004509c     node_printer_win.obj
 0004:000000a8       $pdata$??_G_Facet_base@std@@UEAAPEAXI@Z 00000001800450a8     node_printer_win.obj
 0004:000000b4       $pdata$?do_tolower@?$ctype@D@std@@MEBAPEBDPEADPEBD@Z 00000001800450b4     node_printer_win.obj
 0004:000000c0       $pdata$0$?do_tolower@?$ctype@D@std@@MEBAPEBDPEADPEBD@Z 00000001800450c0     node_printer_win.obj
 0004:000000cc       $pdata$1$?do_tolower@?$ctype@D@std@@MEBAPEBDPEADPEBD@Z 00000001800450cc     node_printer_win.obj
 0004:000000d8       $pdata$?do_toupper@?$ctype@D@std@@MEBAPEBDPEADPEBD@Z 00000001800450d8     node_printer_win.obj
 0004:000000e4       $pdata$0$?do_toupper@?$ctype@D@std@@MEBAPEBDPEADPEBD@Z 00000001800450e4     node_printer_win.obj
 0004:000000f0       $pdata$1$?do_toupper@?$ctype@D@std@@MEBAPEBDPEADPEBD@Z 00000001800450f0     node_printer_win.obj
 0004:000000fc       $pdata$?do_widen@?$ctype@D@std@@MEBAPEBDPEBD0PEAD@Z 00000001800450fc     node_printer_win.obj
 0004:00000108       $pdata$?do_narrow@?$ctype@D@std@@MEBAPEBDPEBD0DPEAD@Z 0000000180045108     node_printer_win.obj
 0004:00000114       $pdata$??_G?$ctype@D@std@@MEAAPEAXI@Z 0000000180045114     node_printer_win.obj
 0004:00000120       $pdata$?equivalent@error_category@std@@UEBA_NHAEBVerror_condition@2@@Z 0000000180045120     node_printer_win.obj
 0004:0000012c       $pdata$?make_error_code@std@@YA?AVerror_code@1@W4io_errc@1@@Z 000000018004512c     node_printer_win.obj
 0004:00000138       $pdata$??0_System_error@std@@IEAA@Verror_code@1@AEBV?$basic_string@DU?$char_traits@D@std@@V?$allocator@D@2@@1@@Z 0000000180045138     node_printer_win.obj
 0004:00000144       $pdata$??_G_System_error@std@@UEAAPEAXI@Z 0000000180045144     node_printer_win.obj
 0004:00000144       $pdata$??_Gfailure@ios_base@std@@UEAAPEAXI@Z 0000000180045144     node_printer_win.obj
 0004:00000150       $pdata$?message@_Iostream_error_category@std@@UEBA?AV?$basic_string@DU?$char_traits@D@std@@V?$allocator@D@2@@2@H@Z 0000000180045150     node_printer_win.obj
 0004:0000015c       $pdata$??_G_Iostream_error_category@std@@UEAAPEAXI@Z 000000018004515c     node_printer_win.obj
 0004:00000168       $pdata$??0failure@ios_base@std@@QEAA@PEBDAEBVerror_code@2@@Z 0000000180045168     node_printer_win.obj
 0004:00000174       $pdata$?_Doraise@failure@ios_base@std@@MEBAXXZ 0000000180045174     node_printer_win.obj
 0004:00000180       $pdata$??_Gios_base@std@@UEAAPEAXI@Z 0000000180045180     node_printer_win.obj
 0004:0000018c       $pdata$?getStatusMap@?A0x5d6687e9@@YAAEBV?$map@V?$basic_string@DU?$char_traits@D@std@@V?$allocator@D@2@@std@@KU?$less@V?$basic_string@DU?$char_traits@D@std@@V?$allocator@D@2@@std@@@2@V?$allocator@U?$pair@$$CBV?$basic_string@DU?$char_traits@D@std@@V?$allocator@D@2@@std@@K@std@@@2@@std@@XZ 000000018004518c     node_printer_win.obj
 0004:00000198       $pdata$1$?getStatusMap@?A0x5d6687e9@@YAAEBV?$map@V?$basic_string@DU?$char_traits@D@std@@V?$allocator@D@2@@std@@KU?$less@V?$basic_string@DU?$char_traits@D@std@@V?$allocator@D@2@@std@@@2@V?$allocator@U?$pair@$$CBV?$basic_string@DU?$char_traits@D@std@@V?$allocator@D@2@@std@@K@std@@@2@@std@@XZ 0000000180045198     node_printer_win.obj
 0004:000001a4       $pdata$2$?getStatusMap@?A0x5d6687e9@@YAAEBV?$map@V?$basic_string@DU?$char_traits@D@std@@V?$allocator@D@2@@std@@KU?$less@V?$basic_string@DU?$char_traits@D@std@@V?$allocator@D@2@@std@@@2@V?$allocator@U?$pair@$$CBV?$basic_string@DU?$char_traits@D@std@@V?$allocator@D@2@@std@@K@std@@@2@@std@@XZ 00000001800451a4     node_printer_win.obj
 0004:000001b0       $pdata$?getJobStatusMap@?A0x5d6687e9@@YAAEBV?$map@V?$basic_string@DU?$char_traits@D@std@@V?$allocator@D@2@@std@@KU?$less@V?$basic_string@DU?$char_traits@D@std@@V?$allocator@D@2@@std@@@2@V?$allocator@U?$pair@$$CBV?$basic_string@DU?$char_traits@D@std@@V?$allocator@D@2@@std@@K@std@@@2@@std@@XZ 00000001800451b0     node_printer_win.obj
 0004:000001bc       $pdata$1$?getJobStatusMap@?A0x5d6687e9@@YAAEBV?$map@V?$basic_string@DU?$char_traits@D@std@@V?$allocator@D@2@@std@@KU?$less@V?$basic_string@DU?$char_traits@D@std@@V?$allocator@D@2@@std@@@2@V?$allocator@U?$pair@$$CBV?$basic_string@DU?$char_traits@D@std@@V?$allocator@D@2@@std@@K@std@@@2@@std@@XZ 00000001800451bc     node_printer_win.obj
 0004:000001c8       $pdata$2$?getJobStatusMap@?A0x5d6687e9@@YAAEBV?$map@V?$basic_string@DU?$char_traits@D@std@@V?$allocator@D@2@@std@@KU?$less@V?$basic_string@DU?$char_traits@D@std@@V?$allocator@D@2@@std@@@2@V?$allocator@U?$pair@$$CBV?$basic_string@DU?$char_traits@D@std@@V?$allocator@D@2@@std@@K@std@@@2@@std@@XZ 00000001800451c8     node_printer_win.obj
 0004:000001d4       $pdata$?getAttributeMap@?A0x5d6687e9@@YAAEBV?$map@V?$basic_string@DU?$char_traits@D@std@@V?$allocator@D@2@@std@@KU?$less@V?$basic_string@DU?$char_traits@D@std@@V?$allocator@D@2@@std@@@2@V?$allocator@U?$pair@$$CBV?$basic_string@DU?$char_traits@D@std@@V?$allocator@D@2@@std@@K@std@@@2@@std@@XZ 00000001800451d4     node_printer_win.obj
 0004:000001e0       $pdata$1$?getAttributeMap@?A0x5d6687e9@@YAAEBV?$map@V?$basic_string@DU?$char_traits@D@std@@V?$allocator@D@2@@std@@KU?$less@V?$basic_string@DU?$char_traits@D@std@@V?$allocator@D@2@@std@@@2@V?$allocator@U?$pair@$$CBV?$basic_string@DU?$char_traits@D@std@@V?$allocator@D@2@@std@@K@std@@@2@@std@@XZ 00000001800451e0     node_printer_win.obj
 0004:000001ec       $pdata$2$?getAttributeMap@?A0x5d6687e9@@YAAEBV?$map@V?$basic_string@DU?$char_traits@D@std@@V?$allocator@D@2@@std@@KU?$less@V?$basic_string@DU?$char_traits@D@std@@V?$allocator@D@2@@std@@@2@V?$allocator@U?$pair@$$CBV?$basic_string@DU?$char_traits@D@std@@V?$allocator@D@2@@std@@K@std@@@2@@std@@XZ 00000001800451ec     node_printer_win.obj
 0004:000001f8       $pdata$?getJobCommandMap@?A0x5d6687e9@@YAAEBV?$map@V?$basic_string@DU?$char_traits@D@std@@V?$allocator@D@2@@std@@KU?$less@V?$basic_string@DU?$char_traits@D@std@@V?$allocator@D@2@@std@@@2@V?$allocator@U?$pair@$$CBV?$basic_string@DU?$char_traits@D@std@@V?$allocator@D@2@@std@@K@std@@@2@@std@@XZ 00000001800451f8     node_printer_win.obj
 0004:00000204       $pdata$1$?getJobCommandMap@?A0x5d6687e9@@YAAEBV?$map@V?$basic_string@DU?$char_traits@D@std@@V?$allocator@D@2@@std@@KU?$less@V?$basic_string@DU?$char_traits@D@std@@V?$allocator@D@2@@std@@@2@V?$allocator@U?$pair@$$CBV?$basic_string@DU?$char_traits@D@std@@V?$allocator@D@2@@std@@K@std@@@2@@std@@XZ 0000000180045204     node_printer_win.obj
 0004:00000210       $pdata$2$?getJobCommandMap@?A0x5d6687e9@@YAAEBV?$map@V?$basic_string@DU?$char_traits@D@std@@V?$allocator@D@2@@std@@KU?$less@V?$basic_string@DU?$char_traits@D@std@@V?$allocator@D@2@@std@@@2@V?$allocator@U?$pair@$$CBV?$basic_string@DU?$char_traits@D@std@@V?$allocator@D@2@@std@@K@std@@@2@@std@@XZ 0000000180045210     node_printer_win.obj
 0004:0000021c       $pdata$?parseJobObject@?A0x5d6687e9@@YAXPEAU_JOB_INFO_2W@@V?$Local@VObject@v8@@@v8@@@Z 000000018004521c     node_printer_win.obj
 0004:00000228       $pdata$?getLastErrorCodeAndMessage@?A0x5d6687e9@@YA?AV?$basic_string@DU?$char_traits@D@std@@V?$allocator@D@2@@std@@XZ 0000000180045228     node_printer_win.obj
 0004:00000234       $pdata$??_D?$basic_ostringstream@DU?$char_traits@D@std@@V?$allocator@D@2@@std@@QEAAXXZ 0000000180045234     node_printer_win.obj
 0004:00000240       $pdata$?retrieveAndParseJobs@?A0x5d6687e9@@YA?AV?$basic_string@DU?$char_traits@D@std@@V?$allocator@D@2@@std@@QEA_WAEBKV?$Local@VObject@v8@@@v8@@AEAUPrinterHandle@1@@Z 0000000180045240     node_printer_win.obj
 0004:0000024c       $pdata$?parsePrinterInfo@?A0x5d6687e9@@YA?AV?$basic_string@DU?$char_traits@D@std@@V?$allocator@D@2@@std@@PEBU_PRINTER_INFO_2W@@V?$Local@VObject@v8@@@v8@@AEAUPrinterHandle@1@@Z 000000018004524c     node_printer_win.obj
 0004:00000258       $pdata$?getPrinters@@YAXAEBV?$FunctionCallbackInfo@VValue@v8@@@v8@@@Z 0000000180045258     node_printer_win.obj
 0004:00000264       $pdata$?getDefaultPrinterName@@YAXAEBV?$FunctionCallbackInfo@VValue@v8@@@v8@@@Z 0000000180045264     node_printer_win.obj
 0004:00000270       $pdata$?getPrinter@@YAXAEBV?$FunctionCallbackInfo@VValue@v8@@@v8@@@Z 0000000180045270     node_printer_win.obj
 0004:0000027c       $pdata$?getPrinterDriverOptions@@YAXAEBV?$FunctionCallbackInfo@VValue@v8@@@v8@@@Z 000000018004527c     node_printer_win.obj
 0004:00000288       $pdata$?getJob@@YAXAEBV?$FunctionCallbackInfo@VValue@v8@@@v8@@@Z 0000000180045288     node_printer_win.obj
 0004:00000294       $pdata$?setJob@@YAXAEBV?$FunctionCallbackInfo@VValue@v8@@@v8@@@Z 0000000180045294     node_printer_win.obj
 0004:000002a0       $pdata$0$?setJob@@YAXAEBV?$FunctionCallbackInfo@VValue@v8@@@v8@@@Z 00000001800452a0     node_printer_win.obj
 0004:000002ac       $pdata$1$?setJob@@YAXAEBV?$FunctionCallbackInfo@VValue@v8@@@v8@@@Z 00000001800452ac     node_printer_win.obj
 0004:000002b8       $pdata$?getSupportedJobCommands@@YAXAEBV?$FunctionCallbackInfo@VValue@v8@@@v8@@@Z 00000001800452b8     node_printer_win.obj
 0004:000002c4       $pdata$?getSupportedPrintFormats@@YAXAEBV?$FunctionCallbackInfo@VValue@v8@@@v8@@@Z 00000001800452c4     node_printer_win.obj
 0004:000002d0       $pdata$?PrintDirect@@YAXAEBV?$FunctionCallbackInfo@VValue@v8@@@v8@@@Z 00000001800452d0     node_printer_win.obj
 0004:000002dc       $pdata$?PrintFile@@YAXAEBV?$FunctionCallbackInfo@VValue@v8@@@v8@@@Z 00000001800452dc     node_printer_win.obj
 0004:000002e8       $pdata$??0?$basic_string@DU?$char_traits@D@std@@V?$allocator@D@2@@std@@QEAA@_KD@Z 00000001800452e8     node_printer_win.obj
 0004:000002f4       $pdata$??0?$basic_ostringstream@DU?$char_traits@D@std@@V?$allocator@D@2@@std@@QEAA@H@Z 00000001800452f4     node_printer_win.obj
 0004:00000300       $pdata$?seekpos@?$basic_stringbuf@DU?$char_traits@D@std@@V?$allocator@D@2@@std@@MEAA?AV?$fpos@U_Mbstatet@@@2@V32@H@Z 0000000180045300     node_printer_win.obj
 0004:0000030c       $pdata$?seekoff@?$basic_stringbuf@DU?$char_traits@D@std@@V?$allocator@D@2@@std@@MEAA?AV?$fpos@U_Mbstatet@@@2@_JHH@Z 000000018004530c     node_printer_win.obj
 0004:00000318       $pdata$?overflow@?$basic_stringbuf@DU?$char_traits@D@std@@V?$allocator@D@2@@std@@MEAAHH@Z 0000000180045318     node_printer_win.obj
 0004:00000324       $pdata$??1?$basic_stringbuf@DU?$char_traits@D@std@@V?$allocator@D@2@@std@@UEAA@XZ 0000000180045324     node_printer_win.obj
 0004:00000330       $pdata$??6?$basic_ostream@DU?$char_traits@D@std@@@std@@QEAAAEAV01@K@Z 0000000180045330     node_printer_win.obj
 0004:0000033c       $pdata$1$??6?$basic_ostream@DU?$char_traits@D@std@@@std@@QEAAAEAV01@K@Z 000000018004533c     node_printer_win.obj
 0004:00000348       $pdata$2$??6?$basic_ostream@DU?$char_traits@D@std@@@std@@QEAAAEAV01@K@Z 0000000180045348     node_printer_win.obj
 0004:00000354       $pdata$3$??6?$basic_ostream@DU?$char_traits@D@std@@@std@@QEAAAEAV01@K@Z 0000000180045354     node_printer_win.obj
 0004:00000360       $pdata$4$??6?$basic_ostream@DU?$char_traits@D@std@@@std@@QEAAAEAV01@K@Z 0000000180045360     node_printer_win.obj
 0004:0000036c       $pdata$?xsputn@?$basic_streambuf@DU?$char_traits@D@std@@@std@@MEAA_JPEBD_J@Z 000000018004536c     node_printer_win.obj
 0004:00000378       $pdata$0$?xsputn@?$basic_streambuf@DU?$char_traits@D@std@@@std@@MEAA_JPEBD_J@Z 0000000180045378     node_printer_win.obj
 0004:00000384       $pdata$1$?xsputn@?$basic_streambuf@DU?$char_traits@D@std@@@std@@MEAA_JPEBD_J@Z 0000000180045384     node_printer_win.obj
 0004:00000390       $pdata$?xsgetn@?$basic_streambuf@DU?$char_traits@D@std@@@std@@MEAA_JPEAD_J@Z 0000000180045390     node_printer_win.obj
 0004:0000039c       $pdata$0$?xsgetn@?$basic_streambuf@DU?$char_traits@D@std@@@std@@MEAA_JPEAD_J@Z 000000018004539c     node_printer_win.obj
 0004:000003a8       $pdata$1$?xsgetn@?$basic_streambuf@DU?$char_traits@D@std@@@std@@MEAA_JPEAD_J@Z 00000001800453a8     node_printer_win.obj
 0004:000003b4       $pdata$?uflow@?$basic_streambuf@DU?$char_traits@D@std@@@std@@MEAAHXZ 00000001800453b4     node_printer_win.obj
 0004:000003c0       $pdata$??_G?$basic_ostringstream@DU?$char_traits@D@std@@V?$allocator@D@2@@std@@UEAAPEAXI@Z 00000001800453c0     node_printer_win.obj
 0004:000003cc       $pdata$??_G?$basic_stringbuf@DU?$char_traits@D@std@@V?$allocator@D@2@@std@@UEAAPEAXI@Z 00000001800453cc     node_printer_win.obj
 0004:000003d8       $pdata$??_G?$basic_ostream@DU?$char_traits@D@std@@@std@@UEAAPEAXI@Z 00000001800453d8     node_printer_win.obj
 0004:000003e4       $pdata$??_G?$basic_streambuf@DU?$char_traits@D@std@@@std@@UEAAPEAXI@Z 00000001800453e4     node_printer_win.obj
 0004:000003f0       $pdata$??_G?$basic_ios@DU?$char_traits@D@std@@@std@@UEAAPEAXI@Z 00000001800453f0     node_printer_win.obj
 0004:000003fc       $pdata$??0sentry@?$basic_ostream@DU?$char_traits@D@std@@@std@@QEAA@AEAV12@@Z 00000001800453fc     node_printer_win.obj
 0004:00000408       $pdata$0$??0sentry@?$basic_ostream@DU?$char_traits@D@std@@@std@@QEAA@AEAV12@@Z 0000000180045408     node_printer_win.obj
 0004:00000414       $pdata$1$??0sentry@?$basic_ostream@DU?$char_traits@D@std@@@std@@QEAA@AEAV12@@Z 0000000180045414     node_printer_win.obj
 0004:00000420       $pdata$?do_put@?$num_put@DV?$ostreambuf_iterator@DU?$char_traits@D@std@@@std@@@std@@MEBA?AV?$ostreambuf_iterator@DU?$char_traits@D@std@@@2@V32@AEAVios_base@2@DPEBX@Z 0000000180045420     node_printer_win.obj
 0004:0000042c       $pdata$?do_put@?$num_put@DV?$ostreambuf_iterator@DU?$char_traits@D@std@@@std@@@std@@MEBA?AV?$ostreambuf_iterator@DU?$char_traits@D@std@@@2@V32@AEAVios_base@2@DO@Z 000000018004542c     node_printer_win.obj
 0004:00000438       $pdata$4$?do_put@?$num_put@DV?$ostreambuf_iterator@DU?$char_traits@D@std@@@std@@@std@@MEBA?AV?$ostreambuf_iterator@DU?$char_traits@D@std@@@2@V32@AEAVios_base@2@DO@Z 0000000180045438     node_printer_win.obj
 0004:00000444       $pdata$5$?do_put@?$num_put@DV?$ostreambuf_iterator@DU?$char_traits@D@std@@@std@@@std@@MEBA?AV?$ostreambuf_iterator@DU?$char_traits@D@std@@@2@V32@AEAVios_base@2@DO@Z 0000000180045444     node_printer_win.obj
 0004:00000450       $pdata$6$?do_put@?$num_put@DV?$ostreambuf_iterator@DU?$char_traits@D@std@@@std@@@std@@MEBA?AV?$ostreambuf_iterator@DU?$char_traits@D@std@@@2@V32@AEAVios_base@2@DO@Z 0000000180045450     node_printer_win.obj
 0004:0000045c       $pdata$7$?do_put@?$num_put@DV?$ostreambuf_iterator@DU?$char_traits@D@std@@@std@@@std@@MEBA?AV?$ostreambuf_iterator@DU?$char_traits@D@std@@@2@V32@AEAVios_base@2@DO@Z 000000018004545c     node_printer_win.obj
 0004:00000468       $pdata$8$?do_put@?$num_put@DV?$ostreambuf_iterator@DU?$char_traits@D@std@@@std@@@std@@MEBA?AV?$ostreambuf_iterator@DU?$char_traits@D@std@@@2@V32@AEAVios_base@2@DO@Z 0000000180045468     node_printer_win.obj
 0004:00000474       $pdata$9$?do_put@?$num_put@DV?$ostreambuf_iterator@DU?$char_traits@D@std@@@std@@@std@@MEBA?AV?$ostreambuf_iterator@DU?$char_traits@D@std@@@2@V32@AEAVios_base@2@DO@Z 0000000180045474     node_printer_win.obj
 0004:00000480       $pdata$?do_put@?$num_put@DV?$ostreambuf_iterator@DU?$char_traits@D@std@@@std@@@std@@MEBA?AV?$ostreambuf_iterator@DU?$char_traits@D@std@@@2@V32@AEAVios_base@2@DN@Z 0000000180045480     node_printer_win.obj
 0004:0000048c       $pdata$4$?do_put@?$num_put@DV?$ostreambuf_iterator@DU?$char_traits@D@std@@@std@@@std@@MEBA?AV?$ostreambuf_iterator@DU?$char_traits@D@std@@@2@V32@AEAVios_base@2@DN@Z 000000018004548c     node_printer_win.obj
 0004:00000498       $pdata$5$?do_put@?$num_put@DV?$ostreambuf_iterator@DU?$char_traits@D@std@@@std@@@std@@MEBA?AV?$ostreambuf_iterator@DU?$char_traits@D@std@@@2@V32@AEAVios_base@2@DN@Z 0000000180045498     node_printer_win.obj
 0004:000004a4       $pdata$6$?do_put@?$num_put@DV?$ostreambuf_iterator@DU?$char_traits@D@std@@@std@@@std@@MEBA?AV?$ostreambuf_iterator@DU?$char_traits@D@std@@@2@V32@AEAVios_base@2@DN@Z 00000001800454a4     node_printer_win.obj
 0004:000004b0       $pdata$7$?do_put@?$num_put@DV?$ostreambuf_iterator@DU?$char_traits@D@std@@@std@@@std@@MEBA?AV?$ostreambuf_iterator@DU?$char_traits@D@std@@@2@V32@AEAVios_base@2@DN@Z 00000001800454b0     node_printer_win.obj
 0004:000004bc       $pdata$8$?do_put@?$num_put@DV?$ostreambuf_iterator@DU?$char_traits@D@std@@@std@@@std@@MEBA?AV?$ostreambuf_iterator@DU?$char_traits@D@std@@@2@V32@AEAVios_base@2@DN@Z 00000001800454bc     node_printer_win.obj
 0004:000004c8       $pdata$9$?do_put@?$num_put@DV?$ostreambuf_iterator@DU?$char_traits@D@std@@@std@@@std@@MEBA?AV?$ostreambuf_iterator@DU?$char_traits@D@std@@@2@V32@AEAVios_base@2@DN@Z 00000001800454c8     node_printer_win.obj
 0004:000004d4       $pdata$?do_put@?$num_put@DV?$ostreambuf_iterator@DU?$char_traits@D@std@@@std@@@std@@MEBA?AV?$ostreambuf_iterator@DU?$char_traits@D@std@@@2@V32@AEAVios_base@2@D_K@Z 00000001800454d4     node_printer_win.obj
 0004:000004e0       $pdata$?do_put@?$num_put@DV?$ostreambuf_iterator@DU?$char_traits@D@std@@@std@@@std@@MEBA?AV?$ostreambuf_iterator@DU?$char_traits@D@std@@@2@V32@AEAVios_base@2@D_J@Z 00000001800454e0     node_printer_win.obj
 0004:000004ec       $pdata$?do_put@?$num_put@DV?$ostreambuf_iterator@DU?$char_traits@D@std@@@std@@@std@@MEBA?AV?$ostreambuf_iterator@DU?$char_traits@D@std@@@2@V32@AEAVios_base@2@DK@Z 00000001800454ec     node_printer_win.obj
 0004:000004f8       $pdata$?do_put@?$num_put@DV?$ostreambuf_iterator@DU?$char_traits@D@std@@@std@@@std@@MEBA?AV?$ostreambuf_iterator@DU?$char_traits@D@std@@@2@V32@AEAVios_base@2@DJ@Z 00000001800454f8     node_printer_win.obj
 0004:00000504       $pdata$?do_put@?$num_put@DV?$ostreambuf_iterator@DU?$char_traits@D@std@@@std@@@std@@MEBA?AV?$ostreambuf_iterator@DU?$char_traits@D@std@@@2@V32@AEAVios_base@2@D_N@Z 0000000180045504     node_printer_win.obj
 0004:00000510       $pdata$1$?do_put@?$num_put@DV?$ostreambuf_iterator@DU?$char_traits@D@std@@@std@@@std@@MEBA?AV?$ostreambuf_iterator@DU?$char_traits@D@std@@@2@V32@AEAVios_base@2@D_N@Z 0000000180045510     node_printer_win.obj
 0004:0000051c       $pdata$2$?do_put@?$num_put@DV?$ostreambuf_iterator@DU?$char_traits@D@std@@@std@@@std@@MEBA?AV?$ostreambuf_iterator@DU?$char_traits@D@std@@@2@V32@AEAVios_base@2@D_N@Z 000000018004551c     node_printer_win.obj
 0004:00000528       $pdata$3$?do_put@?$num_put@DV?$ostreambuf_iterator@DU?$char_traits@D@std@@@std@@@std@@MEBA?AV?$ostreambuf_iterator@DU?$char_traits@D@std@@@2@V32@AEAVios_base@2@D_N@Z 0000000180045528     node_printer_win.obj
 0004:00000534       $pdata$4$?do_put@?$num_put@DV?$ostreambuf_iterator@DU?$char_traits@D@std@@@std@@@std@@MEBA?AV?$ostreambuf_iterator@DU?$char_traits@D@std@@@2@V32@AEAVios_base@2@D_N@Z 0000000180045534     node_printer_win.obj
 0004:00000540       $pdata$5$?do_put@?$num_put@DV?$ostreambuf_iterator@DU?$char_traits@D@std@@@std@@@std@@MEBA?AV?$ostreambuf_iterator@DU?$char_traits@D@std@@@2@V32@AEAVios_base@2@D_N@Z 0000000180045540     node_printer_win.obj
 0004:0000054c       $pdata$6$?do_put@?$num_put@DV?$ostreambuf_iterator@DU?$char_traits@D@std@@@std@@@std@@MEBA?AV?$ostreambuf_iterator@DU?$char_traits@D@std@@@2@V32@AEAVios_base@2@D_N@Z 000000018004554c     node_printer_win.obj
 0004:00000558       $pdata$?append@?$basic_string@DU?$char_traits@D@std@@V?$allocator@D@2@@std@@QEAAAEAV12@QEBD_K@Z 0000000180045558     node_printer_win.obj
 0004:00000564       $pdata$0$?append@?$basic_string@DU?$char_traits@D@std@@V?$allocator@D@2@@std@@QEAAAEAV12@QEBD_K@Z 0000000180045564     node_printer_win.obj
 0004:00000570       $pdata$1$?append@?$basic_string@DU?$char_traits@D@std@@V?$allocator@D@2@@std@@QEAAAEAV12@QEBD_K@Z 0000000180045570     node_printer_win.obj
 0004:0000057c       $pdata$?setstate@?$basic_ios@DU?$char_traits@D@std@@@std@@QEAAXH_N@Z 000000018004557c     node_printer_win.obj
 0004:00000588       $pdata$??_G?$num_put@DV?$ostreambuf_iterator@DU?$char_traits@D@std@@@std@@@std@@MEAAPEAXI@Z 0000000180045588     node_printer_win.obj
 0004:00000594       $pdata$?do_truename@?$numpunct@D@std@@MEBA?AV?$basic_string@DU?$char_traits@D@std@@V?$allocator@D@2@@2@XZ 0000000180045594     node_printer_win.obj
 0004:000005a0       $pdata$?do_falsename@?$numpunct@D@std@@MEBA?AV?$basic_string@DU?$char_traits@D@std@@V?$allocator@D@2@@2@XZ 00000001800455a0     node_printer_win.obj
 0004:000005ac       $pdata$?do_grouping@?$numpunct@D@std@@MEBA?AV?$basic_string@DU?$char_traits@D@std@@V?$allocator@D@2@@2@XZ 00000001800455ac     node_printer_win.obj
 0004:000005b8       $pdata$?_Iput@?$num_put@DV?$ostreambuf_iterator@DU?$char_traits@D@std@@@std@@@std@@AEBA?AV?$ostreambuf_iterator@DU?$char_traits@D@std@@@2@V32@AEAVios_base@2@DPEAD_K@Z 00000001800455b8     node_printer_win.obj
 0004:000005c4       $pdata$?_Fput@?$num_put@DV?$ostreambuf_iterator@DU?$char_traits@D@std@@@std@@@std@@AEBA?AV?$ostreambuf_iterator@DU?$char_traits@D@std@@@2@V32@AEAVios_base@2@DPEBD_K@Z 00000001800455c4     node_printer_win.obj
 0004:000005d0       $pdata$?erase@?$_Tree@V?$_Tmap_traits@V?$basic_string@DU?$char_traits@D@std@@V?$allocator@D@2@@std@@KU?$less@V?$basic_string@DU?$char_traits@D@std@@V?$allocator@D@2@@std@@@2@V?$allocator@U?$pair@$$CBV?$basic_string@DU?$char_traits@D@std@@V?$allocator@D@2@@std@@K@std@@@2@$0A@@std@@@std@@QEAA?AV?$_Tree_iterator@V?$_Tree_val@U?$_Tree_simple_types@U?$pair@$$CBV?$basic_string@DU?$char_traits@D@std@@V?$allocator@D@2@@std@@K@std@@@std@@@std@@@2@V?$_Tree_const_iterator@V?$_Tree_val@U?$_Tree_simple_types@U?$pair@$$CBV?$basic_string@DU?$char_traits@D@std@@V?$allocator@D@2@@std@@K@std@@@std@@@std@@@2@0@Z 00000001800455d0     node_printer_win.obj
 0004:000005dc       $pdata$??_G?$numpunct@D@std@@MEAAPEAXI@Z 00000001800455dc     node_printer_win.obj
 0004:000005e8       $pdata$?_Extract@?$_Tree_val@U?$_Tree_simple_types@U?$pair@$$CBV?$basic_string@DU?$char_traits@D@std@@V?$allocator@D@2@@std@@K@std@@@std@@@std@@QEAAPEAU?$_Tree_node@U?$pair@$$CBV?$basic_string@DU?$char_traits@D@std@@V?$allocator@D@2@@std@@K@std@@PEAX@2@V?$_Tree_const_iterator@V?$_Tree_val@U?$_Tree_simple_types@U?$pair@$$CBV?$basic_string@DU?$char_traits@D@std@@V?$allocator@D@2@@std@@K@std@@@std@@@std@@@2@@Z 00000001800455e8     node_printer_win.obj
 0004:000005f4       $pdata$?_Erase@?$_Tree@V?$_Tmap_traits@V?$basic_string@DU?$char_traits@D@std@@V?$allocator@D@2@@std@@KU?$less@V?$basic_string@DU?$char_traits@D@std@@V?$allocator@D@2@@std@@@2@V?$allocator@U?$pair@$$CBV?$basic_string@DU?$char_traits@D@std@@V?$allocator@D@2@@std@@K@std@@@2@$0A@@std@@@std@@IEAAXPEAU?$_Tree_node@U?$pair@$$CBV?$basic_string@DU?$char_traits@D@std@@V?$allocator@D@2@@std@@K@std@@PEAX@2@@Z 00000001800455f4     node_printer_win.obj
 0004:00000600       $pdata$0$?_Erase@?$_Tree@V?$_Tmap_traits@V?$basic_string@DU?$char_traits@D@std@@V?$allocator@D@2@@std@@KU?$less@V?$basic_string@DU?$char_traits@D@std@@V?$allocator@D@2@@std@@@2@V?$allocator@U?$pair@$$CBV?$basic_string@DU?$char_traits@D@std@@V?$allocator@D@2@@std@@K@std@@@2@$0A@@std@@@std@@IEAAXPEAU?$_Tree_node@U?$pair@$$CBV?$basic_string@DU?$char_traits@D@std@@V?$allocator@D@2@@std@@K@std@@PEAX@2@@Z 0000000180045600     node_printer_win.obj
 0004:0000060c       $pdata$1$?_Erase@?$_Tree@V?$_Tmap_traits@V?$basic_string@DU?$char_traits@D@std@@V?$allocator@D@2@@std@@KU?$less@V?$basic_string@DU?$char_traits@D@std@@V?$allocator@D@2@@std@@@2@V?$allocator@U?$pair@$$CBV?$basic_string@DU?$char_traits@D@std@@V?$allocator@D@2@@std@@K@std@@@2@$0A@@std@@@std@@IEAAXPEAU?$_Tree_node@U?$pair@$$CBV?$basic_string@DU?$char_traits@D@std@@V?$allocator@D@2@@std@@K@std@@PEAX@2@@Z 000000018004560c     node_printer_win.obj
 0004:00000618       $pdata$2$?_Erase@?$_Tree@V?$_Tmap_traits@V?$basic_string@DU?$char_traits@D@std@@V?$allocator@D@2@@std@@KU?$less@V?$basic_string@DU?$char_traits@D@std@@V?$allocator@D@2@@std@@@2@V?$allocator@U?$pair@$$CBV?$basic_string@DU?$char_traits@D@std@@V?$allocator@D@2@@std@@K@std@@@2@$0A@@std@@@std@@IEAAXPEAU?$_Tree_node@U?$pair@$$CBV?$basic_string@DU?$char_traits@D@std@@V?$allocator@D@2@@std@@K@std@@PEAX@2@@Z 0000000180045618     node_printer_win.obj
 0004:00000624       $pdata$?_Xran@?$_String_val@U?$_Simple_types@D@std@@@std@@SAXXZ 0000000180045624     node_printer_win.obj
 0004:00000630       $pdata$??$use_facet@V?$ctype@D@std@@@std@@YAAEBV?$ctype@D@0@AEBVlocale@0@@Z 0000000180045630     node_printer_win.obj
 0004:0000063c       $pdata$??$insert@U?$pair@PEBDH@std@@X@?$map@V?$basic_string@DU?$char_traits@D@std@@V?$allocator@D@2@@std@@KU?$less@V?$basic_string@DU?$char_traits@D@std@@V?$allocator@D@2@@std@@@2@V?$allocator@U?$pair@$$CBV?$basic_string@DU?$char_traits@D@std@@V?$allocator@D@2@@std@@K@std@@@2@@std@@QEAA?AU?$pair@V?$_Tree_iterator@V?$_Tree_val@U?$_Tree_simple_types@U?$pair@$$CBV?$basic_string@DU?$char_traits@D@std@@V?$allocator@D@2@@std@@K@std@@@std@@@std@@@std@@_N@1@$$QEAU?$pair@PEBDH@1@@Z 000000018004563c     node_printer_win.obj
 0004:00000648       $pdata$??$?6U?$char_traits@D@std@@@std@@YAAEAV?$basic_ostream@DU?$char_traits@D@std@@@0@AEAV10@PEBD@Z 0000000180045648     node_printer_win.obj
 0004:00000654       $pdata$??$use_facet@V?$num_put@DV?$ostreambuf_iterator@DU?$char_traits@D@std@@@std@@@std@@@std@@YAAEBV?$num_put@DV?$ostreambuf_iterator@DU?$char_traits@D@std@@@std@@@0@AEBVlocale@0@@Z 0000000180045654     node_printer_win.obj
 0004:00000660       $pdata$??$use_facet@V?$numpunct@D@std@@@std@@YAAEBV?$numpunct@D@0@AEBVlocale@0@@Z 0000000180045660     node_printer_win.obj
 0004:0000066c       $pdata$??$_Reallocate_grow_by@V<lambda_e1befb086ad3257e3f042a63030725f7>@@_KD@?$basic_string@DU?$char_traits@D@std@@V?$allocator@D@2@@std@@QEAAAEAV01@_KV<lambda_e1befb086ad3257e3f042a63030725f7>@@_KD@Z 000000018004566c     node_printer_win.obj
 0004:00000678       $pdata$3$??$_Reallocate_grow_by@V<lambda_e1befb086ad3257e3f042a63030725f7>@@_KD@?$basic_string@DU?$char_traits@D@std@@V?$allocator@D@2@@std@@QEAAAEAV01@_KV<lambda_e1befb086ad3257e3f042a63030725f7>@@_KD@Z 0000000180045678     node_printer_win.obj
 0004:00000684       $pdata$4$??$_Reallocate_grow_by@V<lambda_e1befb086ad3257e3f042a63030725f7>@@_KD@?$basic_string@DU?$char_traits@D@std@@V?$allocator@D@2@@std@@QEAAAEAV01@_KV<lambda_e1befb086ad3257e3f042a63030725f7>@@_KD@Z 0000000180045684     node_printer_win.obj
 0004:00000690       $pdata$5$??$_Reallocate_grow_by@V<lambda_e1befb086ad3257e3f042a63030725f7>@@_KD@?$basic_string@DU?$char_traits@D@std@@V?$allocator@D@2@@std@@QEAAAEAV01@_KV<lambda_e1befb086ad3257e3f042a63030725f7>@@_KD@Z 0000000180045690     node_printer_win.obj
 0004:0000069c       $pdata$??$_Reallocate_grow_by@V<lambda_65e615be2a453ca0576c979606f46740>@@PEBD_K@?$basic_string@DU?$char_traits@D@std@@V?$allocator@D@2@@std@@QEAAAEAV01@_KV<lambda_65e615be2a453ca0576c979606f46740>@@PEBD_K@Z 000000018004569c     node_printer_win.obj
 0004:000006a8       $pdata$3$??$_Reallocate_grow_by@V<lambda_65e615be2a453ca0576c979606f46740>@@PEBD_K@?$basic_string@DU?$char_traits@D@std@@V?$allocator@D@2@@std@@QEAAAEAV01@_KV<lambda_65e615be2a453ca0576c979606f46740>@@PEBD_K@Z 00000001800456a8     node_printer_win.obj
 0004:000006b4       $pdata$4$??$_Reallocate_grow_by@V<lambda_65e615be2a453ca0576c979606f46740>@@PEBD_K@?$basic_string@DU?$char_traits@D@std@@V?$allocator@D@2@@std@@QEAAAEAV01@_KV<lambda_65e615be2a453ca0576c979606f46740>@@PEBD_K@Z 00000001800456b4     node_printer_win.obj
 0004:000006c0       $pdata$5$??$_Reallocate_grow_by@V<lambda_65e615be2a453ca0576c979606f46740>@@PEBD_K@?$basic_string@DU?$char_traits@D@std@@V?$allocator@D@2@@std@@QEAAAEAV01@_KV<lambda_65e615be2a453ca0576c979606f46740>@@PEBD_K@Z 00000001800456c0     node_printer_win.obj
 0004:000006cc       $pdata$??$_Reallocate_grow_by@V<lambda_b986da8d428e4af07c64af60eec09b61>@@_K_KD@?$basic_string@DU?$char_traits@D@std@@V?$allocator@D@2@@std@@QEAAAEAV01@_KV<lambda_b986da8d428e4af07c64af60eec09b61>@@_K2D@Z 00000001800456cc     node_printer_win.obj
 0004:000006d8       $pdata$3$??$_Reallocate_grow_by@V<lambda_b986da8d428e4af07c64af60eec09b61>@@_K_KD@?$basic_string@DU?$char_traits@D@std@@V?$allocator@D@2@@std@@QEAAAEAV01@_KV<lambda_b986da8d428e4af07c64af60eec09b61>@@_K2D@Z 00000001800456d8     node_printer_win.obj
 0004:000006e4       $pdata$4$??$_Reallocate_grow_by@V<lambda_b986da8d428e4af07c64af60eec09b61>@@_K_KD@?$basic_string@DU?$char_traits@D@std@@V?$allocator@D@2@@std@@QEAAAEAV01@_KV<lambda_b986da8d428e4af07c64af60eec09b61>@@_K2D@Z 00000001800456e4     node_printer_win.obj
 0004:000006f0       $pdata$5$??$_Reallocate_grow_by@V<lambda_b986da8d428e4af07c64af60eec09b61>@@_K_KD@?$basic_string@DU?$char_traits@D@std@@V?$allocator@D@2@@std@@QEAAAEAV01@_KV<lambda_b986da8d428e4af07c64af60eec09b61>@@_K2D@Z 00000001800456f0     node_printer_win.obj
 0004:000006fc       $pdata$?_Getcat@?$numpunct@D@std@@SA_KPEAPEBVfacet@locale@2@PEBV42@@Z 00000001800456fc     node_printer_win.obj
 0004:00000708       $pdata$??$_Insert_string@DU?$char_traits@D@std@@_K@std@@YAAEAV?$basic_ostream@DU?$char_traits@D@std@@@0@AEAV10@QEBD_K@Z 0000000180045708     node_printer_win.obj
 0004:00000714       $pdata$??$_Insert_nohint@AEAU?$pair@$$CBV?$basic_string@DU?$char_traits@D@std@@V?$allocator@D@2@@std@@K@std@@PEAU?$_Tree_node@U?$pair@$$CBV?$basic_string@DU?$char_traits@D@std@@V?$allocator@D@2@@std@@K@std@@PEAX@2@@?$_Tree@V?$_Tmap_traits@V?$basic_string@DU?$char_traits@D@std@@V?$allocator@D@2@@std@@KU?$less@V?$basic_string@DU?$char_traits@D@std@@V?$allocator@D@2@@std@@@2@V?$allocator@U?$pair@$$CBV?$basic_string@DU?$char_traits@D@std@@V?$allocator@D@2@@std@@K@std@@@2@$0A@@std@@@std@@IEAA?AU?$pair@V?$_Tree_iterator@V?$_Tree_val@U?$_Tree_simple_types@U?$pair@$$CBV?$basic_string@DU?$char_traits@D@std@@V?$allocator@D@2@@std@@K@std@@@std@@@std@@@std@@_N@1@_NAEAU?$pair@$$CBV?$basic_string@DU?$char_traits@D@std@@V?$allocator@D@2@@std@@K@1@PEAU?$_Tree_node@U?$pair@$$CBV?$basic_string@DU?$char_traits@D@std@@V?$allocator@D@2@@std@@K@std@@PEAX@1@@Z 0000000180045714     node_printer_win.obj
 0004:00000720       $pdata$?_Destroy_if_node@?$_Tree@V?$_Tmap_traits@V?$basic_string@DU?$char_traits@D@std@@V?$allocator@D@2@@std@@KU?$less@V?$basic_string@DU?$char_traits@D@std@@V?$allocator@D@2@@std@@@2@V?$allocator@U?$pair@$$CBV?$basic_string@DU?$char_traits@D@std@@V?$allocator@D@2@@std@@K@std@@@2@$0A@@std@@@std@@IEAAXPEAU?$_Tree_node@U?$pair@$$CBV?$basic_string@DU?$char_traits@D@std@@V?$allocator@D@2@@std@@K@std@@PEAX@2@@Z 0000000180045720     node_printer_win.obj
 0004:0000072c       $pdata$??$_Insert_at@AEAU?$pair@$$CBV?$basic_string@DU?$char_traits@D@std@@V?$allocator@D@2@@std@@K@std@@PEAU?$_Tree_node@U?$pair@$$CBV?$basic_string@DU?$char_traits@D@std@@V?$allocator@D@2@@std@@K@std@@PEAX@2@@?$_Tree@V?$_Tmap_traits@V?$basic_string@DU?$char_traits@D@std@@V?$allocator@D@2@@std@@KU?$less@V?$basic_string@DU?$char_traits@D@std@@V?$allocator@D@2@@std@@@2@V?$allocator@U?$pair@$$CBV?$basic_string@DU?$char_traits@D@std@@V?$allocator@D@2@@std@@K@std@@@2@$0A@@std@@@std@@IEAA?AV?$_Tree_iterator@V?$_Tree_val@U?$_Tree_simple_types@U?$pair@$$CBV?$basic_string@DU?$char_traits@D@std@@V?$allocator@D@2@@std@@K@std@@@std@@@std@@@1@_NPEAU?$_Tree_node@U?$pair@$$CBV?$basic_string@DU?$char_traits@D@std@@V?$allocator@D@2@@std@@K@std@@PEAX@1@AEAU?$pair@$$CBV?$basic_string@DU?$char_traits@D@std@@V?$allocator@D@2@@std@@K@1@1@Z 000000018004572c     node_printer_win.obj
 0004:00000738       $pdata$0$??$_Insert_at@AEAU?$pair@$$CBV?$basic_string@DU?$char_traits@D@std@@V?$allocator@D@2@@std@@K@std@@PEAU?$_Tree_node@U?$pair@$$CBV?$basic_string@DU?$char_traits@D@std@@V?$allocator@D@2@@std@@K@std@@PEAX@2@@?$_Tree@V?$_Tmap_traits@V?$basic_string@DU?$char_traits@D@std@@V?$allocator@D@2@@std@@KU?$less@V?$basic_string@DU?$char_traits@D@std@@V?$allocator@D@2@@std@@@2@V?$allocator@U?$pair@$$CBV?$basic_string@DU?$char_traits@D@std@@V?$allocator@D@2@@std@@K@std@@@2@$0A@@std@@@std@@IEAA?AV?$_Tree_iterator@V?$_Tree_val@U?$_Tree_simple_types@U?$pair@$$CBV?$basic_string@DU?$char_traits@D@std@@V?$allocator@D@2@@std@@K@std@@@std@@@std@@@1@_NPEAU?$_Tree_node@U?$pair@$$CBV?$basic_string@DU?$char_traits@D@std@@V?$allocator@D@2@@std@@K@std@@PEAX@1@AEAU?$pair@$$CBV?$basic_string@DU?$char_traits@D@std@@V?$allocator@D@2@@std@@K@1@1@Z 0000000180045738     node_printer_win.obj
 0004:00000744       $pdata$1$??$_Insert_at@AEAU?$pair@$$CBV?$basic_string@DU?$char_traits@D@std@@V?$allocator@D@2@@std@@K@std@@PEAU?$_Tree_node@U?$pair@$$CBV?$basic_string@DU?$char_traits@D@std@@V?$allocator@D@2@@std@@K@std@@PEAX@2@@?$_Tree@V?$_Tmap_traits@V?$basic_string@DU?$char_traits@D@std@@V?$allocator@D@2@@std@@KU?$less@V?$basic_string@DU?$char_traits@D@std@@V?$allocator@D@2@@std@@@2@V?$allocator@U?$pair@$$CBV?$basic_string@DU?$char_traits@D@std@@V?$allocator@D@2@@std@@K@std@@@2@$0A@@std@@@std@@IEAA?AV?$_Tree_iterator@V?$_Tree_val@U?$_Tree_simple_types@U?$pair@$$CBV?$basic_string@DU?$char_traits@D@std@@V?$allocator@D@2@@std@@K@std@@@std@@@std@@@1@_NPEAU?$_Tree_node@U?$pair@$$CBV?$basic_string@DU?$char_traits@D@std@@V?$allocator@D@2@@std@@K@std@@PEAX@1@AEAU?$pair@$$CBV?$basic_string@DU?$char_traits@D@std@@V?$allocator@D@2@@std@@K@1@1@Z 0000000180045744     node_printer_win.obj
 0004:00000750       $pdata$?MySetPrinter@@YAHPEADFFF@Z 0000000180045750     setprinter.obj
 0004:0000075c       $pdata$?load_exe_hook@@YAP6A_JXZIPEAUDelayLoadInfo@@@Z 000000018004575c     win_delay_load_hook.obj
 0004:00000774       $pdata$??0bad_alloc@std@@QEAA@AEBV01@@Z 0000000180045774     libcpmt:xthrow.obj
 0004:00000780       $pdata$??0exception@std@@QEAA@AEBV01@@Z 0000000180045780     libcpmt:xthrow.obj
 0004:0000078c       $pdata$??0length_error@std@@QEAA@AEBV01@@Z 000000018004578c     libcpmt:xthrow.obj
 0004:00000798       $pdata$??0length_error@std@@QEAA@PEBD@Z 0000000180045798     libcpmt:xthrow.obj
 0004:000007a4       $pdata$??0logic_error@std@@QEAA@AEBV01@@Z 00000001800457a4     libcpmt:xthrow.obj
 0004:000007b0       $pdata$??0out_of_range@std@@QEAA@AEBV01@@Z 00000001800457b0     libcpmt:xthrow.obj
 0004:000007bc       $pdata$??0out_of_range@std@@QEAA@PEBD@Z 00000001800457bc     libcpmt:xthrow.obj
 0004:000007c8       $pdata$??_Gbad_array_new_length@std@@UEAAPEAXI@Z 00000001800457c8     LIBCMT:throw_bad_alloc.obj
 0004:000007c8       $pdata$??_Glength_error@std@@UEAAPEAXI@Z 00000001800457c8     libcpmt:xthrow.obj
 0004:000007c8       $pdata$??_Gbad_alloc@std@@UEAAPEAXI@Z 00000001800457c8     libcpmt:xthrow.obj
 0004:000007c8       $pdata$??_Glogic_error@std@@UEAAPEAXI@Z 00000001800457c8     libcpmt:xthrow.obj
 0004:000007c8       $pdata$??_Gexception@std@@UEAAPEAXI@Z 00000001800457c8     libcpmt:xthrow.obj
 0004:000007c8       $pdata$??_Gbad_exception@std@@UEAAPEAXI@Z 00000001800457c8     libvcruntime:frame.obj
 0004:000007c8       $pdata$??_Gout_of_range@std@@UEAAPEAXI@Z 00000001800457c8     libcpmt:xthrow.obj
 0004:000007d4       $pdata$?_Xbad_alloc@std@@YAXXZ 00000001800457d4     libcpmt:xthrow.obj
 0004:000007d4       $pdata$?__scrt_throw_std_bad_alloc@@YAXXZ 00000001800457d4     LIBCMT:throw_bad_alloc.obj
 0004:000007e0       $pdata$?_Xlength_error@std@@YAXPEBD@Z 00000001800457e0     libcpmt:xthrow.obj
 0004:000007ec       $pdata$?_Xout_of_range@std@@YAXPEBD@Z 00000001800457ec     libcpmt:xthrow.obj
 0004:000007f8       $pdata$??0_Init_locks@std@@QEAA@XZ 00000001800457f8     libcpmt:xlock.obj
 0004:00000804       $pdata$??0_Lockit@std@@QEAA@H@Z 0000000180045804     libcpmt:xlock.obj
 0004:00000810       $pdata$??1_Init_locks@std@@QEAA@XZ 0000000180045810     libcpmt:xlock.obj
 0004:0000081c       $pdata$??1_Lockit@std@@QEAA@XZ 000000018004581c     libcpmt:xlock.obj
 0004:00000828       $pdata$??1_Fac_tidy_reg_t@std@@QEAA@XZ 0000000180045828     libcpmt:locale0.obj
 0004:00000834       $pdata$??4?$_Yarn@D@std@@QEAAAEAV01@PEBD@Z 0000000180045834     libcpmt:locale0.obj
 0004:00000840       $pdata$??_G_Locimp@locale@std@@MEAAPEAXI@Z 0000000180045840     libcpmt:locale0.obj
 0004:0000084c       $pdata$?_Facet_Register@std@@YAXPEAV_Facet_base@1@@Z 000000018004584c     libcpmt:locale0.obj
 0004:00000858       $pdata$?_Init@locale@std@@CAPEAV_Locimp@12@_N@Z 0000000180045858     libcpmt:locale0.obj
 0004:00000864       $pdata$?_Locimp_dtor@_Locimp@locale@std@@CAXPEAV123@@Z 0000000180045864     libcpmt:locale0.obj
 0004:00000870       $pdata$?_Locinfo_ctor@_Locinfo@std@@SAXPEAV12@PEBD@Z 0000000180045870     libcpmt:locale0.obj
 0004:0000087c       $pdata$?_Locinfo_dtor@_Locinfo@std@@SAXPEAV12@@Z 000000018004587c     libcpmt:locale0.obj
 0004:00000888       $pdata$?_New_Locimp@_Locimp@locale@std@@CAPEAV123@_N@Z 0000000180045888     libcpmt:locale0.obj
 0004:00000894       $pdata$?_Setgloballocale@locale@std@@CAXPEAX@Z 0000000180045894     libcpmt:locale0.obj
 0004:000008a0       $pdata$_Deletegloballocale 00000001800458a0     libcpmt:locale0.obj
 0004:000008ac       $pdata$tidy_global         00000001800458ac     libcpmt:locale0.obj
 0004:000008b8       $pdata$?_Ios_base_dtor@ios_base@std@@CAXPEAV12@@Z 00000001800458b8     libcpmt:ios.obj
 0004:000008c4       $pdata$?_Tidy@ios_base@std@@AEAAXXZ 00000001800458c4     libcpmt:ios.obj
 0004:000008d0       $pdata$_Getctype           00000001800458d0     libcpmt:_tolower.obj
 0004:000008dc       $pdata$_Tolower            00000001800458dc     libcpmt:_tolower.obj
 0004:000008e8       $pdata$_Getcvt             00000001800458e8     libcpmt:xwctomb.obj
 0004:000008f4       $pdata$_Toupper            00000001800458f4     libcpmt:_toupper.obj
 0004:00000900       $pdata$?initialize_pointers@@YAHXZ 0000000180045900     libcpmt:winapisupp.obj
 0004:0000090c       $pdata$__crtInitOnceExecuteOnce 000000018004590c     libcpmt:winapisupp.obj
 0004:00000918       $pdata$__crtInitializeCriticalSectionEx 0000000180045918     libcpmt:winapisupp.obj
 0004:00000924       $pdata$?_Atexit@@YAXP6AXXZ@Z 0000000180045924     libcpmt:iosptrs.obj
 0004:00000930       $pdata$__crtLCMapStringA   0000000180045930     libcpmt:StlLCMapStringA.obj
 0004:0000093c       $pdata$GetTableIndexFromLocaleName 000000018004593c     libcpmt:winapinls.obj
 0004:00000948       $pdata$__crtDownlevelLocaleNameToLCID 0000000180045948     libcpmt:winapinls.obj
 0004:00000954       $pdata$__crtLCMapStringEx  0000000180045954     libcpmt:winapinls.obj
 0004:0000096c       $pdata$??2@YAPEAX_K@Z      000000018004596c     LIBCMT:new_scalar.obj
 0004:00000978       $pdata$?__scrt_initialize_thread_safe_statics@@YAHXZ 0000000180045978     LIBCMT:thread_safe_statics.obj
 0004:00000984       $pdata$?__scrt_uninitialize_thread_safe_statics@@YAXXZ 0000000180045984     LIBCMT:thread_safe_statics.obj
 0004:00000990       $pdata$_Init_thread_footer 0000000180045990     LIBCMT:thread_safe_statics.obj
 0004:0000099c       $pdata$_Init_thread_header 000000018004599c     LIBCMT:thread_safe_statics.obj
 0004:000009a8       $pdata$_Init_thread_notify 00000001800459a8     LIBCMT:thread_safe_statics.obj
 0004:000009b4       $pdata$_Init_thread_wait   00000001800459b4     LIBCMT:thread_safe_statics.obj
 0004:000009c0       $pdata$__scrt_acquire_startup_lock 00000001800459c0     LIBCMT:utility.obj
 0004:000009cc       $pdata$__scrt_dllmain_after_initialize_c 00000001800459cc     LIBCMT:utility.obj
 0004:000009d8       $pdata$__scrt_dllmain_before_initialize_c 00000001800459d8     LIBCMT:utility.obj
 0004:000009e4       $pdata$__scrt_dllmain_crt_thread_attach 00000001800459e4     LIBCMT:utility.obj
 0004:000009f0       $pdata$__scrt_dllmain_crt_thread_detach 00000001800459f0     LIBCMT:utility.obj
 0004:000009fc       $pdata$__scrt_dllmain_exception_filter 00000001800459fc     LIBCMT:utility.obj
 0004:00000a08       $pdata$__scrt_dllmain_uninitialize_c 0000000180045a08     LIBCMT:utility.obj
 0004:00000a14       $pdata$__scrt_dllmain_uninitialize_critical 0000000180045a14     LIBCMT:utility.obj
 0004:00000a20       $pdata$__scrt_initialize_crt 0000000180045a20     LIBCMT:utility.obj
 0004:00000a2c       $pdata$__scrt_initialize_onexit_tables 0000000180045a2c     LIBCMT:utility.obj
 0004:00000a38       $pdata$__scrt_is_nonwritable_in_current_image 0000000180045a38     LIBCMT:utility.obj
 0004:00000a44       $pdata$__scrt_release_startup_lock 0000000180045a44     LIBCMT:utility.obj
 0004:00000a50       $pdata$__scrt_uninitialize_crt 0000000180045a50     LIBCMT:utility.obj
 0004:00000a5c       $pdata$_onexit             0000000180045a5c     LIBCMT:utility.obj
 0004:00000a68       $pdata$atexit              0000000180045a68     LIBCMT:utility.obj
 0004:00000a74       $pdata$?dllmain_crt_dispatch@@YAHQEAUHINSTANCE__@@KQEAX@Z 0000000180045a74     LIBCMT:dll_dllmain.obj
 0004:00000a80       $pdata$?dllmain_crt_process_attach@@YAHQEAUHINSTANCE__@@QEAX@Z 0000000180045a80     LIBCMT:dll_dllmain.obj
 0004:00000a8c       $pdata$?dllmain_crt_process_detach@@YAH_N@Z 0000000180045a8c     LIBCMT:dll_dllmain.obj
 0004:00000a98       $pdata$?dllmain_dispatch@@YAHQEAUHINSTANCE__@@KQEAX@Z 0000000180045a98     LIBCMT:dll_dllmain.obj
 0004:00000aa4       $pdata$_DllMainCRTStartup  0000000180045aa4     LIBCMT:dll_dllmain.obj
 0004:00000ab0       $pdata$??_Gtype_info@@UEAAPEAXI@Z 0000000180045ab0     LIBCMT:std_type_info_static.obj
 0004:00000abc       $pdata$__GSHandlerCheck    0000000180045abc     LIBCMT:gshandler.obj
 0004:00000ac8       $pdata$__GSHandlerCheckCommon 0000000180045ac8     LIBCMT:gshandler.obj
 0004:00000ad4       $pdata$__GSHandlerCheck_EH 0000000180045ad4     LIBCMT:gshandlereh.obj
 0004:00000aec       $pdata$__raise_securityfailure 0000000180045aec     LIBCMT:gs_report.obj
 0004:00000af8       $pdata$__report_gsfailure  0000000180045af8     LIBCMT:gs_report.obj
 0004:00000b04       $pdata$__report_rangecheckfailure 0000000180045b04     LIBCMT:gs_report.obj
 0004:00000b10       $pdata$__report_securityfailure 0000000180045b10     LIBCMT:gs_report.obj
 0004:00000b1c       $pdata$capture_current_context 0000000180045b1c     LIBCMT:gs_report.obj
 0004:00000b28       $pdata$capture_previous_context 0000000180045b28     LIBCMT:gs_report.obj
 0004:00000b34       $pdata$??0bad_array_new_length@std@@QEAA@AEBV01@@Z 0000000180045b34     LIBCMT:throw_bad_alloc.obj
 0004:00000b40       $pdata$?__scrt_throw_std_bad_array_new_length@@YAXXZ 0000000180045b40     LIBCMT:throw_bad_alloc.obj
 0004:00000b4c       $pdata$__scrt_fastfail     0000000180045b4c     LIBCMT:utility_desktop.obj
 0004:00000b58       $pdata$__isa_available_init 0000000180045b58     LIBCMT:cpu_disp.obj
 0004:00000b64       $pdata$__security_init_cookie 0000000180045b64     LIBCMT:gs_support.obj
 0004:00000b70       $pdata$__scrt_initialize_default_local_stdio_options 0000000180045b70     LIBCMT:default_local_stdio_options.obj
 0004:00000b7c       $pdata$_RTC_Initialize     0000000180045b7c     LIBCMT:initsect.obj
 0004:00000b88       $pdata$_RTC_Terminate      0000000180045b88     LIBCMT:initsect.obj
 0004:00000b94       $pdata$_purecall           0000000180045b94     libvcruntime:purevirt.obj
 0004:00000ba0       $pdata$__std_exception_copy 0000000180045ba0     libvcruntime:std_exception.obj
 0004:00000bac       $pdata$__std_exception_destroy 0000000180045bac     libvcruntime:std_exception.obj
 0004:00000bb8       $pdata$_CxxThrowException  0000000180045bb8     libvcruntime:throw.obj
 0004:00000bc4       $pdata$??$_CallSETranslator@V__FrameHandler3@@@@YAHPEAUEHExceptionRecord@@PEA_KPEAU_CONTEXT@@PEAU_xDISPATCHER_CONTEXT@@PEBU_s_FuncInfo@@K1@Z 0000000180045bc4     libvcruntime:risctrnsctrl.obj
 0004:00000bd0       $pdata$?CatchTryBlock@__FrameHandler3@@SAPEBU_s_TryBlockMapEntry@@PEBU_s_FuncInfo@@H@Z 0000000180045bd0     libvcruntime:risctrnsctrl.obj
 0004:00000bdc       $pdata$?ExecutionInCatch@__FrameHandler3@@SA_NPEAU_xDISPATCHER_CONTEXT@@PEBU_s_FuncInfo@@@Z 0000000180045bdc     libvcruntime:risctrnsctrl.obj
 0004:00000be8       $pdata$?FrameUnwindToEmptyState@__FrameHandler3@@SAXPEA_KPEAU_xDISPATCHER_CONTEXT@@PEBU_s_FuncInfo@@@Z 0000000180045be8     libvcruntime:risctrnsctrl.obj
 0004:00000bf4       $pdata$?GetEstablisherFrame@__FrameHandler3@@SAPEA_KPEA_KPEAU_xDISPATCHER_CONTEXT@@PEBU_s_FuncInfo@@0@Z 0000000180045bf4     libvcruntime:risctrnsctrl.obj
 0004:00000c00       $pdata$?GetRangeOfTrysToCheck@__FrameHandler3@@SA?AU?$pair@Viterator@TryBlockMap@__FrameHandler3@@V123@@std@@AEAVTryBlockMap@1@HH@Z 0000000180045c00     libvcruntime:risctrnsctrl.obj
 0004:00000c0c       $pdata$?UnwindNestedFrames@__FrameHandler3@@SAXPEA_KPEAUEHExceptionRecord@@PEAU_CONTEXT@@0PEAXPEBU_s_FuncInfo@@HHPEBU_s_HandlerType@@PEAU_xDISPATCHER_CONTEXT@@E@Z 0000000180045c0c     libvcruntime:risctrnsctrl.obj
 0004:00000c18       $pdata$_CreateFrameInfo    0000000180045c18     libvcruntime:risctrnsctrl.obj
 0004:00000c24       $pdata$_FindAndUnlinkFrame 0000000180045c24     libvcruntime:risctrnsctrl.obj
 0004:00000c30       $pdata$_GetImageBase       0000000180045c30     libvcruntime:risctrnsctrl.obj
 0004:00000c3c       $pdata$_GetThrowImageBase  0000000180045c3c     libvcruntime:risctrnsctrl.obj
 0004:00000c48       $pdata$_SetImageBase       0000000180045c48     libvcruntime:risctrnsctrl.obj
 0004:00000c54       $pdata$_SetThrowImageBase  0000000180045c54     libvcruntime:risctrnsctrl.obj
 0004:00000c60       $pdata$__CxxFrameHandler3  0000000180045c60     libvcruntime:risctrnsctrl.obj
 0004:00000c9c       $pdata$__DestructExceptionObject 0000000180045c9c     libvcruntime:ehhelpers.obj
 0004:00000ca8       $pdata$_IsExceptionObjectToBeDestroyed 0000000180045ca8     libvcruntime:ehhelpers.obj
 0004:00000cb4       $pdata$__FrameUnwindFilter 0000000180045cb4     libvcruntime:ehhelpers.obj
 0004:00000cc0       $pdata$__std_terminate     0000000180045cc0     libvcruntime:ehhelpers.obj
 0004:00000ce4       $pdata$__vcrt_initialize   0000000180045ce4     libvcruntime:initialization.obj
 0004:00000cf0       $pdata$__vcrt_thread_attach 0000000180045cf0     libvcruntime:initialization.obj
 0004:00000cfc       $pdata$__vcrt_thread_detach 0000000180045cfc     libvcruntime:initialization.obj
 0004:00000d08       $pdata$__vcrt_uninitialize 0000000180045d08     libvcruntime:initialization.obj
 0004:00000d14       $pdata$__vcrt_uninitialize_critical 0000000180045d14     libvcruntime:initialization.obj
 0004:00000d20       $pdata$__C_specific_handler 0000000180045d20     libvcruntime:riscchandler.obj
 0004:00000d2c       $pdata$__std_type_info_destroy_list 0000000180045d2c     libvcruntime:std_type_info.obj
 0004:00000d38       $pdata$__vcrt_freefls      0000000180045d38     libvcruntime:per_thread_data.obj
 0004:00000d44       $pdata$__vcrt_freeptd      0000000180045d44     libvcruntime:per_thread_data.obj
 0004:00000d50       $pdata$__vcrt_getptd       0000000180045d50     libvcruntime:per_thread_data.obj
 0004:00000d5c       $pdata$__vcrt_getptd_noexit 0000000180045d5c     libvcruntime:per_thread_data.obj
 0004:00000d68       $pdata$__vcrt_initialize_ptd 0000000180045d68     libvcruntime:per_thread_data.obj
 0004:00000d74       $pdata$__vcrt_uninitialize_ptd 0000000180045d74     libvcruntime:per_thread_data.obj
 0004:00000d80       $pdata$?GetCurrentState@__FrameHandler3@@SAHPEA_KPEAU_xDISPATCHER_CONTEXT@@PEBU_s_FuncInfo@@@Z 0000000180045d80     libvcruntime:ehstate.obj
 0004:00000d8c       $pdata$?GetUnwindTryBlock@__FrameHandler3@@SAHPEA_KPEAU_xDISPATCHER_CONTEXT@@PEBU_s_FuncInfo@@@Z 0000000180045d8c     libvcruntime:ehstate.obj
 0004:00000d98       $pdata$?SetUnwindTryBlock@__FrameHandler3@@SAXPEA_KPEAU_xDISPATCHER_CONTEXT@@PEBU_s_FuncInfo@@H@Z 0000000180045d98     libvcruntime:ehstate.obj
 0004:00000da4       $pdata$?StateFromIp@__FrameHandler3@@SAHPEBU_s_FuncInfo@@PEAU_xDISPATCHER_CONTEXT@@_K@Z 0000000180045da4     libvcruntime:ehstate.obj
 0004:00000db0       $pdata$??$BuildCatchObjectHelperInternal@V__FrameHandler3@@@@YAHPEAUEHExceptionRecord@@PEAXPEBU_s_HandlerType@@PEBU_s_CatchableType@@@Z 0000000180045db0     libvcruntime:frame.obj
 0004:00000dbc       $pdata$??$BuildCatchObjectInternal@V__FrameHandler3@@@@YAXPEAUEHExceptionRecord@@PEAXPEBU_s_HandlerType@@PEBU_s_CatchableType@@@Z 0000000180045dbc     libvcruntime:frame.obj
 0004:00000dc8       $pdata$??$CatchIt@V__FrameHandler3@@@@YAXPEAUEHExceptionRecord@@PEA_KPEAU_CONTEXT@@PEAU_xDISPATCHER_CONTEXT@@PEBU_s_FuncInfo@@PEBU_s_HandlerType@@PEBU_s_CatchableType@@PEBU_s_TryBlockMapEntry@@H1EE@Z 0000000180045dc8     libvcruntime:frame.obj
 0004:00000dd4       $pdata$??$FindHandler@V__FrameHandler3@@@@YAXPEAUEHExceptionRecord@@PEA_KPEAU_CONTEXT@@PEAU_xDISPATCHER_CONTEXT@@PEBU_s_FuncInfo@@EH1@Z 0000000180045dd4     libvcruntime:frame.obj
 0004:00000de0       $pdata$??$FindHandlerForForeignException@V__FrameHandler3@@@@YAXPEAUEHExceptionRecord@@PEA_KPEAU_CONTEXT@@PEAU_xDISPATCHER_CONTEXT@@PEBU_s_FuncInfo@@HH1@Z 0000000180045de0     libvcruntime:frame.obj
 0004:00000dec       $pdata$??$TypeMatchHelper@V__FrameHandler3@@@@YAHPEBU_s_HandlerType@@PEBU_s_CatchableType@@PEBU_s_ThrowInfo@@@Z 0000000180045dec     libvcruntime:frame.obj
 0004:00000df8       $pdata$??$__InternalCxxFrameHandler@V__FrameHandler3@@@@YA?AW4_EXCEPTION_DISPOSITION@@PEAUEHExceptionRecord@@PEA_KPEAU_CONTEXT@@PEAU_xDISPATCHER_CONTEXT@@PEBU_s_FuncInfo@@H1E@Z 0000000180045df8     libvcruntime:frame.obj
 0004:00000e04       $pdata$??0bad_exception@std@@QEAA@AEBV01@@Z 0000000180045e04     libvcruntime:frame.obj
 0004:00000e10       $pdata$?CxxCallCatchBlock@__FrameHandler3@@SAPEAXPEAU_EXCEPTION_RECORD@@@Z 0000000180045e10     libvcruntime:frame.obj
 0004:00000e1c       $pdata$?ExFilterRethrow@@YAHPEAU_EXCEPTION_POINTERS@@PEAUEHExceptionRecord@@PEAH@Z 0000000180045e1c     libvcruntime:frame.obj
 0004:00000e28       $pdata$?FrameUnwindToState@__FrameHandler3@@SAXPEA_KPEAU_xDISPATCHER_CONTEXT@@PEBU_s_FuncInfo@@H@Z 0000000180045e28     libvcruntime:frame.obj
 0004:00000e34       $pdata$?GetHandlerSearchState@__FrameHandler3@@SAHPEA_KPEAU_xDISPATCHER_CONTEXT@@PEBU_s_FuncInfo@@@Z 0000000180045e34     libvcruntime:frame.obj
 0004:00000e40       $pdata$?IsInExceptionSpec@@YAEPEAUEHExceptionRecord@@PEBU_s_ESTypeList@@@Z 0000000180045e40     libvcruntime:frame.obj
 0004:00000e4c       $pdata$?Is_bad_exception_allowed@@YAEPEBU_s_ESTypeList@@@Z 0000000180045e4c     libvcruntime:frame.obj
 0004:00000e58       $pdata$__vcrt_initialize_locks 0000000180045e58     libvcruntime:locks.obj
 0004:00000e64       $pdata$__vcrt_uninitialize_locks 0000000180045e64     libvcruntime:locks.obj
 0004:00000e70       $pdata$?try_get_function@@YAPEAXW4function_id@?A0x14c33c87@@QEBDQEBW4module_id@2@2@Z 0000000180045e70     libvcruntime:winapi_downlevel.obj
 0004:00000e7c       $pdata$__vcrt_FlsAlloc     0000000180045e7c     libvcruntime:winapi_downlevel.obj
 0004:00000e88       $pdata$__vcrt_FlsFree      0000000180045e88     libvcruntime:winapi_downlevel.obj
 0004:00000e94       $pdata$__vcrt_FlsGetValue  0000000180045e94     libvcruntime:winapi_downlevel.obj
 0004:00000ea0       $pdata$__vcrt_FlsSetValue  0000000180045ea0     libvcruntime:winapi_downlevel.obj
 0004:00000eac       $pdata$__vcrt_InitializeCriticalSectionEx 0000000180045eac     libvcruntime:winapi_downlevel.obj
 0004:00000eb8       $pdata$__vcrt_initialize_winapi_thunks 0000000180045eb8     libvcruntime:winapi_downlevel.obj
 0004:00000ec4       $pdata$__vcrt_uninitialize_winapi_thunks 0000000180045ec4     libvcruntime:winapi_downlevel.obj
 0004:00000f0c       $pdata$__acrt_call_reportfault 0000000180045f0c     libucrt:invalid_parameter.obj
 0004:00000f18       $pdata$_invalid_parameter  0000000180045f18     libucrt:invalid_parameter.obj
 0004:00000f24       $pdata$_invalid_parameter_noinfo 0000000180045f24     libucrt:invalid_parameter.obj
 0004:00000f30       $pdata$_invalid_parameter_noinfo_noreturn 0000000180045f30     libucrt:invalid_parameter.obj
 0004:00000f3c       $pdata$_invoke_watson      0000000180045f3c     libucrt:invalid_parameter.obj
 0004:00000f48       $pdata$abort               0000000180045f48     libucrt:abort.obj
 0004:00000f54       $pdata$fallbackMethod      0000000180045f54     libucrt:strcspn.obj
 0004:00000f60       $pdata$strcspn             0000000180045f60     libucrt:strcspn.obj
 0004:00000f6c       $pdata$??$common_vsprintf@Vformat_validation_base@__crt_stdio_output@@D@@YAH_KQEAD0QEBDQEAU__crt_locale_pointers@@1@Z 0000000180045f6c     libucrt:output.obj
 0004:00000f78       $pdata$??$ensure_buffer_is_big_enough@D@formatting_buffer@__crt_stdio_output@@QEAA_N_K@Z 0000000180045f78     libucrt:output.obj
 0004:00000f84       $pdata$??$type_case_integer_parse_into_buffer@I@?$output_processor@DV?$string_output_adapter@D@__crt_stdio_output@@V?$format_validation_base@DV?$string_output_adapter@D@__crt_stdio_output@@@2@@__crt_stdio_output@@AEAAXII_N@Z 0000000180045f84     libucrt:output.obj
 0004:00000f90       $pdata$??$type_case_integer_parse_into_buffer@_K@?$output_processor@DV?$string_output_adapter@D@__crt_stdio_output@@V?$format_validation_base@DV?$string_output_adapter@D@__crt_stdio_output@@@2@@__crt_stdio_output@@AEAAX_KI_N@Z 0000000180045f90     libucrt:output.obj
 0004:00000f9c       $pdata$??$write_multiple_characters@V?$string_output_adapter@D@__crt_stdio_output@@D@__crt_stdio_output@@YAXAEBV?$string_output_adapter@D@0@DHQEAH@Z 0000000180045f9c     libucrt:output.obj
 0004:00000fa8       $pdata$??0_LocaleUpdate@@QEAA@QEAU__crt_locale_pointers@@@Z 0000000180045fa8     libucrt:output.obj
 0004:00000fb4       $pdata$?force_decimal_point@__crt_stdio_output@@YAXPEADQEAU__crt_locale_pointers@@@Z 0000000180045fb4     libucrt:output.obj
 0004:00000fc0       $pdata$?parse_int_from_format_string@?$output_processor@DV?$string_output_adapter@D@__crt_stdio_output@@V?$format_validation_base@DV?$string_output_adapter@D@__crt_stdio_output@@@2@@__crt_stdio_output@@AEAA_NQEAH@Z 0000000180045fc0     libucrt:output.obj
 0004:00000fcc       $pdata$?process@?$output_processor@DV?$string_output_adapter@D@__crt_stdio_output@@V?$format_validation_base@DV?$string_output_adapter@D@__crt_stdio_output@@@2@@__crt_stdio_output@@QEAAHXZ 0000000180045fcc     libucrt:output.obj
 0004:00000fd8       $pdata$?state_case_normal@?$output_processor@DV?$string_output_adapter@D@__crt_stdio_output@@V?$format_validation_base@DV?$string_output_adapter@D@__crt_stdio_output@@@2@@__crt_stdio_output@@AEAA_NXZ 0000000180045fd8     libucrt:output.obj
 0004:00000fe4       $pdata$?state_case_normal_tchar@?$output_processor@DV?$string_output_adapter@D@__crt_stdio_output@@V?$format_validation_base@DV?$string_output_adapter@D@__crt_stdio_output@@@2@@__crt_stdio_output@@AEAA_ND@Z 0000000180045fe4     libucrt:output.obj
 0004:00000ff0       $pdata$?state_case_size@?$output_processor@DV?$string_output_adapter@D@__crt_stdio_output@@V?$format_validation_base@DV?$string_output_adapter@D@__crt_stdio_output@@@2@@__crt_stdio_output@@AEAA_NXZ 0000000180045ff0     libucrt:output.obj
 0004:00000ffc       $pdata$?state_case_type@?$output_processor@DV?$string_output_adapter@D@__crt_stdio_output@@V?$format_validation_base@DV?$string_output_adapter@D@__crt_stdio_output@@@2@@__crt_stdio_output@@AEAA_NXZ 0000000180045ffc     libucrt:output.obj
 0004:00001008       $pdata$?type_case_a@?$output_processor@DV?$string_output_adapter@D@__crt_stdio_output@@V?$format_validation_base@DV?$string_output_adapter@D@__crt_stdio_output@@@2@@__crt_stdio_output@@AEAA_NXZ 0000000180046008     libucrt:output.obj
 0004:00001014       $pdata$?type_case_c_tchar@?$output_processor@DV?$string_output_adapter@D@__crt_stdio_output@@V?$format_validation_base@DV?$string_output_adapter@D@__crt_stdio_output@@@2@@__crt_stdio_output@@AEAA_ND@Z 0000000180046014     libucrt:output.obj
 0004:00001020       $pdata$?type_case_integer@?$output_processor@DV?$string_output_adapter@D@__crt_stdio_output@@V?$format_validation_base@DV?$string_output_adapter@D@__crt_stdio_output@@@2@@__crt_stdio_output@@AEAA_NI_N@Z 0000000180046020     libucrt:output.obj
 0004:0000102c       $pdata$?type_case_n@?$output_processor@DV?$string_output_adapter@D@__crt_stdio_output@@V?$format_validation_base@DV?$string_output_adapter@D@__crt_stdio_output@@@2@@__crt_stdio_output@@AEAA_NXZ 000000018004602c     libucrt:output.obj
 0004:00001038       $pdata$?type_case_s@?$output_processor@DV?$string_output_adapter@D@__crt_stdio_output@@V?$format_validation_base@DV?$string_output_adapter@D@__crt_stdio_output@@@2@@__crt_stdio_output@@AEAA_NXZ 0000000180046038     libucrt:output.obj
 0004:00001044       $pdata$?write_stored_string_tchar@?$output_processor@DV?$string_output_adapter@D@__crt_stdio_output@@V?$format_validation_base@DV?$string_output_adapter@D@__crt_stdio_output@@@2@@__crt_stdio_output@@AEAA_ND@Z 0000000180046044     libucrt:output.obj
 0004:00001050       $pdata$?write_string@?$string_output_adapter@D@__crt_stdio_output@@QEBAXQEBDHQEAHAEAV__crt_deferred_errno_cache@@@Z 0000000180046050     libucrt:output.obj
 0004:0000105c       $pdata$__stdio_common_vsprintf_s 000000018004605c     libucrt:output.obj
 0004:00001068       $pdata$localeconv          0000000180046068     libucrt:localeconv.obj
 0004:00001074       $pdata$frexp               0000000180046074     libucrt:frexp.obj
 0004:00001080       $pdata$_stricmp            0000000180046080     libucrt:stricmp.obj
 0004:0000108c       $pdata$_stricmp_l          000000018004608c     libucrt:stricmp.obj
 0004:00001098       $pdata$__acrt_initialize_locks 0000000180046098     libucrt:locks.obj
 0004:000010a4       $pdata$__acrt_uninitialize_locks 00000001800460a4     libucrt:locks.obj
 0004:000010b0       $pdata$_lock_locales       00000001800460b0     libucrt:locks.obj
 0004:000010bc       $pdata$terminate           00000001800460bc     libucrt:terminate.obj
 0004:000010c8       $pdata$??$?RV<lambda_9bd929c17696992ce54f1d748594fc62>@@AEAV<lambda_082c17da81b0962e08c0587ee0fac50c>@@V<lambda_9c08ac857f4975304d44e9f601d9b878>@@@?$__crt_seh_guarded_call@PEAD@@QEAAPEAD$$QEAV<lambda_9bd929c17696992ce54f1d748594fc62>@@AEAV<lambda_082c17da81b0962e08c0587ee0fac50c>@@$$QEAV<lambda_9c08ac857f4975304d44e9f601d9b878>@@@Z 00000001800460c8     libucrt:setlocale.obj
 0004:000010d4       $pdata$??R<lambda_082c17da81b0962e08c0587ee0fac50c>@@QEBAPEADXZ 00000001800460d4     libucrt:setlocale.obj
 0004:000010e0       $pdata$setlocale           00000001800460e0     libucrt:setlocale.obj
 0004:000010ec       $pdata$__pctype_func       00000001800460ec     libucrt:ctype.obj
 0004:000010f8       $pdata$isdigit             00000001800460f8     libucrt:_ctype.obj
 0004:00001104       $pdata$islower             0000000180046104     libucrt:_ctype.obj
 0004:00001110       $pdata$isupper             0000000180046110     libucrt:_ctype.obj
 0004:0000111c       $pdata$_wcsdup             000000018004611c     libucrt:wcsdup.obj
 0004:00001128       $pdata$___lc_codepage_func 0000000180046128     libucrt:initctype.obj
 0004:00001134       $pdata$___lc_locale_name_func 0000000180046134     libucrt:initctype.obj
 0004:00001140       $pdata$___mb_cur_max_func  0000000180046140     libucrt:initctype.obj
 0004:0000114c       $pdata$__acrt_locale_initialize_ctype 000000018004614c     libucrt:initctype.obj
 0004:00001158       $pdata$__acrt_errno_map_os_error 0000000180046158     libucrt:errno.obj
 0004:00001164       $pdata$__doserrno          0000000180046164     libucrt:errno.obj
 0004:00001170       $pdata$_errno              0000000180046170     libucrt:errno.obj
 0004:0000117c       $pdata$?divide@__crt_strtox@@YA_KAEAUbig_integer@1@AEBU21@@Z 000000018004617c     libucrt:strtod.obj
 0004:00001188       $pdata$0$?divide@__crt_strtox@@YA_KAEAUbig_integer@1@AEBU21@@Z 0000000180046188     libucrt:strtod.obj
 0004:00001194       $pdata$1$?divide@__crt_strtox@@YA_KAEAUbig_integer@1@AEBU21@@Z 0000000180046194     libucrt:strtod.obj
 0004:000011a0       $pdata$memcpy_s            00000001800461a0     libucrt:strtod.obj
 0004:000011a0       $pdata$memcpy_s            00000001800461a0     libucrt:cfout.obj
 0004:000011c4       $pdata$??$__acrt_mbs_to_wcs_cp@U__crt_win32_buffer_internal_dynamic_resizing@@@@YAHQEBDAEAV?$__crt_win32_buffer@_WU__crt_win32_buffer_internal_dynamic_resizing@@@@I@Z 00000001800461c4     libucrt:strftime.obj
 0004:000011d0       $pdata$??$__acrt_wcs_to_mbs_cp@U__crt_win32_buffer_no_resizing@@@@YAHQEB_WAEAV?$__crt_win32_buffer@DU__crt_win32_buffer_no_resizing@@@@I@Z 00000001800461d0     libucrt:strftime.obj
 0004:000011dc       $pdata$?internal_isupper_l@@YA_NHQEAU__crt_locale_pointers@@@Z 00000001800461dc     libucrt:tolower_toupper.obj
 0004:000011e8       $pdata$_tolower_l          00000001800461e8     libucrt:tolower_toupper.obj
 0004:000011f4       $pdata$tolower             00000001800461f4     libucrt:tolower_toupper.obj
 0004:00001200       $pdata$wcscpy_s            0000000180046200     libucrt:wcscpy_s.obj
 0004:0000120c       $pdata$_callnewh           000000018004620c     libucrt:new_handler.obj
 0004:00001218       $pdata$_query_new_handler  0000000180046218     libucrt:new_handler.obj
 0004:00001224       $pdata$_seh_filter_exe     0000000180046224     libucrt:exception_filter.obj
 0004:00001230       $pdata$??$?RV<lambda_d80eeec6fff315bfe5c115232f3240e3>@@AEAV<lambda_6e4b09c48022b2350581041d5f6b0c4c>@@V<lambda_2358e3775559c9db80273638284d5e45>@@@?$__crt_seh_guarded_call@X@@QEAAX$$QEAV<lambda_d80eeec6fff315bfe5c115232f3240e3>@@AEAV<lambda_6e4b09c48022b2350581041d5f6b0c4c>@@$$QEAV<lambda_2358e3775559c9db80273638284d5e45>@@@Z 0000000180046230     libucrt:exit.obj
 0004:0000123c       $pdata$??R<lambda_6e4b09c48022b2350581041d5f6b0c4c>@@QEBA@XZ 000000018004623c     libucrt:exit.obj
 0004:00001248       $pdata$?common_exit@@YAXHW4_crt_exit_cleanup_mode@@W4_crt_exit_return_mode@@@Z 0000000180046248     libucrt:exit.obj
 0004:00001254       $pdata$?exit_or_terminate_process@@YAXI@Z 0000000180046254     libucrt:exit.obj
 0004:00001260       $pdata$?try_cor_exit_process@@YAXI@Z 0000000180046260     libucrt:exit.obj
 0004:0000126c       $pdata$??$parse_command_line@D@@YAXPEADPEAPEAD0PEA_K2@Z 000000018004626c     libucrt:argv_parsing.obj
 0004:00001278       $pdata$__acrt_allocate_buffer_for_argv 0000000180046278     libucrt:argv_parsing.obj
 0004:00001284       $pdata$_configure_narrow_argv 0000000180046284     libucrt:argv_parsing.obj
 0004:00001290       $pdata$??$common_initialize_environment_nolock@D@@YAHXZ 0000000180046290     libucrt:environment_initialization.obj
 0004:0000129c       $pdata$??$create_environment@D@@YAQEAPEADQEAD@Z 000000018004629c     libucrt:environment_initialization.obj
 0004:000012a8       $pdata$??$free_environment@D@@YAXQEAPEAD@Z 00000001800462a8     libucrt:environment_initialization.obj
 0004:000012a8       $pdata$??$free_environment@_W@@YAXQEAPEA_W@Z 00000001800462a8     libucrt:environment_initialization.obj
 0004:000012b4       $pdata$??$uninitialize_environment_internal@D@@YAXAEAPEAPEAD@Z 00000001800462b4     libucrt:environment_initialization.obj
 0004:000012c0       $pdata$??$uninitialize_environment_internal@_W@@YAXAEAPEAPEA_W@Z 00000001800462c0     libucrt:environment_initialization.obj
 0004:000012cc       $pdata$__dcrt_uninitialize_environments_nolock 00000001800462cc     libucrt:environment_initialization.obj
 0004:000012d8       $pdata$??$?RV<lambda_638799b9deba96c50f710eeac98168cd>@@AEAV<lambda_22ebabd17bc4fa466a2aca6d8deb888d>@@V<lambda_a6f7d7db0129f75315ebf26d50c089f1>@@@?$__crt_seh_guarded_call@H@@QEAAH$$QEAV<lambda_638799b9deba96c50f710eeac98168cd>@@AEAV<lambda_22ebabd17bc4fa466a2aca6d8deb888d>@@$$QEAV<lambda_a6f7d7db0129f75315ebf26d50c089f1>@@@Z 00000001800462d8     libucrt:onexit.obj
 0004:000012e4       $pdata$??$?RV<lambda_7777bce6b2f8c936911f934f8298dc43>@@AEAV<lambda_f03950bc5685219e0bcd2087efbe011e>@@V<lambda_3883c3dff614d5e0c5f61bb1ac94921c>@@@?$__crt_seh_guarded_call@H@@QEAAH$$QEAV<lambda_7777bce6b2f8c936911f934f8298dc43>@@AEAV<lambda_f03950bc5685219e0bcd2087efbe011e>@@$$QEAV<lambda_3883c3dff614d5e0c5f61bb1ac94921c>@@@Z 00000001800462e4     libucrt:onexit.obj
 0004:000012f0       $pdata$??R<lambda_22ebabd17bc4fa466a2aca6d8deb888d>@@QEBAHXZ 00000001800462f0     libucrt:onexit.obj
 0004:000012fc       $pdata$??R<lambda_f03950bc5685219e0bcd2087efbe011e>@@QEBAHXZ 00000001800462fc     libucrt:onexit.obj
 0004:00001308       $pdata$_execute_onexit_table 0000000180046308     libucrt:onexit.obj
 0004:00001314       $pdata$_register_onexit_function 0000000180046314     libucrt:onexit.obj
 0004:00001320       $pdata$initialize_c        0000000180046320     libucrt:initialization.obj
 0004:0000132c       $pdata$uninitialize_environment 000000018004632c     libucrt:initialization.obj
 0004:00001338       $pdata$initialize_pointers 0000000180046338     libucrt:initialization.obj
 0004:00001344       $pdata$uninitialize_allocated_memory 0000000180046344     libucrt:initialization.obj
 0004:00001350       $pdata$uninitialize_allocated_io_buffers 0000000180046350     libucrt:initialization.obj
 0004:0000135c       $pdata$__acrt_thread_attach 000000018004635c     libucrt:initialization.obj
 0004:00001368       $pdata$__acrt_thread_detach 0000000180046368     libucrt:initialization.obj
 0004:00001374       $pdata$__acrt_uninitialize 0000000180046374     libucrt:initialization.obj
 0004:00001380       $pdata$__acrt_uninitialize_critical 0000000180046380     libucrt:initialization.obj
 0004:0000138c       $pdata$_initterm           000000018004638c     libucrt:initterm.obj
 0004:00001398       $pdata$_initterm_e         0000000180046398     libucrt:initterm.obj
 0004:000013a4       $pdata$strcpy_s            00000001800463a4     libucrt:strcpy_s.obj
 0004:000013b0       $pdata$??$parse_integer@KV?$c_string_character_source@D@__crt_strtox@@@__crt_strtox@@YAKQEAU__crt_locale_pointers@@V?$c_string_character_source@D@0@H_N@Z 00000001800463b0     libucrt:atox.obj
 0004:000013bc       $pdata$??$parse_integer@KV?$c_string_character_source@_W@__crt_strtox@@@__crt_strtox@@YAKQEAU__crt_locale_pointers@@V?$c_string_character_source@_W@0@H_N@Z 00000001800463bc     libucrt:atox.obj
 0004:000013c8       $pdata$_wtol               00000001800463c8     libucrt:atox.obj
 0004:000013e0       $pdata$??$?RV<lambda_0ae27a3a962d80f24befdcbee591983d>@@AEAV<lambda_8d0ee55de4b1038c4002e0adecdf1839>@@V<lambda_dc504788e8f1664fe9b84e20bfb512f2>@@@?$__crt_seh_guarded_call@X@@QEAAX$$QEAV<lambda_0ae27a3a962d80f24befdcbee591983d>@@AEAV<lambda_8d0ee55de4b1038c4002e0adecdf1839>@@$$QEAV<lambda_dc504788e8f1664fe9b84e20bfb512f2>@@@Z 00000001800463e0     libucrt:per_thread_data.obj
 0004:000013ec       $pdata$??$?RV<lambda_2d41944a1d46af3157314b8a01080d33>@@AEAV<lambda_8f455de75cd7d7f24b4096f044d8b9e6>@@V<lambda_aa500f224e6afead328df44964fe2772>@@@?$__crt_seh_guarded_call@X@@QEAAX$$QEAV<lambda_2d41944a1d46af3157314b8a01080d33>@@AEAV<lambda_8f455de75cd7d7f24b4096f044d8b9e6>@@$$QEAV<lambda_aa500f224e6afead328df44964fe2772>@@@Z 00000001800463ec     libucrt:per_thread_data.obj
 0004:000013f8       $pdata$??$?RV<lambda_aa87e3671a710a21b5dc78c0bdf72e11>@@AEAV<lambda_92619d2358a28f41a33ba319515a20b9>@@V<lambda_6992ecaafeb10aed2b74cb1fae11a551>@@@?$__crt_seh_guarded_call@X@@QEAAX$$QEAV<lambda_aa87e3671a710a21b5dc78c0bdf72e11>@@AEAV<lambda_92619d2358a28f41a33ba319515a20b9>@@$$QEAV<lambda_6992ecaafeb10aed2b74cb1fae11a551>@@@Z 00000001800463f8     libucrt:per_thread_data.obj
 0004:00001404       $pdata$??$?RV<lambda_f2e299630e499de9f9a165e60fcd3db5>@@AEAV<lambda_2ae9d31cdba2644fcbeaf08da7c24588>@@V<lambda_40d01ff24d0e7b3814fdbdcee8eab3c7>@@@?$__crt_seh_guarded_call@X@@QEAAX$$QEAV<lambda_f2e299630e499de9f9a165e60fcd3db5>@@AEAV<lambda_2ae9d31cdba2644fcbeaf08da7c24588>@@$$QEAV<lambda_40d01ff24d0e7b3814fdbdcee8eab3c7>@@@Z 0000000180046404     libucrt:per_thread_data.obj
 0004:00001410       $pdata$?construct_ptd_array@@YAXQEAU__acrt_ptd@@@Z 0000000180046410     libucrt:per_thread_data.obj
 0004:0000141c       $pdata$?destroy_fls@@YAXPEAX@Z 000000018004641c     libucrt:per_thread_data.obj
 0004:00001428       $pdata$?destroy_ptd_array@@YAXQEAU__acrt_ptd@@@Z 0000000180046428     libucrt:per_thread_data.obj
 0004:00001434       $pdata$?replace_current_thread_locale_nolock@@YAXQEAU__acrt_ptd@@QEAU__crt_locale_data@@@Z 0000000180046434     libucrt:per_thread_data.obj
 0004:00001440       $pdata$__acrt_freeptd      0000000180046440     libucrt:per_thread_data.obj
 0004:0000144c       $pdata$__acrt_getptd       000000018004644c     libucrt:per_thread_data.obj
 0004:00001458       $pdata$__acrt_getptd_head  0000000180046458     libucrt:per_thread_data.obj
 0004:00001464       $pdata$__acrt_getptd_noexit 0000000180046464     libucrt:per_thread_data.obj
 0004:00001470       $pdata$__acrt_initialize_ptd 0000000180046470     libucrt:per_thread_data.obj
 0004:0000147c       $pdata$__acrt_uninitialize_ptd 000000018004647c     libucrt:per_thread_data.obj
 0004:00001488       $pdata$??$?RV<lambda_450d765d439847d4c735a33c368b5fc0>@@AEAV<lambda_44731a7d0e6d81c3e6aa82d741081786>@@V<lambda_601a2a7da3b7a96e9554ac7215c4b07c>@@@?$__crt_seh_guarded_call@P6AXH@Z@@QEAAP6AXH@Z$$QEAV<lambda_450d765d439847d4c735a33c368b5fc0>@@AEAV<lambda_44731a7d0e6d81c3e6aa82d741081786>@@$$QEAV<lambda_601a2a7da3b7a96e9554ac7215c4b07c>@@@Z 0000000180046488     libucrt:signal.obj
 0004:00001494       $pdata$__acrt_get_sigabrt_handler 0000000180046494     libucrt:signal.obj
 0004:000014a0       $pdata$raise               00000001800464a0     libucrt:signal.obj
 0004:000014ac       $pdata$_calloc_base        00000001800464ac     libucrt:calloc_base.obj
 0004:000014b8       $pdata$_free_base          00000001800464b8     libucrt:free_base.obj
 0004:000014c4       $pdata$_malloc_base        00000001800464c4     libucrt:malloc_base.obj
 0004:000014d0       $pdata$strtol              00000001800464d0     libucrt:strtox.obj
 0004:000014dc       $pdata$_mbtowc_l           00000001800464dc     libucrt:mbtowc.obj
 0004:000014e8       $pdata$_wctomb_s_l         00000001800464e8     libucrt:wctomb.obj
 0004:000014f4       $pdata$wctomb_s            00000001800464f4     libucrt:wctomb.obj
 0004:00001500       $pdata$__acrt_update_locale_info 0000000180046500     libucrt:locale_update.obj
 0004:0000150c       $pdata$__acrt_update_multibyte_info 000000018004650c     libucrt:locale_update.obj
 0004:00001518       $pdata$?fp_format_a@@YAHQEBNPEAD_KQEAD2H_NIQEAU__crt_locale_pointers@@@Z 0000000180046518     libucrt:cvt.obj
 0004:00001524       $pdata$?fp_format_e@@YAHQEBNQEAD_K12H_NIQEAU__crt_locale_pointers@@@Z 0000000180046524     libucrt:cvt.obj
 0004:00001530       $pdata$?fp_format_e_internal@@YAHQEAD_KH_NIQEAU_strflt@@2QEAU__crt_locale_pointers@@@Z 0000000180046530     libucrt:cvt.obj
 0004:0000153c       $pdata$?fp_format_f_internal@@YAHQEAD_KHQEAU_strflt@@_NQEAU__crt_locale_pointers@@@Z 000000018004653c     libucrt:cvt.obj
 0004:00001548       $pdata$?fp_format_g@@YAHQEBNQEAD_K12H_NIQEAU__crt_locale_pointers@@@Z 0000000180046548     libucrt:cvt.obj
 0004:00001554       $pdata$?fp_format_nan_or_infinity@@YAHW4__acrt_fp_class@@_NPEAD_K1@Z 0000000180046554     libucrt:cvt.obj
 0004:00001560       $pdata$__acrt_fp_format    0000000180046560     libucrt:cvt.obj
 0004:0000156c       $pdata$_fileno             000000018004656c     libucrt:fileno.obj
 0004:00001578       $pdata$__acrt_initialize_stdio 0000000180046578     libucrt:_file.obj
 0004:00001584       $pdata$__acrt_uninitialize_stdio 0000000180046584     libucrt:_file.obj
 0004:00001590       $pdata$??$?RV<lambda_1d892b297fdedeee07ed8124eeb2f2fa>@@AEAV<lambda_ffc046909424fd52df0ac47e64813305>@@V<lambda_01a7098693036236037e7cdb9bca3d73>@@@?$__crt_seh_guarded_call@X@@QEAAX$$QEAV<lambda_1d892b297fdedeee07ed8124eeb2f2fa>@@AEAV<lambda_ffc046909424fd52df0ac47e64813305>@@$$QEAV<lambda_01a7098693036236037e7cdb9bca3d73>@@@Z 0000000180046590     libucrt:wsetlocale.obj
 0004:0000159c       $pdata$??$?RV<lambda_410d79af7f07d98d83a3f525b3859a53>@@AEAV<lambda_3e16ef9562a7dcce91392c22ab16ea36>@@V<lambda_38119f0e861e05405d8a144b9b982f0a>@@@?$__crt_seh_guarded_call@X@@QEAAX$$QEAV<lambda_410d79af7f07d98d83a3f525b3859a53>@@AEAV<lambda_3e16ef9562a7dcce91392c22ab16ea36>@@$$QEAV<lambda_38119f0e861e05405d8a144b9b982f0a>@@@Z 000000018004659c     libucrt:wsetlocale.obj
 0004:000015a8       $pdata$??$?RV<lambda_7f2adfce497ff2baa965cd4f576ecfd1>@@AEAV<lambda_2a444430fde8c29194d880d93eed5e8f>@@AEAV<lambda_8dff2cf36a5417162780cd64fa2883ef>@@@?$__crt_seh_guarded_call@X@@QEAAX$$QEAV<lambda_7f2adfce497ff2baa965cd4f576ecfd1>@@AEAV<lambda_2a444430fde8c29194d880d93eed5e8f>@@AEAV<lambda_8dff2cf36a5417162780cd64fa2883ef>@@@Z 00000001800465a8     libucrt:wsetlocale.obj
 0004:000015b4       $pdata$??R<lambda_2a444430fde8c29194d880d93eed5e8f>@@QEBA@XZ 00000001800465b4     libucrt:wsetlocale.obj
 0004:000015c0       $pdata$__acrt_copy_locale_name 00000001800465c0     libucrt:wsetlocale.obj
 0004:000015cc       $pdata$__acrt_uninitialize_locale 00000001800465cc     libucrt:wsetlocale.obj
 0004:000015d8       $pdata$__lc_lctowcs        00000001800465d8     libucrt:wsetlocale.obj
 0004:000015e4       $pdata$__lc_wcstolc        00000001800465e4     libucrt:wsetlocale.obj
 0004:000015f0       $pdata$_copytlocinfo_nolock 00000001800465f0     libucrt:wsetlocale.obj
 0004:000015fc       $pdata$_expandlocale       00000001800465fc     libucrt:wsetlocale.obj
 0004:00001608       $pdata$_wcscats            0000000180046608     libucrt:wsetlocale.obj
 0004:00001614       $pdata$_wsetlocale         0000000180046614     libucrt:wsetlocale.obj
 0004:00001620       $pdata$_wsetlocale_get_all 0000000180046620     libucrt:wsetlocale.obj
 0004:0000162c       $pdata$_wsetlocale_nolock  000000018004662c     libucrt:wsetlocale.obj
 0004:00001638       $pdata$_wsetlocale_set_cat 0000000180046638     libucrt:wsetlocale.obj
 0004:00001644       $pdata$?initialize_inherited_file_handles_nolock@@YAXXZ 0000000180046644     libucrt:ioinit.obj
 0004:00001650       $pdata$?initialize_stdio_handles_nolock@@YAXXZ 0000000180046650     libucrt:ioinit.obj
 0004:0000165c       $pdata$__acrt_initialize_lowio 000000018004665c     libucrt:ioinit.obj
 0004:00001668       $pdata$__acrt_uninitialize_lowio 0000000180046668     libucrt:ioinit.obj
 0004:00001674       $pdata$_except1            0000000180046674     libucrt:fpexcept.obj
 0004:00001680       $pdata$_handle_exc         0000000180046680     libucrt:fpexcept.obj
 0004:0000168c       $pdata$_raise_exc          000000018004668c     libucrt:fpexcept.obj
 0004:00001698       $pdata$_raise_exc_ex       0000000180046698     libucrt:fpexcept.obj
 0004:000016a4       $pdata$_raise_excf         00000001800466a4     libucrt:fpexcept.obj
 0004:000016b0       $pdata$_set_errno_from_matherr 00000001800466b0     libucrt:fpexcept.obj
 0004:000016bc       $pdata$_umatherr           00000001800466bc     libucrt:fpexcept.obj
 0004:000016c8       $pdata$_clrfp              00000001800466c8     libucrt:fpctrl.obj
 0004:000016d4       $pdata$_ctrlfp             00000001800466d4     libucrt:fpctrl.obj
 0004:000016e0       $pdata$_set_statfp         00000001800466e0     libucrt:fpctrl.obj
 0004:000016ec       $pdata$_statfp             00000001800466ec     libucrt:fpctrl.obj
 0004:000016f8       $pdata$??$?RV<lambda_bd00b5aa228bd7e7e5b2b5db5fd2933b>@@AEAV<lambda_777d11615145f89ee95b9466d285deeb>@@V<lambda_6e5e48fbd24f9f8f81b203eb3d877683>@@@?$__crt_seh_guarded_call@H@@QEAAH$$QEAV<lambda_bd00b5aa228bd7e7e5b2b5db5fd2933b>@@AEAV<lambda_777d11615145f89ee95b9466d285deeb>@@$$QEAV<lambda_6e5e48fbd24f9f8f81b203eb3d877683>@@@Z 00000001800466f8     libucrt:winapi_thunks.obj
 0004:00001704       $pdata$?try_get_function@@YAPEAXW4function_id@?A0x391cf84c@@QEBDQEBW4module_id@2@2@Z 0000000180046704     libucrt:winapi_thunks.obj
 0004:00001710       $pdata$__acrt_AppPolicyGetProcessTerminationMethodInternal 0000000180046710     libucrt:winapi_thunks.obj
 0004:0000171c       $pdata$__acrt_AreFileApisANSI 000000018004671c     libucrt:winapi_thunks.obj
 0004:00001728       $pdata$__acrt_EnumSystemLocalesEx 0000000180046728     libucrt:winapi_thunks.obj
 0004:00001734       $pdata$__acrt_FlsAlloc     0000000180046734     libucrt:winapi_thunks.obj
 0004:00001740       $pdata$__acrt_FlsFree      0000000180046740     libucrt:winapi_thunks.obj
 0004:0000174c       $pdata$__acrt_FlsGetValue  000000018004674c     libucrt:winapi_thunks.obj
 0004:00001758       $pdata$__acrt_FlsSetValue  0000000180046758     libucrt:winapi_thunks.obj
 0004:00001764       $pdata$__acrt_GetLocaleInfoEx 0000000180046764     libucrt:winapi_thunks.obj
 0004:00001770       $pdata$__acrt_GetUserDefaultLocaleName 0000000180046770     libucrt:winapi_thunks.obj
 0004:0000177c       $pdata$__acrt_InitializeCriticalSectionEx 000000018004677c     libucrt:winapi_thunks.obj
 0004:00001788       $pdata$__acrt_IsValidLocaleName 0000000180046788     libucrt:winapi_thunks.obj
 0004:00001794       $pdata$__acrt_LCIDToLocaleName 0000000180046794     libucrt:winapi_thunks.obj
 0004:000017a0       $pdata$__acrt_LCMapStringEx 00000001800467a0     libucrt:winapi_thunks.obj
 0004:000017ac       $pdata$__acrt_LocaleNameToLCID 00000001800467ac     libucrt:winapi_thunks.obj
 0004:000017b8       $pdata$__acrt_can_use_vista_locale_apis 00000001800467b8     libucrt:winapi_thunks.obj
 0004:000017c4       $pdata$__acrt_eagerly_load_locale_apis 00000001800467c4     libucrt:winapi_thunks.obj
 0004:000017d0       $pdata$__acrt_initialize_winapi_thunks 00000001800467d0     libucrt:winapi_thunks.obj
 0004:000017dc       $pdata$__acrt_uninitialize_winapi_thunks 00000001800467dc     libucrt:winapi_thunks.obj
 0004:000017e8       $pdata$?_mbstowcs_l_helper@@YA_KPEA_WPEBD_KPEAU__crt_locale_pointers@@@Z 00000001800467e8     libucrt:mbstowcs.obj
 0004:000017f4       $pdata$_mbstowcs_s_l       00000001800467f4     libucrt:mbstowcs.obj
 0004:00001800       $pdata$mbstowcs_s          0000000180046800     libucrt:mbstowcs.obj
 0004:0000180c       $pdata$?_wcstombs_l_helper@@YA_KPEADPEB_W_KPEAU__crt_locale_pointers@@@Z 000000018004680c     libucrt:wcstombs.obj
 0004:00001818       $pdata$_wcstombs_s_l       0000000180046818     libucrt:wcstombs.obj
 0004:00001824       $pdata$_isctype_l          0000000180046824     libucrt:isctype.obj
 0004:00001830       $pdata$?InternalGetLocaleInfoA@@YAHQEAU__crt_locale_pointers@@QEB_WKQEADH@Z 0000000180046830     libucrt:getlocaleinfoa.obj
 0004:0000183c       $pdata$__acrt_GetLocaleInfoA 000000018004683c     libucrt:getlocaleinfoa.obj
 0004:00001848       $pdata$__acrt_GetStringTypeA 0000000180046848     libucrt:getstringtypea.obj
 0004:00001854       $pdata$?__acrt_LCMapStringA_stat@@YAHPEAU__crt_locale_pointers@@PEB_WKPEBDHPEADHHH@Z 0000000180046854     libucrt:lcmapstringa.obj
 0004:00001860       $pdata$__acrt_LCMapStringA 0000000180046860     libucrt:lcmapstringa.obj
 0004:0000186c       $pdata$_realloc_base       000000018004686c     libucrt:realloc_base.obj
 0004:00001878       $pdata$iswctype            0000000180046878     libucrt:iswctype.obj
 0004:00001884       $pdata$__acrt_initialize_fma3 0000000180046884     libucrt:fma3_available.obj
 0004:00001890       $pdata$_pow_special        0000000180046890     libucrt:pow_special.obj
 0004:0000189c       $pdata$_powf_special       000000018004689c     libucrt:pow_special.obj
 0004:000018a8       $pdata$__acrt_WideCharToMultiByte 00000001800468a8     libucrt:widechartomultibyte.obj
 0004:000018b4       $pdata$_wcsicmp            00000001800468b4     libucrt:wcsicmp.obj
 0004:000018c0       $pdata$_wcsicmp_l          00000001800468c0     libucrt:wcsicmp.obj
 0004:000018cc       $pdata$_isleadbyte_l       00000001800468cc     libucrt:_wctype.obj
 0004:000018d8       $pdata$__acrt_get_process_end_policy 00000001800468d8     libucrt:win_policies.obj
 0004:000018e4       $pdata$??$__acrt_wcs_to_mbs_cp@U__crt_win32_buffer_internal_dynamic_resizing@@@@YAHQEB_WAEAV?$__crt_win32_buffer@DU__crt_win32_buffer_internal_dynamic_resizing@@@@I@Z 00000001800468e4     libucrt:argv_wildcards.obj
 0004:000018f0       $pdata$??$common_expand_argv_wildcards@D@@YAHQEAPEADQEAPEAPEAD@Z 00000001800468f0     libucrt:argv_wildcards.obj
 0004:000018fc       $pdata$??$copy_and_add_argument_to_buffer@D@@YAHQEBD0_KAEAV?$argument_list@D@?A0x5f5c8891@@@Z 00000001800468fc     libucrt:argv_wildcards.obj
 0004:00001908       $pdata$??$expand_argument_wildcards@D@@YAHQEAD0AEAV?$argument_list@D@?A0x5f5c8891@@@Z 0000000180046908     libucrt:argv_wildcards.obj
 0004:00001914       $pdata$__acrt_GetModuleFileNameA 0000000180046914     libucrt:getmodulefilenamea.obj
 0004:00001920       $pdata$??$?RV<lambda_efdfa57d1f175319df784efa44bb7b81>@@AEAV<lambda_5f0a4c1567f8adc6734073e5d1e1b35c>@@V<lambda_2e8a7d3640ea6ccb4c2413664c2db6fd>@@@?$__crt_seh_guarded_call@X@@QEAAX$$QEAV<lambda_efdfa57d1f175319df784efa44bb7b81>@@AEAV<lambda_5f0a4c1567f8adc6734073e5d1e1b35c>@@$$QEAV<lambda_2e8a7d3640ea6ccb4c2413664c2db6fd>@@@Z 0000000180046920     libucrt:mbctype.obj
 0004:0000192c       $pdata$?getSystemCP@@YAHH@Z 000000018004692c     libucrt:mbctype.obj
 0004:00001938       $pdata$?setSBCS@@YAXPEAU__crt_multibyte_data@@@Z 0000000180046938     libucrt:mbctype.obj
 0004:00001944       $pdata$?setSBUpLow@@YAXPEAU__crt_multibyte_data@@@Z 0000000180046944     libucrt:mbctype.obj
 0004:00001950       $pdata$?setmbcp_internal@@YAHH_NQEAU__acrt_ptd@@QEAPEAU__crt_multibyte_data@@@Z 0000000180046950     libucrt:mbctype.obj
 0004:0000195c       $pdata$?update_thread_multibyte_data_internal@@YAPEAU__crt_multibyte_data@@QEAU__acrt_ptd@@QEAPEAU1@@Z 000000018004695c     libucrt:mbctype.obj
 0004:00001968       $pdata$__acrt_initialize_multibyte 0000000180046968     libucrt:mbctype.obj
 0004:00001974       $pdata$__acrt_update_thread_multibyte_data 0000000180046974     libucrt:mbctype.obj
 0004:00001980       $pdata$_setmbcp_nolock     0000000180046980     libucrt:mbctype.obj
 0004:0000198c       $pdata$?x_ismbbtype_l@@YAHPEAU__crt_locale_pointers@@IHH@Z 000000018004698c     libucrt:ismbbyte.obj
 0004:00001998       $pdata$__acrt_initialize_command_line 0000000180046998     libucrt:argv_data.obj
 0004:000019a4       $pdata$__dcrt_get_narrow_environment_from_os 00000001800469a4     libucrt:get_environment_from_os.obj
 0004:000019b0       $pdata$_recalloc_base      00000001800469b0     libucrt:recalloc.obj
 0004:000019bc       $pdata$__acrt_initialize_heap 00000001800469bc     libucrt:heap_handle.obj
 0004:000019c8       $pdata$__acrt_execute_initializers 00000001800469c8     libucrt:shared_initialization.obj
 0004:000019d4       $pdata$__acrt_execute_uninitializers 00000001800469d4     libucrt:shared_initialization.obj
 0004:000019e0       $pdata$??$?RV<lambda_842d9ff0dc9ef11c61343bbaebe7f885>@@AEAV<lambda_c5860995281e5c4ce005b3de8f5874ee>@@V<lambda_d90129c13df834fdcbf8d2b88dafcf2d>@@@?$__crt_seh_guarded_call@X@@QEAAX$$QEAV<lambda_842d9ff0dc9ef11c61343bbaebe7f885>@@AEAV<lambda_c5860995281e5c4ce005b3de8f5874ee>@@$$QEAV<lambda_d90129c13df834fdcbf8d2b88dafcf2d>@@@Z 00000001800469e0     libucrt:fflush.obj
 0004:000019ec       $pdata$??$?RV<lambda_886d6c58226a84441f68b9f2b8217b83>@@AEAV<lambda_ab61a845afdef5b7c387490eaf3616ee>@@V<lambda_f7f22ab5edc0698d5f6905b0d3f44752>@@@?$__crt_seh_guarded_call@X@@QEAAX$$QEAV<lambda_886d6c58226a84441f68b9f2b8217b83>@@AEAV<lambda_ab61a845afdef5b7c387490eaf3616ee>@@$$QEAV<lambda_f7f22ab5edc0698d5f6905b0d3f44752>@@@Z 00000001800469ec     libucrt:fflush.obj
 0004:000019f8       $pdata$?common_flush_all@@YAH_N@Z 00000001800469f8     libucrt:fflush.obj
 0004:00001a04       $pdata$__acrt_stdio_flush_nolock 0000000180046a04     libucrt:fflush.obj
 0004:00001a10       $pdata$_fflush_nolock      0000000180046a10     libucrt:fflush.obj
 0004:00001a1c       $pdata$__acrt_free_locale  0000000180046a1c     libucrt:locale_refcounting.obj
 0004:00001a28       $pdata$__acrt_locale_free_lc_time_if_unreferenced 0000000180046a28     libucrt:locale_refcounting.obj
 0004:00001a34       $pdata$__acrt_release_locale_ref 0000000180046a34     libucrt:locale_refcounting.obj
 0004:00001a40       $pdata$__acrt_update_thread_locale_data 0000000180046a40     libucrt:locale_refcounting.obj
 0004:00001a4c       $pdata$_updatetlocinfoEx_nolock 0000000180046a4c     libucrt:locale_refcounting.obj
 0004:00001a58       $pdata$?__mbrtowc_utf8@__crt_mbstring@@YA_KPEA_WPEBD_KPEAU_Mbstatet@@@Z 0000000180046a58     libucrt:mbrtowc.obj
 0004:00001a64       $pdata$?__mbsrtowcs_utf8@__crt_mbstring@@YA_KPEA_WPEAPEBD_KPEAU_Mbstatet@@@Z 0000000180046a64     libucrt:mbrtowc.obj
 0004:00001a70       $pdata$?__c32rtomb_utf8@__crt_mbstring@@YA_KPEAD_UPEAU_Mbstatet@@@Z 0000000180046a70     libucrt:c32rtomb.obj
 0004:00001a7c       $pdata$__acrt_fp_strflt_to_string 0000000180046a7c     libucrt:_fptostr.obj
 0004:00001a88       $pdata$__acrt_fltout       0000000180046a88     libucrt:cfout.obj
 0004:00001a94       $pdata$_fcloseall          0000000180046a94     libucrt:closeall.obj
 0004:00001aa0       $pdata$__acrt_stdio_free_buffer_nolock 0000000180046aa0     libucrt:_freebuf.obj
 0004:00001aac       $pdata$_isatty             0000000180046aac     libucrt:isatty.obj
 0004:00001ab8       $pdata$__acrt_locale_free_monetary 0000000180046ab8     libucrt:initmon.obj
 0004:00001ac4       $pdata$__acrt_locale_initialize_monetary 0000000180046ac4     libucrt:initmon.obj
 0004:00001ad0       $pdata$__acrt_locale_free_numeric 0000000180046ad0     libucrt:initnum.obj
 0004:00001adc       $pdata$__acrt_locale_initialize_numeric 0000000180046adc     libucrt:initnum.obj
 0004:00001ae8       $pdata$?free_crt_array_internal@@YAXQEAPEBX_K@Z 0000000180046ae8     libucrt:inittime.obj
 0004:00001af4       $pdata$?initialize_lc_time@@YA_NQEAU__crt_lc_time_data@@QEAU__crt_locale_data@@@Z 0000000180046af4     libucrt:inittime.obj
 0004:00001b00       $pdata$__acrt_locale_free_time 0000000180046b00     libucrt:inittime.obj
 0004:00001b0c       $pdata$__acrt_locale_initialize_time 0000000180046b0c     libucrt:inittime.obj
 0004:00001b18       $pdata$wcscat_s            0000000180046b18     libucrt:wcscat_s.obj
 0004:00001b24       $pdata$wcsncpy_s           0000000180046b24     libucrt:wcsncpy_s.obj
 0004:00001b30       $pdata$GetLocaleNameFromDefault 0000000180046b30     libucrt:get_qualified_locale.obj
 0004:00001b3c       $pdata$GetLocaleNameFromLangCountry 0000000180046b3c     libucrt:get_qualified_locale.obj
 0004:00001b48       $pdata$GetLocaleNameFromLanguage 0000000180046b48     libucrt:get_qualified_locale.obj
 0004:00001b54       $pdata$LangCountryEnumProcEx 0000000180046b54     libucrt:get_qualified_locale.obj
 0004:00001b60       $pdata$LanguageEnumProcEx  0000000180046b60     libucrt:get_qualified_locale.obj
 0004:00001b6c       $pdata$ProcessCodePage     0000000180046b6c     libucrt:get_qualified_locale.obj
 0004:00001b78       $pdata$TestDefaultCountry  0000000180046b78     libucrt:get_qualified_locale.obj
 0004:00001b84       $pdata$TranslateName       0000000180046b84     libucrt:get_qualified_locale.obj
 0004:00001b90       $pdata$__acrt_get_qualified_locale 0000000180046b90     libucrt:get_qualified_locale.obj
 0004:00001b9c       $pdata$CountryEnumProc     0000000180046b9c     libucrt:getqloc_downlevel.obj
 0004:00001ba8       $pdata$GetLcidFromLangCountry 0000000180046ba8     libucrt:getqloc_downlevel.obj
 0004:00001bb4       $pdata$GetLcidFromLanguage 0000000180046bb4     libucrt:getqloc_downlevel.obj
 0004:00001bc0       $pdata$LangCountryEnumProc 0000000180046bc0     libucrt:getqloc_downlevel.obj
 0004:00001bcc       $pdata$LanguageEnumProc    0000000180046bcc     libucrt:getqloc_downlevel.obj
 0004:00001bd8       $pdata$ProcessCodePage     0000000180046bd8     libucrt:getqloc_downlevel.obj
 0004:00001be4       $pdata$TestDefaultLanguage 0000000180046be4     libucrt:getqloc_downlevel.obj
 0004:00001bf0       $pdata$TranslateName       0000000180046bf0     libucrt:getqloc_downlevel.obj
 0004:00001bfc       $pdata$__acrt_get_qualified_locale_downlevel 0000000180046bfc     libucrt:getqloc_downlevel.obj
 0004:00001c08       $pdata$__acrt_lowio_create_handle_array 0000000180046c08     libucrt:osfinfo.obj
 0004:00001c14       $pdata$__acrt_lowio_destroy_handle_array 0000000180046c14     libucrt:osfinfo.obj
 0004:00001c20       $pdata$__acrt_lowio_ensure_fh_exists 0000000180046c20     libucrt:osfinfo.obj
 0004:00001c2c       $pdata$_free_osfhnd        0000000180046c2c     libucrt:osfinfo.obj
 0004:00001c38       $pdata$_get_osfhandle      0000000180046c38     libucrt:osfinfo.obj
 0004:00001c50       $pdata$?GetTableIndexFromLocaleName@@YAHPEB_W@Z 0000000180046c50     libucrt:lcidtoname_downlevel.obj
 0004:00001c5c       $pdata$__acrt_DownlevelLCIDToLocaleName 0000000180046c5c     libucrt:lcidtoname_downlevel.obj
 0004:00001c68       $pdata$__acrt_DownlevelLocaleNameToLCID 0000000180046c68     libucrt:lcidtoname_downlevel.obj
 0004:00001c74       $pdata$?__wcsrtombs_utf8@__crt_mbstring@@YA_KPEADPEAPEB_W_KPEAU_Mbstatet@@@Z 0000000180046c74     libucrt:wcrtomb.obj
 0004:00001c80       $pdata$strncpy_s           0000000180046c80     libucrt:strncpy_s.obj
 0004:00001c8c       $pdata$__acrt_fenv_set_control 0000000180046c8c     libucrt:_fenvutils.obj
 0004:00001c98       $pdata$_call_matherr       0000000180046c98     libucrt:libm_error.obj
 0004:00001ca4       $pdata$_exception_enabled  0000000180046ca4     libucrt:libm_error.obj
 0004:00001cb0       $pdata$_handle_error       0000000180046cb0     libucrt:libm_error.obj
 0004:00001cbc       $pdata$_handle_errorf      0000000180046cbc     libucrt:libm_error.obj
 0004:00001cc8       $pdata$_towlower_l         0000000180046cc8     libucrt:towlower.obj
 0004:00001cd4       $pdata$qsort               0000000180046cd4     libucrt:qsort.obj
 0004:00001ce0       $pdata$4$qsort             0000000180046ce0     libucrt:qsort.obj
 0004:00001cec       $pdata$5$qsort             0000000180046cec     libucrt:qsort.obj
 0004:00001cf8       $pdata$fallbackMethod      0000000180046cf8     libucrt:strpbrk.obj
 0004:00001d04       $pdata$strpbrk             0000000180046d04     libucrt:strpbrk.obj
 0004:00001d10       $pdata$_mbsdec_l           0000000180046d10     libucrt:mbsdec.obj
 0004:00001d1c       $pdata$?initialize_multibyte@@YAHXZ 0000000180046d1c     libucrt:multibyte_initializer.obj
 0004:00001d28       $pdata$_msize_base         0000000180046d28     libucrt:msize.obj
 0004:00001d34       $pdata$??$?RV<lambda_a37b2b86f63e897a80ea819b0eb08c01>@@AEAV<lambda_38ce7e780aa69e748d6df282ebc68efe>@@V<lambda_99fb1378e971ab6e7edea83e3a7a83a2>@@@?$__crt_seh_guarded_call@H@@QEAAH$$QEAV<lambda_a37b2b86f63e897a80ea819b0eb08c01>@@AEAV<lambda_38ce7e780aa69e748d6df282ebc68efe>@@$$QEAV<lambda_99fb1378e971ab6e7edea83e3a7a83a2>@@@Z 0000000180046d34     libucrt:commit.obj
 0004:00001d40       $pdata$_commit             0000000180046d40     libucrt:commit.obj
 0004:00001d4c       $pdata$?write_double_translated_ansi_nolock@@YA?AUwrite_result@?A0x17268360@@HQEBDI@Z 0000000180046d4c     libucrt:write.obj
 0004:00001d58       $pdata$?write_text_ansi_nolock@@YA?AUwrite_result@?A0x17268360@@HQEBDI@Z 0000000180046d58     libucrt:write.obj
 0004:00001d64       $pdata$?write_text_utf16le_nolock@@YA?AUwrite_result@?A0x17268360@@HQEBDI@Z 0000000180046d64     libucrt:write.obj
 0004:00001d70       $pdata$?write_text_utf8_nolock@@YA?AUwrite_result@?A0x17268360@@HQEBDI@Z 0000000180046d70     libucrt:write.obj
 0004:00001d7c       $pdata$_write              0000000180046d7c     libucrt:write.obj
 0004:00001d88       $pdata$_write_nolock       0000000180046d88     libucrt:write.obj
 0004:00001d94       $pdata$?__mbrtoc32_utf8@__crt_mbstring@@YA_KPEA_UPEBD_KPEAU_Mbstatet@@@Z 0000000180046d94     libucrt:mbrtoc32.obj
 0004:00001da0       $pdata$fegetenv            0000000180046da0     libucrt:fegetenv.obj
 0004:00001dac       $pdata$fesetenv            0000000180046dac     libucrt:fesetenv.obj
 0004:00001db8       $pdata$feholdexcept        0000000180046db8     libucrt:feholdexcept.obj
 0004:00001dd0       $pdata$??$common_lseek_nolock@_J@@YA_JH_JH@Z 0000000180046dd0     libucrt:lseek.obj
 0004:00001ddc       $pdata$_fclose_nolock      0000000180046ddc     libucrt:fclose.obj
 0004:00001de8       $pdata$fclose              0000000180046de8     libucrt:fclose.obj
 0004:00001df4       $pdata$??$common_xtox@K_W@@YAHKQEA_W_KI_N@Z 0000000180046df4     libucrt:xtoa.obj
 0004:00001e00       $pdata$??$common_xtox_s@K_W@@YAHKQEA_W_KI_N@Z 0000000180046e00     libucrt:xtoa.obj
 0004:00001e0c       $pdata$_itow_s             0000000180046e0c     libucrt:xtoa.obj
 0004:00001e18       $pdata$_wcsnicmp           0000000180046e18     libucrt:wcsnicmp.obj
 0004:00001e24       $pdata$_wcsnicmp_l         0000000180046e24     libucrt:wcsnicmp.obj
 0004:00001e30       $pdata$?__c16rtomb_utf8@__crt_mbstring@@YA_KPEAD_SPEAU_Mbstatet@@@Z 0000000180046e30     libucrt:c16rtomb.obj
 0004:00001e3c       $pdata$__acrt_LCMapStringW 0000000180046e3c     libucrt:lcmapstringw.obj
 0004:00001e48       $pdata$_putwch_nolock      0000000180046e48     libucrt:putwch.obj
 0004:00001e54       $pdata$_clearfp            0000000180046e54     libucrt:ieee.obj
 0004:00001e60       $pdata$_log10_special      0000000180046e60     libucrt:log_special.obj
 0004:00001e6c       $pdata$_log_special_common 0000000180046e6c     libucrt:log_special.obj
 0004:00001e78       $pdata$??$?RV<lambda_751a882b2c74d4b022dec766aa51a29a>@@AEAV<lambda_628dfdc04ba53c8bfc02c9951375f3f5>@@V<lambda_f6c7be5f7998530c34de24c7437d6b54>@@@?$__crt_seh_guarded_call@H@@QEAAH$$QEAV<lambda_751a882b2c74d4b022dec766aa51a29a>@@AEAV<lambda_628dfdc04ba53c8bfc02c9951375f3f5>@@$$QEAV<lambda_f6c7be5f7998530c34de24c7437d6b54>@@@Z 0000000180046e78     libucrt:close.obj
 0004:00001e84       $pdata$_close              0000000180046e84     libucrt:close.obj
 0004:00001e90       $pdata$_close_nolock       0000000180046e90     libucrt:close.obj
 0004:00001e9c       $pdata$__dcrt_lowio_ensure_console_output_initialized 0000000180046e9c     libucrt:initcon.obj
 0004:00001ea8       $pdata$__dcrt_terminate_console_output 0000000180046ea8     libucrt:initcon.obj
 0004:00001eb4       $pdata$__dcrt_write_console 0000000180046eb4     libucrt:initcon.obj
 0004:00001ec0       $pdata$?DloadAcquireSectionWriteAccess@@YAXXZ 0000000180046ec0     DelayImp:delayhlp.obj
 0004:00001ecc       $pdata$?DloadGetSRWLockFunctionPointers@@YAEXZ 0000000180046ecc     DelayImp:delayhlp.obj
 0004:00001ed8       $pdata$?DloadMakePermanentImageCommit@@YAXPEAX_K@Z 0000000180046ed8     DelayImp:delayhlp.obj
 0004:00001ee4       $pdata$?DloadObtainSection@@YAPEAXPEAK0@Z 0000000180046ee4     DelayImp:delayhlp.obj
 0004:00001ef0       $pdata$?DloadProtectSection@@YAXKPEAK@Z 0000000180046ef0     DelayImp:delayhlp.obj
 0004:00001efc       $pdata$?DloadReleaseSectionWriteAccess@@YAXXZ 0000000180046efc     DelayImp:delayhlp.obj
 0004:00001f08       $pdata$__delayLoadHelper2  0000000180046f08     DelayImp:delayhlp.obj
 0004:00001f14       $pdata$_IsNonwritableInCurrentImage 0000000180046f14     LIBCMT:pesect.obj
 0004:00001f20       $pdata$strrchr             0000000180046f20     libvcruntime:strrchr.obj
 0004:00001f2c       $pdata$wcschr              0000000180046f2c     libvcruntime:wcschr.obj
 0004:00001f44       $pdata$__scrt_is_nonwritable_in_current_image$filt$0 0000000180046f44     LIBCMT:utility.obj
 0004:00001f50       $pdata$?fin$0@?0??dllmain_crt_process_attach@@YAHQEAUHINSTANCE__@@QEAX@Z@4HA 0000000180046f50     LIBCMT:dll_dllmain.obj
 0004:00001f5c       $pdata$?fin$0@?0??dllmain_crt_process_detach@@YAH_N@Z@4HA 0000000180046f5c     LIBCMT:dll_dllmain.obj
 0004:00001f68       $pdata$?filt$0@?0??dllmain_dispatch@@YAHQEAUHINSTANCE__@@KQEAX@Z@4HA 0000000180046f68     LIBCMT:dll_dllmain.obj
 0004:00001f74       $pdata$?filt$0@?0???$_CallSETranslator@V__FrameHandler3@@@@YAHPEAUEHExceptionRecord@@PEA_KPEAU_CONTEXT@@PEAU_xDISPATCHER_CONTEXT@@PEBU_s_FuncInfo@@K1@Z@4HA 0000000180046f74     libvcruntime:risctrnsctrl.obj
 0004:00001f80       $pdata$__DestructExceptionObject$filt$0 0000000180046f80     libvcruntime:ehhelpers.obj
 0004:00001f8c       $pdata$?filt$0@?0??CxxCallCatchBlock@__FrameHandler3@@SAPEAXPEAU_EXCEPTION_RECORD@@@Z@4HA 0000000180046f8c     libvcruntime:frame.obj
 0004:00001f98       $pdata$?fin$1@?0??CxxCallCatchBlock@__FrameHandler3@@SAPEAXPEAU_EXCEPTION_RECORD@@@Z@4HA 0000000180046f98     libvcruntime:frame.obj
 0004:00001fa4       $pdata$?filt$0@?0??FrameUnwindToState@__FrameHandler3@@SAXPEA_KPEAU_xDISPATCHER_CONTEXT@@PEBU_s_FuncInfo@@H@Z@4HA 0000000180046fa4     libvcruntime:frame.obj
 0004:00001fb0       $pdata$?fin$1@?0??FrameUnwindToState@__FrameHandler3@@SAXPEA_KPEAU_xDISPATCHER_CONTEXT@@PEBU_s_FuncInfo@@H@Z@4HA 0000000180046fb0     libvcruntime:frame.obj
 0004:00001fbc       $pdata$?fin$0@?0???$?RV<lambda_9bd929c17696992ce54f1d748594fc62>@@AEAV<lambda_082c17da81b0962e08c0587ee0fac50c>@@V<lambda_9c08ac857f4975304d44e9f601d9b878>@@@?$__crt_seh_guarded_call@PEAD@@QEAAPEAD$$QEAV<lambda_9bd929c17696992ce54f1d748594fc62>@@AEAV<lambda_082c17da81b0962e08c0587ee0fac50c>@@$$QEAV<lambda_9c08ac857f4975304d44e9f601d9b878>@@@Z@4HA 0000000180046fbc     libucrt:setlocale.obj
 0004:00001fbc       $pdata$?fin$0@?0???$?RV<lambda_bd00b5aa228bd7e7e5b2b5db5fd2933b>@@AEAV<lambda_777d11615145f89ee95b9466d285deeb>@@V<lambda_6e5e48fbd24f9f8f81b203eb3d877683>@@@?$__crt_seh_guarded_call@H@@QEAAH$$QEAV<lambda_bd00b5aa228bd7e7e5b2b5db5fd2933b>@@AEAV<lambda_777d11615145f89ee95b9466d285deeb>@@$$QEAV<lambda_6e5e48fbd24f9f8f81b203eb3d877683>@@@Z@4HA 0000000180046fbc     libucrt:winapi_thunks.obj
 0004:00001fbc       $pdata$?fin$0@?0???$?RV<lambda_638799b9deba96c50f710eeac98168cd>@@AEAV<lambda_22ebabd17bc4fa466a2aca6d8deb888d>@@V<lambda_a6f7d7db0129f75315ebf26d50c089f1>@@@?$__crt_seh_guarded_call@H@@QEAAH$$QEAV<lambda_638799b9deba96c50f710eeac98168cd>@@AEAV<lambda_22ebabd17bc4fa466a2aca6d8deb888d>@@$$QEAV<lambda_a6f7d7db0129f75315ebf26d50c089f1>@@@Z@4HA 0000000180046fbc     libucrt:onexit.obj
 0004:00001fbc       $pdata$?fin$0@?0???$?RV<lambda_efdfa57d1f175319df784efa44bb7b81>@@AEAV<lambda_5f0a4c1567f8adc6734073e5d1e1b35c>@@V<lambda_2e8a7d3640ea6ccb4c2413664c2db6fd>@@@?$__crt_seh_guarded_call@X@@QEAAX$$QEAV<lambda_efdfa57d1f175319df784efa44bb7b81>@@AEAV<lambda_5f0a4c1567f8adc6734073e5d1e1b35c>@@$$QEAV<lambda_2e8a7d3640ea6ccb4c2413664c2db6fd>@@@Z@4HA 0000000180046fbc     libucrt:mbctype.obj
 0004:00001fbc       $pdata$?fin$0@?0???$?RV<lambda_d80eeec6fff315bfe5c115232f3240e3>@@AEAV<lambda_6e4b09c48022b2350581041d5f6b0c4c>@@V<lambda_2358e3775559c9db80273638284d5e45>@@@?$__crt_seh_guarded_call@X@@QEAAX$$QEAV<lambda_d80eeec6fff315bfe5c115232f3240e3>@@AEAV<lambda_6e4b09c48022b2350581041d5f6b0c4c>@@$$QEAV<lambda_2358e3775559c9db80273638284d5e45>@@@Z@4HA 0000000180046fbc     libucrt:exit.obj
 0004:00001fbc       $pdata$?fin$0@?0???$?RV<lambda_7777bce6b2f8c936911f934f8298dc43>@@AEAV<lambda_f03950bc5685219e0bcd2087efbe011e>@@V<lambda_3883c3dff614d5e0c5f61bb1ac94921c>@@@?$__crt_seh_guarded_call@H@@QEAAH$$QEAV<lambda_7777bce6b2f8c936911f934f8298dc43>@@AEAV<lambda_f03950bc5685219e0bcd2087efbe011e>@@$$QEAV<lambda_3883c3dff614d5e0c5f61bb1ac94921c>@@@Z@4HA 0000000180046fbc     libucrt:onexit.obj
 0004:00001fbc       $pdata$?fin$0@?0???$?RV<lambda_aa87e3671a710a21b5dc78c0bdf72e11>@@AEAV<lambda_92619d2358a28f41a33ba319515a20b9>@@V<lambda_6992ecaafeb10aed2b74cb1fae11a551>@@@?$__crt_seh_guarded_call@X@@QEAAX$$QEAV<lambda_aa87e3671a710a21b5dc78c0bdf72e11>@@AEAV<lambda_92619d2358a28f41a33ba319515a20b9>@@$$QEAV<lambda_6992ecaafeb10aed2b74cb1fae11a551>@@@Z@4HA 0000000180046fbc     libucrt:per_thread_data.obj
 0004:00001fbc       $pdata$?fin$0@?0???$?RV<lambda_1d892b297fdedeee07ed8124eeb2f2fa>@@AEAV<lambda_ffc046909424fd52df0ac47e64813305>@@V<lambda_01a7098693036236037e7cdb9bca3d73>@@@?$__crt_seh_guarded_call@X@@QEAAX$$QEAV<lambda_1d892b297fdedeee07ed8124eeb2f2fa>@@AEAV<lambda_ffc046909424fd52df0ac47e64813305>@@$$QEAV<lambda_01a7098693036236037e7cdb9bca3d73>@@@Z@4HA 0000000180046fbc     libucrt:wsetlocale.obj
 0004:00001fbc       $pdata$?fin$0@?0???$?RV<lambda_f2e299630e499de9f9a165e60fcd3db5>@@AEAV<lambda_2ae9d31cdba2644fcbeaf08da7c24588>@@V<lambda_40d01ff24d0e7b3814fdbdcee8eab3c7>@@@?$__crt_seh_guarded_call@X@@QEAAX$$QEAV<lambda_f2e299630e499de9f9a165e60fcd3db5>@@AEAV<lambda_2ae9d31cdba2644fcbeaf08da7c24588>@@$$QEAV<lambda_40d01ff24d0e7b3814fdbdcee8eab3c7>@@@Z@4HA 0000000180046fbc     libucrt:per_thread_data.obj
 0004:00001fbc       $pdata$?fin$0@?0???$?RV<lambda_450d765d439847d4c735a33c368b5fc0>@@AEAV<lambda_44731a7d0e6d81c3e6aa82d741081786>@@V<lambda_601a2a7da3b7a96e9554ac7215c4b07c>@@@?$__crt_seh_guarded_call@P6AXH@Z@@QEAAP6AXH@Z$$QEAV<lambda_450d765d439847d4c735a33c368b5fc0>@@AEAV<lambda_44731a7d0e6d81c3e6aa82d741081786>@@$$QEAV<lambda_601a2a7da3b7a96e9554ac7215c4b07c>@@@Z@4HA 0000000180046fbc     libucrt:signal.obj
 0004:00001fbc       $pdata$?fin$0@?0???$?RV<lambda_2d41944a1d46af3157314b8a01080d33>@@AEAV<lambda_8f455de75cd7d7f24b4096f044d8b9e6>@@V<lambda_aa500f224e6afead328df44964fe2772>@@@?$__crt_seh_guarded_call@X@@QEAAX$$QEAV<lambda_2d41944a1d46af3157314b8a01080d33>@@AEAV<lambda_8f455de75cd7d7f24b4096f044d8b9e6>@@$$QEAV<lambda_aa500f224e6afead328df44964fe2772>@@@Z@4HA 0000000180046fbc     libucrt:per_thread_data.obj
 0004:00001fbc       $pdata$?fin$0@?0???$?RV<lambda_0ae27a3a962d80f24befdcbee591983d>@@AEAV<lambda_8d0ee55de4b1038c4002e0adecdf1839>@@V<lambda_dc504788e8f1664fe9b84e20bfb512f2>@@@?$__crt_seh_guarded_call@X@@QEAAX$$QEAV<lambda_0ae27a3a962d80f24befdcbee591983d>@@AEAV<lambda_8d0ee55de4b1038c4002e0adecdf1839>@@$$QEAV<lambda_dc504788e8f1664fe9b84e20bfb512f2>@@@Z@4HA 0000000180046fbc     libucrt:per_thread_data.obj
 0004:00001fc8       $pdata$_query_new_handler$fin$0 0000000180046fc8     libucrt:new_handler.obj
 0004:00001fd4       $pdata$?filt$0@?0???R<lambda_6e4b09c48022b2350581041d5f6b0c4c>@@QEBA@XZ@4HA 0000000180046fd4     libucrt:exit.obj
 0004:00001fe0       $pdata$raise$fin$0         0000000180046fe0     libucrt:signal.obj
 0004:00001fec       $pdata$?fin$0@?0???$?RV<lambda_410d79af7f07d98d83a3f525b3859a53>@@AEAV<lambda_3e16ef9562a7dcce91392c22ab16ea36>@@V<lambda_38119f0e861e05405d8a144b9b982f0a>@@@?$__crt_seh_guarded_call@X@@QEAAX$$QEAV<lambda_410d79af7f07d98d83a3f525b3859a53>@@AEAV<lambda_3e16ef9562a7dcce91392c22ab16ea36>@@$$QEAV<lambda_38119f0e861e05405d8a144b9b982f0a>@@@Z@4HA 0000000180046fec     libucrt:wsetlocale.obj
 0004:00001ff8       $pdata$?fin$0@?0???$?RV<lambda_7f2adfce497ff2baa965cd4f576ecfd1>@@AEAV<lambda_2a444430fde8c29194d880d93eed5e8f>@@AEAV<lambda_8dff2cf36a5417162780cd64fa2883ef>@@@?$__crt_seh_guarded_call@X@@QEAAX$$QEAV<lambda_7f2adfce497ff2baa965cd4f576ecfd1>@@AEAV<lambda_2a444430fde8c29194d880d93eed5e8f>@@AEAV<lambda_8dff2cf36a5417162780cd64fa2883ef>@@@Z@4HA 0000000180046ff8     libucrt:wsetlocale.obj
 0004:00002004       $pdata$__acrt_lowio_ensure_fh_exists$fin$0 0000000180047004     libucrt:osfinfo.obj
 0004:00002004       $pdata$__acrt_initialize_lowio$fin$0 0000000180047004     libucrt:ioinit.obj
 0004:00002010       $pdata$_ctrlfp$filt$0      0000000180047010     libucrt:fpctrl.obj
 0004:0000201c       $pdata$?fin$0@?0??update_thread_multibyte_data_internal@@YAPEAU__crt_multibyte_data@@QEAU__acrt_ptd@@QEAPEAU1@@Z@4HA 000000018004701c     libucrt:mbctype.obj
 0004:00002028       $pdata$?fin$0@?0???$?RV<lambda_842d9ff0dc9ef11c61343bbaebe7f885>@@AEAV<lambda_c5860995281e5c4ce005b3de8f5874ee>@@V<lambda_d90129c13df834fdcbf8d2b88dafcf2d>@@@?$__crt_seh_guarded_call@X@@QEAAX$$QEAV<lambda_842d9ff0dc9ef11c61343bbaebe7f885>@@AEAV<lambda_c5860995281e5c4ce005b3de8f5874ee>@@$$QEAV<lambda_d90129c13df834fdcbf8d2b88dafcf2d>@@@Z@4HA 0000000180047028     libucrt:fflush.obj
 0004:00002034       $pdata$?fin$0@?0???$?RV<lambda_886d6c58226a84441f68b9f2b8217b83>@@AEAV<lambda_ab61a845afdef5b7c387490eaf3616ee>@@V<lambda_f7f22ab5edc0698d5f6905b0d3f44752>@@@?$__crt_seh_guarded_call@X@@QEAAX$$QEAV<lambda_886d6c58226a84441f68b9f2b8217b83>@@AEAV<lambda_ab61a845afdef5b7c387490eaf3616ee>@@$$QEAV<lambda_f7f22ab5edc0698d5f6905b0d3f44752>@@@Z@4HA 0000000180047034     libucrt:fflush.obj
 0004:00002040       $pdata$__acrt_update_thread_locale_data$fin$0 0000000180047040     libucrt:locale_refcounting.obj
 0004:0000204c       $pdata$_fcloseall$fin$0    000000018004704c     libucrt:closeall.obj
 0004:00002058       $pdata$?fin$0@?0???$?RV<lambda_a37b2b86f63e897a80ea819b0eb08c01>@@AEAV<lambda_38ce7e780aa69e748d6df282ebc68efe>@@V<lambda_99fb1378e971ab6e7edea83e3a7a83a2>@@@?$__crt_seh_guarded_call@H@@QEAAH$$QEAV<lambda_a37b2b86f63e897a80ea819b0eb08c01>@@AEAV<lambda_38ce7e780aa69e748d6df282ebc68efe>@@$$QEAV<lambda_99fb1378e971ab6e7edea83e3a7a83a2>@@@Z@4HA 0000000180047058     libucrt:commit.obj
 0004:00002058       $pdata$?fin$0@?0???$?RV<lambda_751a882b2c74d4b022dec766aa51a29a>@@AEAV<lambda_628dfdc04ba53c8bfc02c9951375f3f5>@@V<lambda_f6c7be5f7998530c34de24c7437d6b54>@@@?$__crt_seh_guarded_call@H@@QEAAH$$QEAV<lambda_751a882b2c74d4b022dec766aa51a29a>@@AEAV<lambda_628dfdc04ba53c8bfc02c9951375f3f5>@@$$QEAV<lambda_f6c7be5f7998530c34de24c7437d6b54>@@@Z@4HA 0000000180047058     libucrt:close.obj
 0004:00002064       $pdata$_write$fin$0        0000000180047064     libucrt:write.obj
 0004:00002070       $pdata$fclose$fin$0        0000000180047070     libucrt:fclose.obj
 0004:0000207c       $pdata$_IsNonwritableInCurrentImage$filt$0 000000018004707c     LIBCMT:pesect.obj
 0004:00002088       $pdata$??__Fresult@?1??getStatusMap@?A0x5d6687e9@@YAAEBV?$map@V?$basic_string@DU?$char_traits@D@std@@V?$allocator@D@2@@std@@KU?$less@V?$basic_string@DU?$char_traits@D@std@@V?$allocator@D@2@@std@@@2@V?$allocator@U?$pair@$$CBV?$basic_string@DU?$char_traits@D@std@@V?$allocator@D@2@@std@@K@std@@@2@@std@@XZ@YAXXZ 0000000180047088     node_printer_win.obj
 0004:00002094       $pdata$??__Fresult@?1??getJobStatusMap@?A0x5d6687e9@@YAAEBV?$map@V?$basic_string@DU?$char_traits@D@std@@V?$allocator@D@2@@std@@KU?$less@V?$basic_string@DU?$char_traits@D@std@@V?$allocator@D@2@@std@@@2@V?$allocator@U?$pair@$$CBV?$basic_string@DU?$char_traits@D@std@@V?$allocator@D@2@@std@@K@std@@@2@@std@@XZ@YAXXZ 0000000180047094     node_printer_win.obj
 0004:000020a0       $pdata$??__Fresult@?1??getAttributeMap@?A0x5d6687e9@@YAAEBV?$map@V?$basic_string@DU?$char_traits@D@std@@V?$allocator@D@2@@std@@KU?$less@V?$basic_string@DU?$char_traits@D@std@@V?$allocator@D@2@@std@@@2@V?$allocator@U?$pair@$$CBV?$basic_string@DU?$char_traits@D@std@@V?$allocator@D@2@@std@@K@std@@@2@@std@@XZ@YAXXZ 00000001800470a0     node_printer_win.obj
 0004:000020ac       $pdata$??__Fresult@?1??getJobCommandMap@?A0x5d6687e9@@YAAEBV?$map@V?$basic_string@DU?$char_traits@D@std@@V?$allocator@D@2@@std@@KU?$less@V?$basic_string@DU?$char_traits@D@std@@V?$allocator@D@2@@std@@@2@V?$allocator@U?$pair@$$CBV?$basic_string@DU?$char_traits@D@std@@V?$allocator@D@2@@std@@K@std@@@2@@std@@XZ@YAXXZ 00000001800470ac     node_printer_win.obj
 0004:000020b8       $pdata$??__Fclassic_locale@std@@YAXXZ 00000001800470b8     libcpmt:locale0.obj
 0004:000020c4       $pdata$??__Finit_atexit@@YAXXZ 00000001800470c4     libcpmt:iosptrs.obj
 0005:00000060       $R000000                   0000000180048060     * linker generated manifest res *

 Exports

  ordinal    name

        1    _register_node_printer_
